 spellchecker

 Timestamp is 5d9c5cf3 (Tue Oct  8 12:54:59 2019)

 Preferred load address is 0000000180000000

 Start         Length     Name                   Class
 0001:00000000 0004e230H .text$mn                CODE
 0001:0004e230 00000020H .text$mn$00             CODE
 0001:0004e250 000004d0H .text$x                 CODE
 0002:00000000 000002d8H .idata$5                DATA
 0002:000002d8 00000010H .00cfg                  DATA
 0002:000002e8 00000008H .CRT$XCA                DATA
 0002:000002f0 00000008H .CRT$XCU                DATA
 0002:000002f8 00000008H .CRT$XCZ                DATA
 0002:00000300 00000008H .CRT$XIA                DATA
 0002:00000308 00000020H .CRT$XIC                DATA
 0002:00000328 00000008H .CRT$XIZ                DATA
 0002:00000330 00000008H .CRT$XPA                DATA
 0002:00000338 00000010H .CRT$XPX                DATA
 0002:00000348 00000008H .CRT$XPXA               DATA
 0002:00000350 00000008H .CRT$XPZ                DATA
 0002:00000358 00000008H .CRT$XTA                DATA
 0002:00000360 00000010H .CRT$XTZ                DATA
 0002:00000368 00000000H .gfids$y                DATA
 0002:00000370 0000a870H .rdata                  DATA
 0002:0000abe0 0000037cH .rdata$r                DATA
 0002:0000af5c 000003ccH .rdata$zzzdbg           DATA
 0002:0000b328 00000008H .rtc$IAA                DATA
 0002:0000b330 00000008H .rtc$IZZ                DATA
 0002:0000b338 00000008H .rtc$TAA                DATA
 0002:0000b340 00000008H .rtc$TZZ                DATA
 0002:0000b348 00003940H .xdata                  DATA
 0002:0000ec88 000001dcH .xdata$x                DATA
 0002:0000ee64 00000020H .didat$2                DATA
 0002:0000ee84 00000024H .didat$3                DATA
 0002:0000eea8 000001d0H .didat$4                DATA
 0002:0000f078 00000ee8H .didat$6                DATA
 0002:0000ff60 000001d0H .didat$7                DATA
 0002:00010130 0000005cH .edata                  DATA
 0002:0001018c 00000028H .idata$2                DATA
 0002:000101b4 00000014H .idata$3                DATA
 0002:000101c8 000002d8H .idata$4                DATA
 0002:000104a0 00000698H .idata$6                DATA
 0003:00000000 000210d0H .data                   DATA
 0003:000210d0 00000118H .data$r                 DATA
 0003:000211e8 000001d8H .didat$5                DATA
 0003:000213c0 00001260H .bss                    DATA
 0004:00000000 000031f8H .pdata                  DATA
 0005:00000000 00000060H .rsrc$01                DATA
 0005:00000060 00000180H .rsrc$02                DATA

  Address         Publics by Value              Rva+Base               Lib:Object

 0000:00000000       __guard_fids_count         0000000000000000     <absolute>
 0000:00000000       __guard_longjmp_count      0000000000000000     <absolute>
 0000:00000000       __hybrid_code_map          0000000000000000     <absolute>
 0000:00000000       __guard_iat_count          0000000000000000     <absolute>
 0000:00000000       __guard_longjmp_table      0000000000000000     <absolute>
 0000:00000000       __volatile_metadata        0000000000000000     <absolute>
 0000:00000000       __guard_iat_table          0000000000000000     <absolute>
 0000:00000000       __hybrid_code_map_count    0000000000000000     <absolute>
 0000:00000000       __enclave_config           0000000000000000     <absolute>
 0000:00000000       ___safe_se_handler_count   0000000000000000     <absolute>
 0000:00000000       ___safe_se_handler_table   0000000000000000     <absolute>
 0000:00000000       __guard_fids_table         0000000000000000     <absolute>
 0000:00000000       __hybrid_auxiliary_iat     0000000000000000     <absolute>
 0000:00000000       __dynamic_value_reloc_table 0000000000000000     <absolute>
 0000:00000100       __guard_flags              0000000000000100     <absolute>
 0000:00000000       __ImageBase                0000000180000000     <linker-defined>
 0001:000000e0       ?New@?$Factory@VFunctionTemplate@v8@@@imp@Nan@@SA?AV?$Local@VFunctionTemplate@v8@@@v8@@P6AXAEBV?$FunctionCallbackInfo@VValue@v8@@@3@@ZV?$Local@VValue@v8@@@5@V?$Local@VSignature@v8@@@5@@Z 00000001800010e0 f i main.obj
 0001:000002b0       ?ThrowError@Nan@@YAXPEBD@Z 00000001800012b0 f i main.obj
 0001:00000340       ??0Utf8String@Nan@@QEAA@V?$Local@VValue@v8@@@v8@@@Z 0000000180001340 f i main.obj
 0001:00000470       ?AsyncExecute@Nan@@YAXPEAUuv_work_s@@@Z 0000000180001470 f i main.obj
 0001:00000480       ?AsyncExecuteComplete@Nan@@YAXPEAUuv_work_s@@@Z 0000000180001480 f i main.obj
 0001:000004b0       ?SetPrototypeMethod@Nan@@YAXV?$Local@VFunctionTemplate@v8@@@v8@@PEBDP6AXAEBV?$FunctionCallbackInfo@VValue@v8@@@1@@Z@Z 00000001800014b0 f i main.obj
 0001:00000590       ?Ref@ObjectWrap@Nan@@MEAAXXZ 0000000180001590 f i main.obj
 0001:000005d0       ?Unref@ObjectWrap@Nan@@MEAAXXZ 00000001800015d0 f i main.obj
 0001:00000680       ?WeakCallback@ObjectWrap@Nan@@CAXAEBV?$WeakCallbackInfo@VObjectWrap@Nan@@@v8@@@Z 0000000180001680 f i main.obj
 0001:000006e0       ??_EObjectWrap@Nan@@UEAAPEAXI@Z 00000001800016e0 f i * CIL library *:* CIL module *
 0001:000006e0       ??_GObjectWrap@Nan@@UEAAPEAXI@Z 00000001800016e0 f i main.obj
 0001:00002060       ?_Tidy@?$vector@UMisspelledRange@spellchecker@@V?$allocator@UMisspelledRange@spellchecker@@@std@@@std@@AEAAXXZ 0000000180003060 f i main.obj
 0001:000020c0       ?assign@?$basic_string@DU?$char_traits@D@std@@V?$allocator@D@2@@std@@QEAAAEAV12@QEBD@Z 00000001800030c0 f i main.obj
 0001:00002220       ?_Xlength@?$vector@V?$basic_string@DU?$char_traits@D@std@@V?$allocator@D@2@@std@@V?$allocator@V?$basic_string@DU?$char_traits@D@std@@V?$allocator@D@2@@std@@@2@@std@@CAXXZ 0000000180003220 f i spellchecker_hunspell.obj
 0001:00002220       ?_Xlength@?$vector@Uaffentry@@V?$allocator@Uaffentry@@@std@@@std@@CAXXZ 0000000180003220 f i hunspell:affixmgr.obj
 0001:00002220       ?_Xlength@?$vector@GV?$allocator@G@std@@@std@@CAXXZ 0000000180003220 f i main.obj
 0001:00002220       ?_Xlength@?$vector@UMisspelledRange@spellchecker@@V?$allocator@UMisspelledRange@spellchecker@@@std@@@std@@CAXXZ 0000000180003220 f i spellchecker_hunspell.obj
 0001:000022d0       ??$_Destroy_range@V?$allocator@V?$basic_string@DU?$char_traits@D@std@@V?$allocator@D@2@@std@@@std@@@std@@YAXPEAV?$basic_string@DU?$char_traits@D@std@@V?$allocator@D@2@@0@0AEAV?$allocator@V?$basic_string@DU?$char_traits@D@std@@V?$allocator@D@2@@std@@@0@@Z 00000001800032d0 f i main.obj
 0001:00002360       ?_Xlen@?$basic_string@_WU?$char_traits@_W@std@@V?$allocator@_W@2@@std@@SAXXZ 0000000180003360 f i spellchecker_win.obj
 0001:00002360       ?_Xlen@?$basic_string@DU?$char_traits@D@std@@V?$allocator@D@2@@std@@SAXXZ 0000000180003360 f i main.obj
 0001:00002380       ??0AsyncResource@Nan@@QEAA@PEBDV?$Local@VObject@v8@@@v8@@@Z 0000000180003380 f i worker.obj
 0001:00002440       ?Call_@Callback@Nan@@AEBA?AV?$MaybeLocal@VValue@v8@@@v8@@PEAVIsolate@4@V?$Local@VObject@v8@@@4@HQEAV?$Local@VValue@v8@@@4@PEAVAsyncResource@2@@Z 0000000180003440 f i worker.obj
 0001:00002530       ??1AsyncWorker@Nan@@UEAA@XZ 0000000180003530 f i worker.obj
 0001:00002600       ?WorkComplete@AsyncWorker@Nan@@UEAAXXZ 0000000180003600 f i worker.obj
 0001:00002690       ?Destroy@AsyncWorker@Nan@@UEAAXXZ 0000000180003690 f i worker.obj
 0001:000026b0       ?HandleOKCallback@AsyncWorker@Nan@@MEAAXXZ 00000001800036b0 f i worker.obj
 0001:00002750       ?HandleErrorCallback@AsyncWorker@Nan@@MEAAXXZ 0000000180003750 f i worker.obj
 0001:00002850       ??_GAsyncWorker@Nan@@UEAAPEAXI@Z 0000000180003850 f i worker.obj
 0001:00002850       ??_EAsyncWorker@Nan@@UEAAPEAXI@Z 0000000180003850 f i * CIL library *:* CIL module *
 0001:00002890       ??_GCheckSpellingWorker@@UEAAPEAXI@Z 0000000180003890 f i worker.obj
 0001:00002890       ??_ECheckSpellingWorker@@UEAAPEAXI@Z 0000000180003890 f i * CIL library *:* CIL module *
 0001:000029a0       ?Execute@CheckSpellingWorker@@UEAAXXZ 00000001800039a0 f   worker.obj
 0001:00002a80       ?HandleOKCallback@CheckSpellingWorker@@UEAAXXZ 0000000180003a80 f   worker.obj
 0001:00002eb0       ??_ESpellcheckerThreadView@spellchecker@@UEAAPEAXI@Z 0000000180003eb0 f i * CIL library *:* CIL module *
 0001:00002eb0       ??_GSpellcheckerThreadView@spellchecker@@UEAAPEAXI@Z 0000000180003eb0 f i spellchecker_hunspell.obj
 0001:00002ee0       ?CreateThreadView@SpellcheckerImplementation@spellchecker@@UEAA?AV?$unique_ptr@VSpellcheckerThreadView@spellchecker@@U?$default_delete@VSpellcheckerThreadView@spellchecker@@@std@@@std@@XZ 0000000180003ee0 f i spellchecker_hunspell.obj
 0001:00002f20       ??_ESpellcheckerImplementation@spellchecker@@UEAAPEAXI@Z 0000000180003f20 f i * CIL library *:* CIL module *
 0001:00002f20       ??_GSpellcheckerImplementation@spellchecker@@UEAAPEAXI@Z 0000000180003f20 f i spellchecker_hunspell.obj
 0001:00002f50       ?CheckSpelling@SpellcheckerThreadView@spellchecker@@UEAA?AV?$vector@UMisspelledRange@spellchecker@@V?$allocator@UMisspelledRange@spellchecker@@@std@@@std@@PEBG_K@Z 0000000180003f50 f i spellchecker_hunspell.obj
 0001:00002f70       ??_GHunspellSpellchecker@spellchecker@@UEAAPEAXI@Z 0000000180003f70 f i spellchecker_hunspell.obj
 0001:00002f70       ??_EHunspellSpellchecker@spellchecker@@UEAAPEAXI@Z 0000000180003f70 f i * CIL library *:* CIL module *
 0001:00003000       ??_GHunspell@@QEAAPEAXI@Z  0000000180004000 f i spellchecker_hunspell.obj
 0001:00003160       ?SetDictionary@HunspellSpellchecker@spellchecker@@UEAA_NAEBV?$basic_string@DU?$char_traits@D@std@@V?$allocator@D@2@@std@@0@Z 0000000180004160 f   spellchecker_hunspell.obj
 0001:00003780       ?GetAvailableDictionaries@HunspellSpellchecker@spellchecker@@UEAA?AV?$vector@V?$basic_string@DU?$char_traits@D@std@@V?$allocator@D@2@@std@@V?$allocator@V?$basic_string@DU?$char_traits@D@std@@V?$allocator@D@2@@std@@@2@@std@@AEBV?$basic_string@DU?$char_traits@D@std@@V?$allocator@D@2@@4@@Z 0000000180004780 f   spellchecker_hunspell.obj
 0001:000037a0       ?IsMisspelled@HunspellSpellchecker@spellchecker@@UEAA_NAEBV?$basic_string@DU?$char_traits@D@std@@V?$allocator@D@2@@std@@@Z 00000001800047a0 f   spellchecker_hunspell.obj
 0001:00003870       ?CheckSpelling@HunspellSpellchecker@spellchecker@@UEAA?AV?$vector@UMisspelledRange@spellchecker@@V?$allocator@UMisspelledRange@spellchecker@@@std@@@std@@PEBG_K@Z 0000000180004870 f   spellchecker_hunspell.obj
 0001:00003b90       ?Add@HunspellSpellchecker@spellchecker@@UEAAXAEBV?$basic_string@DU?$char_traits@D@std@@V?$allocator@D@2@@std@@@Z 0000000180004b90 f   spellchecker_hunspell.obj
 0001:00003bb0       ?Remove@HunspellSpellchecker@spellchecker@@UEAAXAEBV?$basic_string@DU?$char_traits@D@std@@V?$allocator@D@2@@std@@@Z 0000000180004bb0 f   spellchecker_hunspell.obj
 0001:00003bd0       ?GetCorrectionsForMisspelling@HunspellSpellchecker@spellchecker@@UEAA?AV?$vector@V?$basic_string@DU?$char_traits@D@std@@V?$allocator@D@2@@std@@V?$allocator@V?$basic_string@DU?$char_traits@D@std@@V?$allocator@D@2@@std@@@2@@std@@AEBV?$basic_string@DU?$char_traits@D@std@@V?$allocator@D@2@@4@@Z 0000000180004bd0 f   spellchecker_hunspell.obj
 0001:00003f20       ??0?$basic_string@DU?$char_traits@D@std@@V?$allocator@D@2@@std@@QEAA@AEBV01@@Z 0000000180004f20 f i spellchecker_hunspell.obj
 0001:00004000       ?append@?$basic_string@DU?$char_traits@D@std@@V?$allocator@D@2@@std@@QEAAAEAV12@QEBD_K@Z 0000000180005000 f i spellchecker_hunspell.obj
 0001:00004080       ?_Change_array@?$vector@V?$basic_string@DU?$char_traits@D@std@@V?$allocator@D@2@@std@@V?$allocator@V?$basic_string@DU?$char_traits@D@std@@V?$allocator@D@2@@std@@@2@@std@@AEAAXQEAV?$basic_string@DU?$char_traits@D@std@@V?$allocator@D@2@@2@_K1@Z 0000000180005080 f i spellchecker_hunspell.obj
 0001:00004120       ?_Umove_if_noexcept@?$vector@V?$basic_string@DU?$char_traits@D@std@@V?$allocator@D@2@@std@@V?$allocator@V?$basic_string@DU?$char_traits@D@std@@V?$allocator@D@2@@std@@@2@@std@@AEAAXPEAV?$basic_string@DU?$char_traits@D@std@@V?$allocator@D@2@@2@00@Z 0000000180005120 f i spellchecker_hunspell.obj
 0001:00004180       ??$_Emplace_reallocate@V?$basic_string@DU?$char_traits@D@std@@V?$allocator@D@2@@std@@@?$vector@V?$basic_string@DU?$char_traits@D@std@@V?$allocator@D@2@@std@@V?$allocator@V?$basic_string@DU?$char_traits@D@std@@V?$allocator@D@2@@std@@@2@@std@@QEAAPEAV?$basic_string@DU?$char_traits@D@std@@V?$allocator@D@2@@1@QEAV21@$$QEAV21@@Z 0000000180005180 f i spellchecker_hunspell.obj
 0001:00004390       ??$_Emplace_reallocate@AEBUMisspelledRange@spellchecker@@@?$vector@UMisspelledRange@spellchecker@@V?$allocator@UMisspelledRange@spellchecker@@@std@@@std@@QEAAPEAUMisspelledRange@spellchecker@@QEAU23@AEBU23@@Z 0000000180005390 f i spellchecker_hunspell.obj
 0001:00004530       ??$_Reallocate_grow_by@V<lambda_65e615be2a453ca0576c979606f46740>@@PEBD_K@?$basic_string@DU?$char_traits@D@std@@V?$allocator@D@2@@std@@QEAAAEAV01@_KV<lambda_65e615be2a453ca0576c979606f46740>@@PEBD_K@Z 0000000180005530 f i spellchecker_hunspell.obj
 0001:000046b0       ?reserve@?$basic_string@DU?$char_traits@D@std@@V?$allocator@D@2@@std@@QEAAX_K@Z 00000001800056b0 f i spellchecker_hunspell.obj
 0001:00004870       ?ToWString@spellchecker@@YA?AV?$basic_string@_WU?$char_traits@_W@std@@V?$allocator@_W@2@@std@@AEBV?$basic_string@DU?$char_traits@D@std@@V?$allocator@D@2@@3@@Z 0000000180005870 f   spellchecker_win.obj
 0001:000049a0       ?DoCheckSpelling@spellchecker@@YA?AV?$vector@UMisspelledRange@spellchecker@@V?$allocator@UMisspelledRange@spellchecker@@@std@@@std@@PEAUISpellChecker@@PEBG_K@Z 00000001800059a0 f   spellchecker_win.obj
 0001:00004b90       ??_GWindowsSpellcheckerThreadView@spellchecker@@UEAAPEAXI@Z 0000000180005b90 f i spellchecker_win.obj
 0001:00004b90       ??_EWindowsSpellcheckerThreadView@spellchecker@@UEAAPEAXI@Z 0000000180005b90 f i * CIL library *:* CIL module *
 0001:00004bf0       ?CheckSpelling@WindowsSpellcheckerThreadView@spellchecker@@UEAA?AV?$vector@UMisspelledRange@spellchecker@@V?$allocator@UMisspelledRange@spellchecker@@@std@@@std@@PEBG_K@Z 0000000180005bf0 f   spellchecker_win.obj
 0001:00004c10       ??_EWindowsSpellchecker@spellchecker@@UEAAPEAXI@Z 0000000180005c10 f i * CIL library *:* CIL module *
 0001:00004c10       ??_GWindowsSpellchecker@spellchecker@@UEAAPEAXI@Z 0000000180005c10 f i spellchecker_win.obj
 0001:00004ce0       ?SetDictionary@WindowsSpellchecker@spellchecker@@UEAA_NAEBV?$basic_string@DU?$char_traits@D@std@@V?$allocator@D@2@@std@@0@Z 0000000180005ce0 f   spellchecker_win.obj
 0001:00004f90       ?GetAvailableDictionaries@WindowsSpellchecker@spellchecker@@UEAA?AV?$vector@V?$basic_string@DU?$char_traits@D@std@@V?$allocator@D@2@@std@@V?$allocator@V?$basic_string@DU?$char_traits@D@std@@V?$allocator@D@2@@std@@@2@@std@@AEBV?$basic_string@DU?$char_traits@D@std@@V?$allocator@D@2@@4@@Z 0000000180005f90 f   spellchecker_win.obj
 0001:00005240       ?IsMisspelled@WindowsSpellchecker@spellchecker@@UEAA_NAEBV?$basic_string@DU?$char_traits@D@std@@V?$allocator@D@2@@std@@@Z 0000000180006240 f   spellchecker_win.obj
 0001:00005340       ?CheckSpelling@WindowsSpellchecker@spellchecker@@UEAA?AV?$vector@UMisspelledRange@spellchecker@@V?$allocator@UMisspelledRange@spellchecker@@@std@@@std@@PEBG_K@Z 0000000180006340 f   spellchecker_win.obj
 0001:00005360       ?Add@WindowsSpellchecker@spellchecker@@UEAAXAEBV?$basic_string@DU?$char_traits@D@std@@V?$allocator@D@2@@std@@@Z 0000000180006360 f   spellchecker_win.obj
 0001:00005400       ?Remove@WindowsSpellchecker@spellchecker@@UEAAXAEBV?$basic_string@DU?$char_traits@D@std@@V?$allocator@D@2@@std@@@Z 0000000180006400 f   spellchecker_win.obj
 0001:00005400       _guard_check_icall_nop     0000000180006400 f   LIBCMT:guard_support.obj
 0001:00005410       ?GetCorrectionsForMisspelling@WindowsSpellchecker@spellchecker@@UEAA?AV?$vector@V?$basic_string@DU?$char_traits@D@std@@V?$allocator@D@2@@std@@V?$allocator@V?$basic_string@DU?$char_traits@D@std@@V?$allocator@D@2@@std@@@2@@std@@AEBV?$basic_string@DU?$char_traits@D@std@@V?$allocator@D@2@@4@@Z 0000000180006410 f   spellchecker_win.obj
 0001:00005760       ?CreateThreadView@WindowsSpellchecker@spellchecker@@UEAA?AV?$unique_ptr@VSpellcheckerThreadView@spellchecker@@U?$default_delete@VSpellcheckerThreadView@spellchecker@@@std@@@std@@XZ 0000000180006760 f   spellchecker_win.obj
 0001:00005850       ?CreateSpellchecker@SpellcheckerFactory@spellchecker@@SAPEAVSpellcheckerImplementation@2@H@Z 0000000180006850 f   spellchecker_win.obj
 0001:000059c0       ?assign@?$basic_string@_WU?$char_traits@_W@std@@V?$allocator@_W@2@@std@@QEAAAEAV12@QEB_W_K@Z 00000001800069c0 f i spellchecker_win.obj
 0001:00005b50       ?GetCodePage@spellchecker@@YAIPEBD@Z 0000000180006b50 f   transcoder_win.obj
 0001:00005eb0       ?Transcode8to8@spellchecker@@YA_NPEBUTranscoder@1@PEAD_KPEBD2@Z 0000000180006eb0 f   transcoder_win.obj
 0001:00006000       __local_stdio_printf_options 0000000180007000 f i hunspell:hunspell.obj
 0001:00006010       sprintf                    0000000180007010 f i hunspell:hunspell.obj
 0001:00006070       ??0Hunspell@@QEAA@PEBD00@Z 0000000180007070 f   hunspell:hunspell.obj
 0001:000061d0       ?cleanword@Hunspell@@AEAAHPEADPEBDPEAH2@Z 00000001800071d0 f   hunspell:hunspell.obj
 0001:00006500       ?mkallcap@Hunspell@@AEAAXPEAD@Z 0000000180007500 f   hunspell:hunspell.obj
 0001:000066c0       ?spellsharps@Hunspell@@AEAAPEAUhentry@@PEAD0HH0PEAHPEAPEAD@Z 00000001800076c0 f   hunspell:hunspell.obj
 0001:00006840       ?is_keepcase@Hunspell@@AEAAHPEBUhentry@@@Z 0000000180007840 f   hunspell:hunspell.obj
 0001:00006890       ?insert_sug@Hunspell@@AEAAHPEAPEAPEADPEADH@Z 0000000180007890 f   hunspell:hunspell.obj
 0001:00006920       ?spell@Hunspell@@QEAAHPEBDPEAHPEAPEAD@Z 0000000180007920 f   hunspell:hunspell.obj
 0001:00007b90       ?checkword@Hunspell@@AEAAPEAUhentry@@PEBDPEAHPEAPEAD@Z 0000000180008b90 f   hunspell:hunspell.obj
 0001:000081f0       ?suggest@Hunspell@@QEAAHPEAPEAPEADPEBD@Z 00000001800091f0 f   hunspell:hunspell.obj
 0001:00009f60       ?stem@Hunspell@@QEAAHPEAPEAPEADPEAPEADH@Z 000000018000af60 f   hunspell:hunspell.obj
 0001:0000a480       ?stem@Hunspell@@QEAAHPEAPEAPEADPEBD@Z 000000018000b480 f   hunspell:hunspell.obj
 0001:0000a510       ?mkinitcap@Hunspell@@AEAAXPEAD@Z 000000018000b510 f   hunspell:hunspell.obj
 0001:0000a620       ?mkinitcap2@Hunspell@@AEAAHPEADPEAUw_char@@H@Z 000000018000b620 f   hunspell:hunspell.obj
 0001:0000a6f0       ?add@Hunspell@@QEAAHPEBD@Z 000000018000b6f0 f   hunspell:hunspell.obj
 0001:0000a7d0       ?remove@Hunspell@@QEAAHPEBD@Z 000000018000b7d0 f   hunspell:hunspell.obj
 0001:0000a960       ?analyze@Hunspell@@QEAAHPEAPEAPEADPEBD@Z 000000018000b960 f   hunspell:hunspell.obj
 0001:0000c5e0       ?generate@Hunspell@@QEAAHPEAPEAPEADPEBDPEAPEADH@Z 000000018000d5e0 f   hunspell:hunspell.obj
 0001:0000c8d0       ?get_xml_par@Hunspell@@AEAAHPEADPEBDH@Z 000000018000d8d0 f   hunspell:hunspell.obj
 0001:0000ca80       ?check_xml_par@Hunspell@@AEAAHPEBD00@Z 000000018000da80 f   hunspell:hunspell.obj
 0001:0000cb60       ?spellml@Hunspell@@AEAAHPEAPEAPEADPEBD@Z 000000018000db60 f   hunspell:hunspell.obj
 0001:0000d1b0       ?u16_u8@@YAPEADPEADHPEBUw_char@@H@Z 000000018000e1b0 f   hunspell:csutil.obj
 0001:0000d2b0       ?u8_u16@@YAHPEAUw_char@@HPEBD@Z 000000018000e2b0 f   hunspell:csutil.obj
 0001:0000d580       ?flag_qsort@@YAXQEAGHH@Z   000000018000e580 f   hunspell:csutil.obj
 0001:0000d640       ?flag_bsearch@@YAHQEAGGH@Z 000000018000e640 f   hunspell:csutil.obj
 0001:0000d6b0       ?mystrdup@@YAPEADPEBD@Z    000000018000e6b0 f   hunspell:csutil.obj
 0001:0000d740       ?myrevstrdup@@YAPEADPEBD@Z 000000018000e740 f   hunspell:csutil.obj
 0001:0000d7e0       ?line_tok@@YAHPEBDPEAPEAPEADD@Z 000000018000e7e0 f   hunspell:csutil.obj
 0001:0000d920       ?line_uniq_app@@YAPEADPEAPEADD@Z 000000018000e920 f   hunspell:csutil.obj
 0001:0000db60       ?morphcmp@@YAHPEBD0@Z      000000018000eb60 f   hunspell:csutil.obj
 0001:0000de20       ?get_sfxcount@@YAHPEBD@Z   000000018000ee20 f   hunspell:csutil.obj
 0001:0000dee0       ?reverseword@@YAHPEAD@Z    000000018000eee0 f   hunspell:csutil.obj
 0001:0000df20       ?reverseword_utf@@YAHPEAD@Z 000000018000ef20 f   hunspell:csutil.obj
 0001:0000dfd0       ?uniqlist@@YAHPEAPEADH@Z   000000018000efd0 f   hunspell:csutil.obj
 0001:0000e0d0       ?mkallsmall_utf@@YAXPEAUw_char@@HH@Z 000000018000f0d0 f   hunspell:csutil.obj
 0001:0000e1f0       ?mkallcap_utf@@YAXPEAUw_char@@HH@Z 000000018000f1f0 f   hunspell:csutil.obj
 0001:0000e310       ?get_current_cs@@YAPEAUcs_info@@PEBD@Z 000000018000f310 f   hunspell:csutil.obj
 0001:0000e430       ?initialize_utf_tbl@@YAHXZ 000000018000f430 f   hunspell:csutil.obj
 0001:0000e4f0       ?get_captype@@YAHPEADHPEAUcs_info@@@Z 000000018000f4f0 f   hunspell:csutil.obj
 0001:0000e5e0       ?get_captype_utf8@@YAHPEAUw_char@@HH@Z 000000018000f5e0 f   hunspell:csutil.obj
 0001:0000e7e0       ?remove_ignored_chars_utf@@YAXPEADQEAGH@Z 000000018000f7e0 f   hunspell:csutil.obj
 0001:0000e8f0       ?remove_ignored_chars@@YAXPEAD0@Z 000000018000f8f0 f   hunspell:csutil.obj
 0001:0000e960       ?parse_string@@YAHPEADPEAPEADH@Z 000000018000f960 f   hunspell:csutil.obj
 0001:0000ea70       ?parse_array@@YAHPEADPEAPEADPEAPEAGPEAHHH@Z 000000018000fa70 f   hunspell:csutil.obj
 0001:0000eb20       ??0HashMgr@@QEAA@PEBD00@Z  000000018000fb20 f   hunspell:hashmgr.obj
 0001:0000ebc0       ??1HashMgr@@QEAA@XZ        000000018000fbc0 f   hunspell:hashmgr.obj
 0001:0000edd0       ?lookup@HashMgr@@QEBAPEAUhentry@@PEBD@Z 000000018000fdd0 f   hunspell:hashmgr.obj
 0001:0000ee40       ?add_word@HashMgr@@AEAAHPEBDHHPEAGH0_N@Z 000000018000fe40 f   hunspell:hashmgr.obj
 0001:0000f1f0       ?add_hidden_capitalized_word@HashMgr@@AEAAHPEADHHPEAGH0H@Z 00000001800101f0 f   hunspell:hashmgr.obj
 0001:0000f3d0       ?get_clen_and_captype@HashMgr@@AEAAHPEBDHPEAH@Z 00000001800103d0 f   hunspell:hashmgr.obj
 0001:0000f460       ?remove_forbidden_flag@HashMgr@@AEAAHPEBD@Z 0000000180010460 f   hunspell:hashmgr.obj
 0001:0000f5e0       ?load_tables@HashMgr@@AEAAHPEBD0@Z 00000001800105e0 f   hunspell:hashmgr.obj
 0001:0000fb60       ??_GFileMgr@@QEAAPEAXI@Z   0000000180010b60 f i hunspell:hashmgr.obj
 0001:0000fbe0       ?hash@HashMgr@@QEBAHPEBD@Z 0000000180010be0 f   hunspell:hashmgr.obj
 0001:0000fc50       ?decode_flags@HashMgr@@QEAAHPEAPEAGPEADPEAVFileMgr@@@Z 0000000180010c50 f   hunspell:hashmgr.obj
 0001:0000ff00       ?encode_flag@HashMgr@@QEAAPEADG@Z 0000000180010f00 f   hunspell:hashmgr.obj
 0001:00010050       ?load_config@HashMgr@@AEAAHPEBD0@Z 0000000180011050 f   hunspell:hashmgr.obj
 0001:000105a0       ?parse_aliasf@HashMgr@@AEAAHPEADPEAVFileMgr@@@Z 00000001800115a0 f   hunspell:hashmgr.obj
 0001:000109a0       ?parse_aliasm@HashMgr@@AEAAHPEADPEAVFileMgr@@@Z 00000001800119a0 f   hunspell:hashmgr.obj
 0001:00010d10       ?conv@RepList@@QEAAHPEBDPEAD@Z 0000000180011d10 f   hunspell:replist.obj
 0001:00010ec0       ?HENTRY_FIND@@YAPEADPEAUhentry@@PEBD@Z 0000000180011ec0 f i hunspell:suggestmgr.obj
 0001:00010f00       ??0SuggestMgr@@QEAA@PEBDHPEAVAffixMgr@@@Z 0000000180011f00 f   hunspell:suggestmgr.obj
 0001:00011160       ?testsug@SuggestMgr@@AEAAHPEAPEADPEBDHHHPEAHPEAJ@Z 0000000180012160 f   hunspell:suggestmgr.obj
 0001:00011260       ?suggest@SuggestMgr@@QEAAHPEAPEAPEADPEBDHPEAH@Z 0000000180012260 f   hunspell:suggestmgr.obj
 0001:00011e60       ?map_related@SuggestMgr@@AEAAHPEBDPEADHHPEAPEADHHPEBUmapentry@@HPEAHPEAJ@Z 0000000180012e60 f   hunspell:suggestmgr.obj
 0001:00012210       ?replchars@SuggestMgr@@AEAAHPEAPEADPEBDHH@Z 0000000180013210 f   hunspell:suggestmgr.obj
 0001:000126c0       ?doubletwochars@SuggestMgr@@AEAAHPEAPEADPEBDHH@Z 00000001800136c0 f   hunspell:suggestmgr.obj
 0001:000128d0       ?doubletwochars_utf@SuggestMgr@@AEAAHPEAPEADPEBUw_char@@HHH@Z 00000001800138d0 f   hunspell:suggestmgr.obj
 0001:00012b60       ?badcharkey@SuggestMgr@@AEAAHPEAPEADPEBDHH@Z 0000000180013b60 f   hunspell:suggestmgr.obj
 0001:00012f60       ?badcharkey_utf@SuggestMgr@@AEAAHPEAPEADPEBUw_char@@HHH@Z 0000000180013f60 f   hunspell:suggestmgr.obj
 0001:00013750       ?badchar@SuggestMgr@@AEAAHPEAPEADPEBDHH@Z 0000000180014750 f   hunspell:suggestmgr.obj
 0001:00013960       ?badchar_utf@SuggestMgr@@AEAAHPEAPEADPEBUw_char@@HHH@Z 0000000180014960 f   hunspell:suggestmgr.obj
 0001:00013c90       ?extrachar_utf@SuggestMgr@@AEAAHPEAPEADPEBUw_char@@HHH@Z 0000000180014c90 f   hunspell:suggestmgr.obj
 0001:00013fb0       ?forgotchar@SuggestMgr@@AEAAHPEAPEADPEBDHH@Z 0000000180014fb0 f   hunspell:suggestmgr.obj
 0001:000141d0       ?forgotchar_utf@SuggestMgr@@AEAAHPEAPEADPEBUw_char@@HHH@Z 00000001800151d0 f   hunspell:suggestmgr.obj
 0001:00014510       ?twowords@SuggestMgr@@AEAAHPEAPEADPEBDHH@Z 0000000180015510 f   hunspell:suggestmgr.obj
 0001:00014960       ?swapchar@SuggestMgr@@AEAAHPEAPEADPEBDHH@Z 0000000180015960 f   hunspell:suggestmgr.obj
 0001:00014d40       ?swapchar_utf@SuggestMgr@@AEAAHPEAPEADPEBUw_char@@HHH@Z 0000000180015d40 f   hunspell:suggestmgr.obj
 0001:000153a0       ?longswapchar_utf@SuggestMgr@@AEAAHPEAPEADPEBUw_char@@HHH@Z 00000001800163a0 f   hunspell:suggestmgr.obj
 0001:000156b0       ?movechar@SuggestMgr@@AEAAHPEAPEADPEBDHH@Z 00000001800166b0 f   hunspell:suggestmgr.obj
 0001:00015a50       ?movechar_utf@SuggestMgr@@AEAAHPEAPEADPEBUw_char@@HHH@Z 0000000180016a50 f   hunspell:suggestmgr.obj
 0001:00016030       ?ngsuggest@SuggestMgr@@QEAAHPEAPEADPEADHPEAPEAVHashMgr@@H@Z 0000000180017030 f   hunspell:suggestmgr.obj
 0001:00019300       ?checkword@SuggestMgr@@AEAAHPEBDHHPEAHPEAJ@Z 000000018001a300 f   hunspell:suggestmgr.obj
 0001:000198c0       ?check_forbidden@SuggestMgr@@AEAAHPEBDH@Z 000000018001a8c0 f   hunspell:suggestmgr.obj
 0001:00019cd0       ?suggest_morph@SuggestMgr@@QEAAPEADPEBD@Z 000000018001acd0 f   hunspell:suggestmgr.obj
 0001:0001a400       ?suggest_hentry_gen@SuggestMgr@@AEAAPEADPEAUhentry@@PEAD@Z 000000018001b400 f   hunspell:suggestmgr.obj
 0001:0001a8e0       ?suggest_gen@SuggestMgr@@QEAAPEADPEAPEADHPEAD@Z 000000018001b8e0 f   hunspell:suggestmgr.obj
 0001:0001b010       ?ngram@SuggestMgr@@AEAAHHPEADPEBDH@Z 000000018001c010 f   hunspell:suggestmgr.obj
 0001:0001b3c0       ?leftcommonsubstring@SuggestMgr@@AEAAHPEADPEBD@Z 000000018001c3c0 f   hunspell:suggestmgr.obj
 0001:0001b600       ?commoncharacterpositions@SuggestMgr@@AEAAHPEADPEBDPEAH@Z 000000018001c600 f   hunspell:suggestmgr.obj
 0001:0001b860       ?lcs@SuggestMgr@@AEAAXPEBD0PEAH1PEAPEAD@Z 000000018001c860 f   hunspell:suggestmgr.obj
 0001:0001baf0       ??0AffixMgr@@QEAA@PEBDPEAPEAVHashMgr@@PEAH0@Z 000000018001caf0 f   hunspell:affixmgr.obj
 0001:0001bd60       ??1AffixMgr@@QEAA@XZ       000000018001cd60 f   hunspell:affixmgr.obj
 0001:0001c460       ??_GRepList@@QEAAPEAXI@Z   000000018001d460 f i hunspell:affixmgr.obj
 0001:0001c4e0       ?parse_file@AffixMgr@@AEAAHPEBD0@Z 000000018001d4e0 f   hunspell:affixmgr.obj
 0001:0001d820       ?process_pfx_tree_to_list@AffixMgr@@AEAAHXZ 000000018001e820 f   hunspell:affixmgr.obj
 0001:0001d890       ?process_pfx_in_order@AffixMgr@@AEAAPEAVPfxEntry@@PEAV2@0@Z 000000018001e890 f   hunspell:affixmgr.obj
 0001:0001d8e0       ?process_sfx_tree_to_list@AffixMgr@@AEAAHXZ 000000018001e8e0 f   hunspell:affixmgr.obj
 0001:0001d960       ?process_sfx_in_order@AffixMgr@@AEAAPEAVSfxEntry@@PEAV2@0@Z 000000018001e960 f   hunspell:affixmgr.obj
 0001:0001d9b0       ?prefix_check@AffixMgr@@QEAAPEAUhentry@@PEBDHDG@Z 000000018001e9b0 f   hunspell:affixmgr.obj
 0001:0001dbf0       ?prefix_check_twosfx@AffixMgr@@QEAAPEAUhentry@@PEBDHDG@Z 000000018001ebf0 f   hunspell:affixmgr.obj
 0001:0001dd00       ?prefix_check_morph@AffixMgr@@QEAAPEADPEBDHDG@Z 000000018001ed00 f   hunspell:affixmgr.obj
 0001:0001df80       ?prefix_check_twosfx_morph@AffixMgr@@QEAAPEADPEBDHDG@Z 000000018001ef80 f   hunspell:affixmgr.obj
 0001:0001e1c0       ?cpdrep_check@AffixMgr@@QEAAHPEBDH@Z 000000018001f1c0 f   hunspell:affixmgr.obj
 0001:0001e3e0       ?cpdpat_check@AffixMgr@@QEAAHPEBDHPEAUhentry@@1D@Z 000000018001f3e0 f   hunspell:affixmgr.obj
 0001:0001e570       ?cpdcase_check@AffixMgr@@QEAAHPEBDH@Z 000000018001f570 f   hunspell:affixmgr.obj
 0001:0001e6c0       ?defcpd_check@AffixMgr@@QEAAHPEAPEAPEAUhentry@@FPEAU2@PEAPEAU2@D@Z 000000018001f6c0 f   hunspell:affixmgr.obj
 0001:0001ecf0       ?get_syllable@AffixMgr@@QEAAFPEBDH@Z 000000018001fcf0 f   hunspell:affixmgr.obj
 0001:0001ee00       ?compound_check@AffixMgr@@QEAAPEAUhentry@@PEBDHFFFFPEAPEAU2@DDPEAH@Z 000000018001fe00 f   hunspell:affixmgr.obj
 0001:000216a0       ?compound_check_morph@AffixMgr@@QEAAHPEBDHFFFFPEAPEAUhentry@@DPEAPEADPEAD@Z 00000001800226a0 f   hunspell:affixmgr.obj
 0001:00023fa0       ?suffix_check@AffixMgr@@QEAAPEAUhentry@@PEBDHHPEAVPfxEntry@@PEAPEADHPEAHGGD@Z 0000000180024fa0 f   hunspell:affixmgr.obj
 0001:000244e0       ?suffix_check_twosfx@AffixMgr@@QEAAPEAUhentry@@PEBDHHPEAVPfxEntry@@G@Z 00000001800254e0 f   hunspell:affixmgr.obj
 0001:00024640       ?suffix_check_twosfx_morph@AffixMgr@@QEAAPEADPEBDHHPEAVPfxEntry@@G@Z 0000000180025640 f   hunspell:affixmgr.obj
 0001:00024fd0       ?suffix_check_morph@AffixMgr@@QEAAPEADPEBDHHPEAVPfxEntry@@GGD@Z 0000000180025fd0 f   hunspell:affixmgr.obj
 0001:000260f0       ?affix_check@AffixMgr@@QEAAPEAUhentry@@PEBDHGD@Z 00000001800270f0 f   hunspell:affixmgr.obj
 0001:000261d0       ?affix_check_morph@AffixMgr@@QEAAPEADPEBDHGD@Z 00000001800271d0 f   hunspell:affixmgr.obj
 0001:00026490       ?morphgen@AffixMgr@@QEAAPEADPEADHPEBGG00H@Z 0000000180027490 f   hunspell:affixmgr.obj
 0001:00026870       ?expand_rootword@AffixMgr@@QEAAHPEAUguessword@@HPEBDHPEBGGPEADH3@Z 0000000180027870 f   hunspell:affixmgr.obj
 0001:000270d0       ?get_encoding@AffixMgr@@QEAAPEADXZ 00000001800280d0 f   hunspell:affixmgr.obj
 0001:00027140       ?lookup@AffixMgr@@QEAAPEAUhentry@@PEBD@Z 0000000180028140 f   hunspell:affixmgr.obj
 0001:00027210       ?parse_flag@AffixMgr@@AEAAHPEADPEAGPEAVFileMgr@@@Z 0000000180028210 f   hunspell:affixmgr.obj
 0001:00027320       ?parse_cpdsyllable@AffixMgr@@AEAAHPEADPEAVFileMgr@@@Z 0000000180028320 f   hunspell:affixmgr.obj
 0001:00027540       ?parse_reptable@AffixMgr@@AEAAHPEADPEAVFileMgr@@@Z 0000000180028540 f   hunspell:affixmgr.obj
 0001:00027980       ?parse_convtable@AffixMgr@@AEAAHPEADPEAVFileMgr@@PEAPEAVRepList@@PEBD@Z 0000000180028980 f   hunspell:affixmgr.obj
 0001:00027e50       ?parse_phonetable@AffixMgr@@AEAAHPEADPEAVFileMgr@@@Z 0000000180028e50 f   hunspell:affixmgr.obj
 0001:00028480       ?parse_checkcpdtable@AffixMgr@@AEAAHPEADPEAVFileMgr@@@Z 0000000180029480 f   hunspell:affixmgr.obj
 0001:00028980       ?parse_defcpdtable@AffixMgr@@AEAAHPEADPEAVFileMgr@@@Z 0000000180029980 f   hunspell:affixmgr.obj
 0001:00028dc0       ?parse_maptable@AffixMgr@@AEAAHPEADPEAVFileMgr@@@Z 0000000180029dc0 f   hunspell:affixmgr.obj
 0001:00029220       ?parse_breaktable@AffixMgr@@AEAAHPEADPEAVFileMgr@@@Z 000000018002a220 f   hunspell:affixmgr.obj
 0001:00029510       ?parse_affix@AffixMgr@@AEAAHPEADDPEAVFileMgr@@0@Z 000000018002a510 f   hunspell:affixmgr.obj
 0001:0002a4a0       ?redundant_condition@AffixMgr@@AEAAHDPEADHPEBDH@Z 000000018002b4a0 f   hunspell:affixmgr.obj
 0001:0002a700       ??$_Resize@V<lambda_aeb35946f5f55f09599816a64846e305>@@@?$vector@Uaffentry@@V?$allocator@Uaffentry@@@std@@@std@@AEAAX_KV<lambda_aeb35946f5f55f09599816a64846e305>@@@Z 000000018002b700 f i hunspell:affixmgr.obj
 0001:0002a900       fprintf                    000000018002b900 f i hunspell:filemgr.obj
 0001:0002a950       ??0FileMgr@@QEAA@PEBD0@Z   000000018002b950 f   hunspell:filemgr.obj
 0001:0002aac0       ?getline@FileMgr@@QEAAPEADXZ 000000018002bac0 f   hunspell:filemgr.obj
 0001:0002ab40       ?phonet@@YAHPEBDPEADHAEAUphonetable@@@Z 000000018002bb40 f   hunspell:phonet.obj
 0001:0002b2d0       ?add@PfxEntry@@QEAAPEADPEBDH@Z 000000018002c2d0 f   hunspell:affentry.obj
 0001:0002b440       ?test_condition@PfxEntry@@QEAAHPEBD@Z 000000018002c440 f i hunspell:affentry.obj
 0001:0002b810       ?checkword@PfxEntry@@QEAAPEAUhentry@@PEBDHDG@Z 000000018002c810 f   hunspell:affentry.obj
 0001:0002ba70       ?check_twosfx@PfxEntry@@QEAAPEAUhentry@@PEBDHDG@Z 000000018002ca70 f   hunspell:affentry.obj
 0001:0002bb90       ?check_twosfx_morph@PfxEntry@@QEAAPEADPEBDHDG@Z 000000018002cb90 f   hunspell:affentry.obj
 0001:0002bca0       ?check_morph@PfxEntry@@QEAAPEADPEBDHDG@Z 000000018002cca0 f   hunspell:affentry.obj
 0001:0002c340       ?add@SfxEntry@@QEAAPEADPEBDH@Z 000000018002d340 f   hunspell:affentry.obj
 0001:0002c4c0       ?test_condition@SfxEntry@@QEAAHPEBD0@Z 000000018002d4c0 f i hunspell:affentry.obj
 0001:0002c920       ?checkword@SfxEntry@@QEAAPEAUhentry@@PEBDHHPEAVPfxEntry@@PEAPEADHPEAHGGG@Z 000000018002d920 f   hunspell:affentry.obj
 0001:0002cb90       ?check_twosfx@SfxEntry@@QEAAPEAUhentry@@PEBDHHPEAVPfxEntry@@G@Z 000000018002db90 f   hunspell:affentry.obj
 0001:0002d240       ?check_twosfx_morph@SfxEntry@@QEAAPEADPEBDHHPEAVPfxEntry@@G@Z 000000018002e240 f   hunspell:affentry.obj
 0001:0002d6b0       ?get_next_homonym@SfxEntry@@QEAAPEAUhentry@@PEAU2@HPEAVPfxEntry@@GG@Z 000000018002e6b0 f   hunspell:affentry.obj
 0001:0002d970       ?getcode@Hunzip@@IEAAHPEBD@Z 000000018002e970 f   hunspell:hunzip.obj
 0001:0002dd10       ?getbuf@Hunzip@@IEAAHXZ    000000018002ed10 f   hunspell:hunzip.obj
 0001:0002dea0       ?getline@Hunzip@@QEAAPEBDXZ 000000018002eea0 f   hunspell:hunzip.obj
 0001:0002e0e8       __imp_load_uv_queue_work   000000018002f0e8 f   node:node.exe
 0001:0002e0f4       __tailMerge_node_exe       000000018002f0f4     node:node.exe
 0001:0002e16d       __imp_load_?Value@External@v8@@QEBAPEAXXZ 000000018002f16d f   node:node.exe
 0001:0002e179       __imp_load_?New@External@v8@@SA?AV?$Local@VExternal@v8@@@2@PEAVIsolate@2@PEAX@Z 000000018002f179 f   node:node.exe
 0001:0002e185       __imp_load_?NewFromUnsigned@Integer@v8@@SA?AV?$Local@VInteger@v8@@@2@PEAVIsolate@2@I@Z 000000018002f185 f   node:node.exe
 0001:0002e191       __imp_load_?New@Signature@v8@@SA?AV?$Local@VSignature@v8@@@2@PEAVIsolate@2@V?$Local@VFunctionTemplate@v8@@@2@@Z 000000018002f191 f   node:node.exe
 0001:0002e19d       __imp_load_?ThrowException@Isolate@v8@@QEAA?AV?$Local@VValue@v8@@@2@V32@@Z 000000018002f19d f   node:node.exe
 0001:0002e1a9       __imp_load_?GetCurrentContext@Isolate@v8@@QEAA?AV?$Local@VContext@v8@@@2@XZ 000000018002f1a9 f   node:node.exe
 0001:0002e1b5       __imp_load_?GetCurrent@Isolate@v8@@SAPEAV12@XZ 000000018002f1b5 f   node:node.exe
 0001:0002e1c1       __imp_load_?CreateHandle@HandleScope@v8@@KAPEAPEAVObject@internal@2@PEAVIsolate@42@PEAV342@@Z 000000018002f1c1 f   node:node.exe
 0001:0002e1cd       __imp_load_?CreateHandle@HandleScope@v8@@CAPEAPEAVObject@internal@2@PEAVHeapObject@42@PEAV342@@Z 000000018002f1cd f   node:node.exe
 0001:0002e1d9       __imp_load_??1HandleScope@v8@@QEAA@XZ 000000018002f1d9 f   node:node.exe
 0001:0002e1e5       __imp_load_??0HandleScope@v8@@QEAA@PEAVIsolate@1@@Z 000000018002f1e5 f   node:node.exe
 0001:0002e1f1       __imp_load_?Set@Template@v8@@QEAAXV?$Local@VName@v8@@@2@V?$Local@VData@v8@@@2@W4PropertyAttribute@2@@Z 000000018002f1f1 f   node:node.exe
 0001:0002e1fd       __imp_load_?Error@Exception@v8@@SA?AV?$Local@VValue@v8@@@2@V?$Local@VString@v8@@@2@@Z 000000018002f1fd f   node:node.exe
 0001:0002e209       __imp_load_?New@Array@v8@@SA?AV?$Local@VArray@v8@@@2@PEAVIsolate@2@H@Z 000000018002f209 f   node:node.exe
 0001:0002e215       __imp_load_?SetClassName@FunctionTemplate@v8@@QEAAXV?$Local@VString@v8@@@2@@Z 000000018002f215 f   node:node.exe
 0001:0002e221       __imp_load_?PrototypeTemplate@FunctionTemplate@v8@@QEAA?AV?$Local@VObjectTemplate@v8@@@2@XZ 000000018002f221 f   node:node.exe
 0001:0002e22d       __imp_load_?InstanceTemplate@FunctionTemplate@v8@@QEAA?AV?$Local@VObjectTemplate@v8@@@2@XZ 000000018002f22d f   node:node.exe
 0001:0002e239       __imp_load_?GetFunction@FunctionTemplate@v8@@QEAA?AV?$MaybeLocal@VFunction@v8@@@2@V?$Local@VContext@v8@@@2@@Z 000000018002f239 f   node:node.exe
 0001:0002e245       __imp_load_?New@FunctionTemplate@v8@@SA?AV?$Local@VFunctionTemplate@v8@@@2@PEAVIsolate@2@P6AXAEBV?$FunctionCallbackInfo@VValue@v8@@@2@@ZV?$Local@VValue@v8@@@2@V?$Local@VSignature@v8@@@2@HW4ConstructorBehavior@2@W4SideEffectType@2@@Z 000000018002f245 f   node:node.exe
 0001:0002e251       __imp_load_?ToLocalEmpty@V8@v8@@CAXXZ 000000018002f251 f   node:node.exe
 0001:0002e25d       __imp_load_?FromJustIsNothing@V8@v8@@CAXXZ 000000018002f25d f   node:node.exe
 0001:0002e269       __imp_load_?ClearWeak@V8@v8@@CAPEAXPEAPEAVObject@internal@2@@Z 000000018002f269 f   node:node.exe
 0001:0002e275       __imp_load_?MakeWeak@V8@v8@@CAXPEAPEAVObject@internal@2@PEAXP6AXAEBV?$WeakCallbackInfo@X@2@@ZW4WeakCallbackType@2@@Z 000000018002f275 f   node:node.exe
 0001:0002e281       __imp_load_?DisposeGlobal@V8@v8@@CAXPEAPEAVObject@internal@2@@Z 000000018002f281 f   node:node.exe
 0001:0002e28d       __imp_load_?GlobalizeReference@V8@v8@@CAPEAPEAVObject@internal@2@PEAVIsolate@42@PEAPEAV342@@Z 000000018002f28d f   node:node.exe
 0001:0002e299       __imp_load_?Int32Value@Value@v8@@QEBA?AV?$Maybe@H@2@V?$Local@VContext@v8@@@2@@Z 000000018002f299 f   node:node.exe
 0001:0002e2a5       __imp_load_?ToInteger@Value@v8@@QEBA?AV?$MaybeLocal@VInteger@v8@@@2@V?$Local@VContext@v8@@@2@@Z 000000018002f2a5 f   node:node.exe
 0001:0002e2b1       __imp_load_?ToString@Value@v8@@QEBA?AV?$MaybeLocal@VString@v8@@@2@V?$Local@VContext@v8@@@2@@Z 000000018002f2b1 f   node:node.exe
 0001:0002e2bd       __imp_load_?Escape@EscapableHandleScope@v8@@AEAAPEAPEAVObject@internal@2@PEAPEAV342@@Z 000000018002f2bd f   node:node.exe
 0001:0002e2c9       __imp_load_??0EscapableHandleScope@v8@@QEAA@PEAVIsolate@1@@Z 000000018002f2c9 f   node:node.exe
 0001:0002e2d5       __imp_load_?NewFromUtf8@String@v8@@SA?AV?$MaybeLocal@VString@v8@@@2@PEAVIsolate@2@PEBDW4NewStringType@2@H@Z 000000018002f2d5 f   node:node.exe
 0001:0002e2e1       __imp_load_?WriteUtf8@String@v8@@QEBAHPEADHPEAHH@Z 000000018002f2e1 f   node:node.exe
 0001:0002e2ed       __imp_load_?Write@String@v8@@QEBAHPEAGHHH@Z 000000018002f2ed f   node:node.exe
 0001:0002e2f9       __imp_load_?Length@String@v8@@QEBAHXZ 000000018002f2f9 f   node:node.exe
 0001:0002e305       __imp_load_?SlowGetAlignedPointerFromInternalField@Object@v8@@AEAAPEAXH@Z 000000018002f305 f   node:node.exe
 0001:0002e311       __imp_load_?SlowGetInternalField@Object@v8@@AEAA?AV?$Local@VValue@v8@@@2@H@Z 000000018002f311 f   node:node.exe
 0001:0002e31d       __imp_load_?New@Object@v8@@SA?AV?$Local@VObject@v8@@@2@PEAVIsolate@2@@Z 000000018002f31d f   node:node.exe
 0001:0002e329       __imp_load_?GetIsolate@Object@v8@@QEAAPEAVIsolate@2@XZ 000000018002f329 f   node:node.exe
 0001:0002e335       __imp_load_?SetAlignedPointerInInternalField@Object@v8@@QEAAXHPEAX@Z 000000018002f335 f   node:node.exe
 0001:0002e341       __imp_load_?SetInternalField@Object@v8@@QEAAXHV?$Local@VValue@v8@@@2@@Z 000000018002f341 f   node:node.exe
 0001:0002e34d       __imp_load_?InternalFieldCount@Object@v8@@QEAAHXZ 000000018002f34d f   node:node.exe
 0001:0002e359       __imp_load_?Set@Object@v8@@QEAA_NV?$Local@VValue@v8@@@2@0@Z 000000018002f359 f   node:node.exe
 0001:0002e365       __imp_load_?Set@Object@v8@@QEAA_NIV?$Local@VValue@v8@@@2@@Z 000000018002f365 f   node:node.exe
 0001:0002e371       __imp_load_?SetInternalFieldCount@ObjectTemplate@v8@@QEAAXH@Z 000000018002f371 f   node:node.exe
 0001:0002e37d       __imp_load_?NewInstance@ObjectTemplate@v8@@QEAA?AV?$MaybeLocal@VObject@v8@@@2@V?$Local@VContext@v8@@@2@@Z 000000018002f37d f   node:node.exe
 0001:0002e389       __imp_load_?New@ObjectTemplate@v8@@SA?AV?$Local@VObjectTemplate@v8@@@2@PEAVIsolate@2@V?$Local@VFunctionTemplate@v8@@@2@@Z 000000018002f389 f   node:node.exe
 0001:0002e395       __imp_load_node_module_register 000000018002f395 f   node:node.exe
 0001:0002e3a1       __imp_load_?GetCurrentEventLoop@node@@YAPEAUuv_loop_s@@PEAVIsolate@v8@@@Z 000000018002f3a1 f   node:node.exe
 0001:0002e3ad       __imp_load_?Global@Context@v8@@QEAA?AV?$Local@VObject@v8@@@2@XZ 000000018002f3ad f   node:node.exe
 0001:0002e3b9       __imp_load_?EmitAsyncDestroy@node@@YAXPEAVIsolate@v8@@Uasync_context@1@@Z 000000018002f3b9 f   node:node.exe
 0001:0002e3c5       __imp_load_?MakeCallback@node@@YA?AV?$MaybeLocal@VValue@v8@@@v8@@PEAVIsolate@3@V?$Local@VObject@v8@@@3@V?$Local@VFunction@v8@@@3@HPEAV?$Local@VValue@v8@@@3@Uasync_context@1@@Z 000000018002f3c5 f   node:node.exe
 0001:0002e3d1       __imp_load_?EmitAsyncInit@node@@YA?AUasync_context@1@PEAVIsolate@v8@@V?$Local@VObject@v8@@@4@V?$Local@VString@v8@@@4@N@Z 000000018002f3d1 f   node:node.exe
 0001:0002e3dd       __imp_load_uv_mutex_unlock 000000018002f3dd f   node:node.exe
 0001:0002e3e9       __imp_load_uv_mutex_lock   000000018002f3e9 f   node:node.exe
 0001:0002e3f5       __imp_load_uv_mutex_destroy 000000018002f3f5 f   node:node.exe
 0001:0002e401       __imp_load_uv_mutex_init   000000018002f401 f   node:node.exe
 0001:0002e410       ??0bad_alloc@std@@QEAA@AEBV01@@Z 000000018002f410 f i libcpmt:xthrow.obj
 0001:0002e450       ??0bad_alloc@std@@QEAA@XZ  000000018002f450 f i libcpmt:xthrow.obj
 0001:0002e470       ??0exception@std@@QEAA@AEBV01@@Z 000000018002f470 f i libcpmt:xthrow.obj
 0001:0002e4a8       ??0length_error@std@@QEAA@AEBV01@@Z 000000018002f4a8 f i libcpmt:xthrow.obj
 0001:0002e4e8       ??0length_error@std@@QEAA@PEBD@Z 000000018002f4e8 f i libcpmt:xthrow.obj
 0001:0002e534       ??0logic_error@std@@QEAA@AEBV01@@Z 000000018002f534 f i libcpmt:xthrow.obj
 0001:0002e574       ??1bad_alloc@std@@UEAA@XZ  000000018002f574 f i libcpmt:xthrow.obj
 0001:0002e574       ??1bad_exception@std@@UEAA@XZ 000000018002f574 f i libvcruntime:frame.obj
 0001:0002e574       ??1length_error@std@@UEAA@XZ 000000018002f574 f i libcpmt:xthrow.obj
 0001:0002e574       ??1bad_array_new_length@std@@UEAA@XZ 000000018002f574 f i LIBCMT:throw_bad_alloc.obj
 0001:0002e588       ??_Gbad_exception@std@@UEAAPEAXI@Z 000000018002f588 f i libvcruntime:frame.obj
 0001:0002e588       ??_Gbad_alloc@std@@UEAAPEAXI@Z 000000018002f588 f i libcpmt:xthrow.obj
 0001:0002e588       ??_Gexception@std@@UEAAPEAXI@Z 000000018002f588 f i libcpmt:xthrow.obj
 0001:0002e588       ??_Ebad_exception@std@@UEAAPEAXI@Z 000000018002f588 f i libvcruntime:frame.obj
 0001:0002e588       ??_Ebad_alloc@std@@UEAAPEAXI@Z 000000018002f588 f i libcpmt:xthrow.obj
 0001:0002e588       ??_Elogic_error@std@@UEAAPEAXI@Z 000000018002f588 f i libcpmt:xthrow.obj
 0001:0002e588       ??_Gbad_array_new_length@std@@UEAAPEAXI@Z 000000018002f588 f i LIBCMT:throw_bad_alloc.obj
 0001:0002e588       ??_Elength_error@std@@UEAAPEAXI@Z 000000018002f588 f i libcpmt:xthrow.obj
 0001:0002e588       ??_Eexception@std@@UEAAPEAXI@Z 000000018002f588 f i libcpmt:xthrow.obj
 0001:0002e588       ??_Ebad_array_new_length@std@@UEAAPEAXI@Z 000000018002f588 f i LIBCMT:throw_bad_alloc.obj
 0001:0002e588       ??_Glogic_error@std@@UEAAPEAXI@Z 000000018002f588 f i libcpmt:xthrow.obj
 0001:0002e588       ??_Glength_error@std@@UEAAPEAXI@Z 000000018002f588 f i libcpmt:xthrow.obj
 0001:0002e5cc       ?_Xlength_error@std@@YAXPEBD@Z 000000018002f5cc f   libcpmt:xthrow.obj
 0001:0002e5f0       ?what@exception@std@@UEBAPEBDXZ 000000018002f5f0 f i libcpmt:xthrow.obj
 0001:0002e620       __security_check_cookie    000000018002f620 f   LIBCMT:amdsecgs.obj
 0001:0002e644       ??2@YAPEAX_K@Z             000000018002f644 f   LIBCMT:new_scalar.obj
 0001:0002e680       ??_V@YAXPEAX@Z             000000018002f680 f   LIBCMT:delete_array.obj
 0001:0002e680       ??3@YAXPEAX_K@Z            000000018002f680 f   LIBCMT:delete_scalar_size.obj
 0001:0002e688       ??_U@YAPEAX_K@Z            000000018002f688 f   LIBCMT:new_array.obj
 0001:0002e9c0       _DllMainCRTStartup         000000018002f9c0 f   LIBCMT:dll_dllmain.obj
 0001:0002ea00       __raise_securityfailure    000000018002fa00 f   LIBCMT:gs_report.obj
 0001:0002ea34       __report_gsfailure         000000018002fa34 f   LIBCMT:gs_report.obj
 0001:0002eb08       __report_rangecheckfailure 000000018002fb08 f   LIBCMT:gs_report.obj
 0001:0002eb1c       __report_securityfailure   000000018002fb1c f   LIBCMT:gs_report.obj
 0001:0002ec9c       ??_Etype_info@@UEAAPEAXI@Z 000000018002fc9c f i LIBCMT:std_type_info_static.obj
 0001:0002ec9c       ??_Gtype_info@@UEAAPEAXI@Z 000000018002fc9c f i LIBCMT:std_type_info_static.obj
 0001:0002ecc8       ??0bad_array_new_length@std@@QEAA@AEBV01@@Z 000000018002fcc8 f i LIBCMT:throw_bad_alloc.obj
 0001:0002ed08       ??0bad_array_new_length@std@@QEAA@XZ 000000018002fd08 f i LIBCMT:throw_bad_alloc.obj
 0001:0002ed28       ?__scrt_throw_std_bad_alloc@@YAXXZ 000000018002fd28 f   LIBCMT:throw_bad_alloc.obj
 0001:0002ed48       ?__scrt_throw_std_bad_array_new_length@@YAXXZ 000000018002fd48 f   LIBCMT:throw_bad_alloc.obj
 0001:0002ed68       ??3@YAXPEAX@Z              000000018002fd68 f   LIBCMT:delete_scalar.obj
 0001:0002ed70       __security_init_cookie     000000018002fd70 f   LIBCMT:gs_support.obj
 0001:0002ee1c       _get_startup_argv_mode     000000018002fe1c f   LIBCMT:argv_mode.obj
 0001:0002ee1c       DllMain                    000000018002fe1c f   LIBCMT:dll_dllmain_stub.obj
 0001:0002ee24       ?__scrt_initialize_type_info@@YAXXZ 000000018002fe24 f   LIBCMT:tncleanup.obj
 0001:0002ee34       ?__scrt_uninitialize_type_info@@YAXXZ 000000018002fe34 f   LIBCMT:tncleanup.obj
 0001:0002ee40       __local_stdio_scanf_options 000000018002fe40 f i LIBCMT:default_local_stdio_options.obj
 0001:0002ee48       __scrt_initialize_default_local_stdio_options 000000018002fe48 f   LIBCMT:default_local_stdio_options.obj
 0001:0002ee64       __scrt_acquire_startup_lock 000000018002fe64 f   LIBCMT:utility.obj
 0001:0002eea0       __scrt_dllmain_after_initialize_c 000000018002fea0 f   LIBCMT:utility.obj
 0001:0002eed4       __scrt_dllmain_before_initialize_c 000000018002fed4 f   LIBCMT:utility.obj
 0001:0002eeec       __scrt_dllmain_crt_thread_attach 000000018002feec f   LIBCMT:utility.obj
 0001:0002ef14       __scrt_dllmain_crt_thread_detach 000000018002ff14 f   LIBCMT:utility.obj
 0001:0002ef2c       __scrt_dllmain_exception_filter 000000018002ff2c f   LIBCMT:utility.obj
 0001:0002ef8c       __scrt_dllmain_uninitialize_c 000000018002ff8c f   LIBCMT:utility.obj
 0001:0002efbc       __scrt_dllmain_uninitialize_critical 000000018002ffbc f   LIBCMT:utility.obj
 0001:0002efd0       __scrt_initialize_crt      000000018002ffd0 f   LIBCMT:utility.obj
 0001:0002f01c       __scrt_initialize_onexit_tables 000000018003001c f   LIBCMT:utility.obj
 0001:0002f0f4       __scrt_is_nonwritable_in_current_image 00000001800300f4 f   LIBCMT:utility.obj
 0001:0002f190       __scrt_release_startup_lock 0000000180030190 f   LIBCMT:utility.obj
 0001:0002f1b4       __scrt_uninitialize_crt    00000001800301b4 f   LIBCMT:utility.obj
 0001:0002f1e0       __scrt_get_dyn_tls_init_callback 00000001800301e0 f   LIBCMT:dyn_tls_init.obj
 0001:0002f1e8       __crt_debugger_hook        00000001800301e8 f   LIBCMT:utility_desktop.obj
 0001:0002f1f0       __scrt_fastfail            00000001800301f0 f   LIBCMT:utility_desktop.obj
 0001:0002f33c       _RTC_Initialize            000000018003033c f   LIBCMT:initsect.obj
 0001:0002f378       _RTC_Terminate             0000000180030378 f   LIBCMT:initsect.obj
 0001:0002f3b4       __isa_available_init       00000001800303b4 f   LIBCMT:cpu_disp.obj
 0001:0002f530       __scrt_is_ucrt_dll_in_use  0000000180030530 f   LIBCMT:ucrt_detection.obj
 0001:0002f540       _purecall                  0000000180030540 f   libvcruntime:purevirt.obj
 0001:0002f570       strstr                     0000000180030570 f   libvcruntime:strstr.obj
 0001:0002f770       strchr                     0000000180030770 f   libvcruntime:strchr.obj
 0001:0002f7fc       __std_exception_copy       00000001800307fc f   libvcruntime:std_exception.obj
 0001:0002f88c       __std_exception_destroy    000000018003088c f   libvcruntime:std_exception.obj
 0001:0002f8b4       _CxxThrowException         00000001800308b4 f   libvcruntime:throw.obj
 0001:0002f974       __C_specific_handler       0000000180030974 f   libvcruntime:riscchandler.obj
 0001:0002fb80       __std_type_info_compare    0000000180030b80 f   libvcruntime:std_type_info.obj
 0001:0002fba8       __std_type_info_destroy_list 0000000180030ba8 f   libvcruntime:std_type_info.obj
 0001:0002fbd4       __vcrt_initialize          0000000180030bd4 f   libvcruntime:initialization.obj
 0001:0002fc08       __vcrt_thread_attach       0000000180030c08 f   libvcruntime:initialization.obj
 0001:0002fc1c       __vcrt_thread_detach       0000000180030c1c f   libvcruntime:initialization.obj
 0001:0002fc30       __vcrt_uninitialize        0000000180030c30 f   libvcruntime:initialization.obj
 0001:0002fc50       __vcrt_uninitialize_critical 0000000180030c50 f   libvcruntime:initialization.obj
 0001:0002fc70       memset_repmovs             0000000180030c70 f   libvcruntime:memset.obj
 0001:0002fc90       memset                     0000000180030c90 f   libvcruntime:memset.obj
 0001:0002fe20       __vcrt_initialize_pure_virtual_call_handler 0000000180030e20 f   libvcruntime:purevirt_data.obj
 0001:0002fe40       _NLG_Notify                0000000180030e40 f   libvcruntime:notify.obj
 0001:0002fe60       __NLG_Dispatch2            0000000180030e60 f   libvcruntime:notify.obj
 0001:0002fe70       __NLG_Return2              0000000180030e70 f   libvcruntime:notify.obj
 0001:0002fe74       __except_validate_context_record 0000000180030e74 f   libvcruntime:jbcxrval.obj
 0001:0002feac       __DestructExceptionObject  0000000180030eac f   libvcruntime:ehhelpers.obj
 0001:0002ff20       ?_CallMemberFunction0@@YAXQEAX0@Z 0000000180030f20 f i libvcruntime:ehhelpers.obj
 0001:0002ff24       _IsExceptionObjectToBeDestroyed 0000000180030f24 f   libvcruntime:ehhelpers.obj
 0001:0002ff54       __AdjustPointer            0000000180030f54 f   libvcruntime:ehhelpers.obj
 0001:0002ff78       __FrameUnwindFilter        0000000180030f78 f   libvcruntime:ehhelpers.obj
 0001:0002ffc4       __vcrt_freefls             0000000180030fc4 f   libvcruntime:per_thread_data.obj
 0001:0002ffe4       __vcrt_freeptd             0000000180030fe4 f   libvcruntime:per_thread_data.obj
 0001:00030034       __vcrt_getptd              0000000180031034 f   libvcruntime:per_thread_data.obj
 0001:00030050       __vcrt_getptd_noexit       0000000180031050 f   libvcruntime:per_thread_data.obj
 0001:0003011c       __vcrt_initialize_ptd      000000018003111c f   libvcruntime:per_thread_data.obj
 0001:00030170       __vcrt_uninitialize_ptd    0000000180031170 f   libvcruntime:per_thread_data.obj
 0001:00030194       __vcrt_initialize_locks    0000000180031194 f   libvcruntime:locks.obj
 0001:000301dc       __vcrt_uninitialize_locks  00000001800311dc f   libvcruntime:locks.obj
 0001:000303ec       __vcrt_FlsAlloc            00000001800313ec f   libvcruntime:winapi_downlevel.obj
 0001:00030434       __vcrt_FlsFree             0000000180031434 f   libvcruntime:winapi_downlevel.obj
 0001:0003047c       __vcrt_FlsGetValue         000000018003147c f   libvcruntime:winapi_downlevel.obj
 0001:000304c4       __vcrt_FlsSetValue         00000001800314c4 f   libvcruntime:winapi_downlevel.obj
 0001:00030518       __vcrt_InitializeCriticalSectionEx 0000000180031518 f   libvcruntime:winapi_downlevel.obj
 0001:0003057c       __vcrt_initialize_winapi_thunks 000000018003157c f   libvcruntime:winapi_downlevel.obj
 0001:000305ac       __vcrt_uninitialize_winapi_thunks 00000001800315ac f   libvcruntime:winapi_downlevel.obj
 0001:000305ec       ??$_CallSETranslator@V__FrameHandler3@@@@YAHPEAUEHExceptionRecord@@PEA_KPEAU_CONTEXT@@PEAU_xDISPATCHER_CONTEXT@@PEBU_s_FuncInfo@@K1@Z 00000001800315ec f i libvcruntime:risctrnsctrl.obj
 0001:00030640       ?CatchTryBlock@__FrameHandler3@@SAPEBU_s_TryBlockMapEntry@@PEBU_s_FuncInfo@@H@Z 0000000180031640 f   libvcruntime:risctrnsctrl.obj
 0001:00030698       ?ExecutionInCatch@__FrameHandler3@@SA_NPEAU_xDISPATCHER_CONTEXT@@PEBU_s_FuncInfo@@@Z 0000000180031698 f   libvcruntime:risctrnsctrl.obj
 0001:000306c4       ?FrameUnwindToEmptyState@__FrameHandler3@@SAXPEA_KPEAU_xDISPATCHER_CONTEXT@@PEBU_s_FuncInfo@@@Z 00000001800316c4 f   libvcruntime:risctrnsctrl.obj
 0001:00030728       ?GetEstablisherFrame@__FrameHandler3@@SAPEA_KPEA_KPEAU_xDISPATCHER_CONTEXT@@PEBU_s_FuncInfo@@0@Z 0000000180031728 f   libvcruntime:risctrnsctrl.obj
 0001:000307f4       ?GetRangeOfTrysToCheck@__FrameHandler3@@SA?AU?$pair@Viterator@TryBlockMap@__FrameHandler3@@V123@@std@@AEAVTryBlockMap@1@HH@Z 00000001800317f4 f   libvcruntime:risctrnsctrl.obj
 0001:00030950       ?UnwindNestedFrames@__FrameHandler3@@SAXPEA_KPEAUEHExceptionRecord@@PEAU_CONTEXT@@0PEAXPEBU_s_FuncInfo@@HHPEBU_s_HandlerType@@PEAU_xDISPATCHER_CONTEXT@@E@Z 0000000180031950 f   libvcruntime:risctrnsctrl.obj
 0001:00030a74       _CreateFrameInfo           0000000180031a74 f   libvcruntime:risctrnsctrl.obj
 0001:00030ab0       _FindAndUnlinkFrame        0000000180031ab0 f   libvcruntime:risctrnsctrl.obj
 0001:00030b04       _GetImageBase              0000000180031b04 f   libvcruntime:risctrnsctrl.obj
 0001:00030b18       _GetThrowImageBase         0000000180031b18 f   libvcruntime:risctrnsctrl.obj
 0001:00030b2c       _SetImageBase              0000000180031b2c f   libvcruntime:risctrnsctrl.obj
 0001:00030b44       _SetThrowImageBase         0000000180031b44 f   libvcruntime:risctrnsctrl.obj
 0001:00030b5c       __CxxFrameHandler3         0000000180031b5c f   libvcruntime:risctrnsctrl.obj
 0001:00030bf0       memcpy_repmovs             0000000180031bf0 f   libvcruntime:memcpy.obj
 0001:00030c10       memmove                    0000000180031c10 f   libvcruntime:memcpy.obj
 0001:00030c10       memcpy                     0000000180031c10 f   libvcruntime:memcpy.obj
 0001:00031038       ?GetCurrentState@__FrameHandler3@@SAHPEA_KPEAU_xDISPATCHER_CONTEXT@@PEBU_s_FuncInfo@@@Z 0000000180032038 f   libvcruntime:ehstate.obj
 0001:00031060       ?GetUnwindTryBlock@__FrameHandler3@@SAHPEA_KPEAU_xDISPATCHER_CONTEXT@@PEBU_s_FuncInfo@@@Z 0000000180032060 f   libvcruntime:ehstate.obj
 0001:0003108c       ?SetState@__FrameHandler3@@SAXPEA_KPEBU_s_FuncInfo@@H@Z 000000018003208c f   libvcruntime:ehstate.obj
 0001:00031098       ?SetUnwindTryBlock@__FrameHandler3@@SAXPEA_KPEAU_xDISPATCHER_CONTEXT@@PEBU_s_FuncInfo@@H@Z 0000000180032098 f   libvcruntime:ehstate.obj
 0001:000310d4       ?StateFromControlPc@__FrameHandler3@@SAHPEBU_s_FuncInfo@@PEAU_xDISPATCHER_CONTEXT@@@Z 00000001800320d4 f   libvcruntime:ehstate.obj
 0001:000310dc       ?StateFromIp@__FrameHandler3@@SAHPEBU_s_FuncInfo@@PEAU_xDISPATCHER_CONTEXT@@_K@Z 00000001800320dc f   libvcruntime:ehstate.obj
 0001:00031b68       ??$TypeMatchHelper@V__FrameHandler3@@@@YAHPEBU_s_HandlerType@@PEBU_s_CatchableType@@PEBU_s_ThrowInfo@@@Z 0000000180032b68 f i libvcruntime:frame.obj
 0001:00031cac       ??$__InternalCxxFrameHandler@V__FrameHandler3@@@@YA?AW4_EXCEPTION_DISPOSITION@@PEAUEHExceptionRecord@@PEA_KPEAU_CONTEXT@@PEAU_xDISPATCHER_CONTEXT@@PEBU_s_FuncInfo@@H1E@Z 0000000180032cac f i libvcruntime:frame.obj
 0001:00031ef4       ??0bad_exception@std@@QEAA@AEBV01@@Z 0000000180032ef4 f i libvcruntime:frame.obj
 0001:00031f34       ??0bad_exception@std@@QEAA@XZ 0000000180032f34 f i libvcruntime:frame.obj
 0001:00031f54       ?CxxCallCatchBlock@__FrameHandler3@@SAPEAXPEAU_EXCEPTION_RECORD@@@Z 0000000180032f54 f   libvcruntime:frame.obj
 0001:000321c8       ?FrameUnwindToState@__FrameHandler3@@SAXPEA_KPEAU_xDISPATCHER_CONTEXT@@PEBU_s_FuncInfo@@H@Z 00000001800331c8 f   libvcruntime:frame.obj
 0001:0003235c       ?GetHandlerSearchState@__FrameHandler3@@SAHPEA_KPEAU_xDISPATCHER_CONTEXT@@PEBU_s_FuncInfo@@@Z 000000018003335c f i libvcruntime:frame.obj
 0001:00032560       ?_CallMemberFunction1@@YAXQEAX00@Z 0000000180033560 f i libvcruntime:frame.obj
 0001:0003256c       ?_CallMemberFunction2@@YAXQEAX00H@Z 000000018003356c f i libvcruntime:frame.obj
 0001:00032590       _CallSettingFrame          0000000180033590 f   libvcruntime:handlers.obj
 0001:000325e0       _CallSettingFrameEncoded   00000001800335e0 f   libvcruntime:handlers.obj
 0001:00032628       free                       0000000180033628 f   libucrt:free.obj
 0001:00032d54       ??$ftprintf@PEAU_iobuf@@PEB_WAEBQEB_WAEBQEB_WAEBI@?$__crt_char_traits@_W@@SAH$$QEAPEAU_iobuf@@$$QEAPEB_WAEBQEB_W2AEBI@Z 0000000180033d54 f i libucrt:assert.obj
 0001:00032d7c       _wassert                   0000000180033d7c f   libucrt:assert.obj
 0001:00032df0       fwprintf                   0000000180033df0 f i libucrt:assert.obj
 0001:00032e34       swprintf                   0000000180033e34 f i libucrt:assert.obj
 0001:00032e88       __acrt_call_reportfault    0000000180033e88 f   libucrt:invalid_parameter.obj
 0001:00032fe4       __acrt_initialize_invalid_parameter_handler 0000000180033fe4 f   libucrt:invalid_parameter.obj
 0001:00032fec       _invalid_parameter         0000000180033fec f   libucrt:invalid_parameter.obj
 0001:0003309c       _invalid_parameter_noinfo  000000018003409c f   libucrt:invalid_parameter.obj
 0001:000330bc       _invalid_parameter_noinfo_noreturn 00000001800340bc f   libucrt:invalid_parameter.obj
 0001:000330ec       _invoke_watson             00000001800340ec f   libucrt:invalid_parameter.obj
 0001:00033134       malloc                     0000000180034134 f   libucrt:malloc.obj
 0001:0003341c       setlocale                  000000018003441c f   libucrt:setlocale.obj
 0001:00033524       fopen                      0000000180034524 f   libucrt:fopen.obj
 0001:00033530       _fclose_nolock             0000000180034530 f   libucrt:fclose.obj
 0001:000335b4       fclose                     00000001800345b4 f   libucrt:fclose.obj
 0001:00033618       ??0_LocaleUpdate@@QEAA@QEAU__crt_locale_pointers@@@Z 0000000180034618 f i libucrt:_wctype.obj
 0001:000336b4       ??1_LocaleUpdate@@QEAA@XZ  00000001800346b4 f i libucrt:_wctype.obj
 0001:000336c8       _isleadbyte_l              00000001800346c8 f i libucrt:_wctype.obj
 0001:00033714       iswalpha                   0000000180034714 f i libucrt:_wctype.obj
 0001:00033720       iswpunct                   0000000180034720 f i libucrt:_wctype.obj
 0001:0003372c       iswspace                   000000018003472c f i libucrt:_wctype.obj
 0001:00033824       getenv                     0000000180034824 f   libucrt:getenv.obj
 0001:0003382c       __ascii_stricmp            000000018003482c f   libucrt:stricmp.obj
 0001:0003386c       _stricmp                   000000018003486c f   libucrt:stricmp.obj
 0001:000338b4       _stricmp_l                 00000001800348b4 f   libucrt:stricmp.obj
 0001:00033968       realloc                    0000000180034968 f   libucrt:realloc.obj
 0001:00033980       strncpy                    0000000180034980 f   libucrt:strncpy.obj
 0001:00033b00       strncmp                    0000000180034b00 f   libucrt:strncmp.obj
 0001:00033fa0       ??$ensure_buffer_is_big_enough@D@formatting_buffer@__crt_stdio_output@@QEAA_N_K@Z 0000000180034fa0 f i libucrt:output.obj
 0001:00034048       ??$ensure_buffer_is_big_enough@_W@formatting_buffer@__crt_stdio_output@@QEAA_N_K@Z 0000000180035048 f i libucrt:output.obj
 0001:000340f4       ??$is_wide_character_specifier@_W@__crt_stdio_output@@YA_N_K_WW4length_modifier@0@@Z 00000001800350f4 f i libucrt:output.obj
 0001:00034134       ??$type_case_integer_parse_into_buffer@I@?$output_processor@DV?$string_output_adapter@D@__crt_stdio_output@@V?$standard_base@DV?$string_output_adapter@D@__crt_stdio_output@@@2@@__crt_stdio_output@@AEAAXII_N@Z 0000000180035134 f i libucrt:output.obj
 0001:00034134       ??$type_case_integer_parse_into_buffer@I@?$output_processor@DV?$stream_output_adapter@D@__crt_stdio_output@@V?$standard_base@DV?$stream_output_adapter@D@__crt_stdio_output@@@2@@__crt_stdio_output@@AEAAXII_N@Z 0000000180035134 f i libucrt:output.obj
 0001:000341c4       ??$type_case_integer_parse_into_buffer@I@?$output_processor@_WV?$stream_output_adapter@_W@__crt_stdio_output@@V?$standard_base@_WV?$stream_output_adapter@_W@__crt_stdio_output@@@2@@__crt_stdio_output@@AEAAXII_N@Z 00000001800351c4 f i libucrt:output.obj
 0001:000341c4       ??$type_case_integer_parse_into_buffer@I@?$output_processor@_WV?$string_output_adapter@_W@__crt_stdio_output@@V?$standard_base@_WV?$string_output_adapter@_W@__crt_stdio_output@@@2@@__crt_stdio_output@@AEAAXII_N@Z 00000001800351c4 f i libucrt:output.obj
 0001:00034268       ??$type_case_integer_parse_into_buffer@_K@?$output_processor@DV?$stream_output_adapter@D@__crt_stdio_output@@V?$standard_base@DV?$stream_output_adapter@D@__crt_stdio_output@@@2@@__crt_stdio_output@@AEAAX_KI_N@Z 0000000180035268 f i libucrt:output.obj
 0001:00034268       ??$type_case_integer_parse_into_buffer@_K@?$output_processor@DV?$string_output_adapter@D@__crt_stdio_output@@V?$standard_base@DV?$string_output_adapter@D@__crt_stdio_output@@@2@@__crt_stdio_output@@AEAAX_KI_N@Z 0000000180035268 f i libucrt:output.obj
 0001:000342fc       ??$type_case_integer_parse_into_buffer@_K@?$output_processor@_WV?$stream_output_adapter@_W@__crt_stdio_output@@V?$standard_base@_WV?$stream_output_adapter@_W@__crt_stdio_output@@@2@@__crt_stdio_output@@AEAAX_KI_N@Z 00000001800352fc f i libucrt:output.obj
 0001:000342fc       ??$type_case_integer_parse_into_buffer@_K@?$output_processor@_WV?$string_output_adapter@_W@__crt_stdio_output@@V?$standard_base@_WV?$string_output_adapter@_W@__crt_stdio_output@@@2@@__crt_stdio_output@@AEAAX_KI_N@Z 00000001800352fc f i libucrt:output.obj
 0001:000343a0       ??$write_multiple_characters@V?$stream_output_adapter@D@__crt_stdio_output@@D@__crt_stdio_output@@YAXAEBV?$stream_output_adapter@D@0@DHQEAH@Z 00000001800353a0 f i libucrt:output.obj
 0001:0003442c       ??$write_multiple_characters@V?$stream_output_adapter@_W@__crt_stdio_output@@D@__crt_stdio_output@@YAXAEBV?$stream_output_adapter@_W@0@DHQEAH@Z 000000018003542c f i libucrt:output.obj
 0001:000344c0       ??$write_multiple_characters@V?$string_output_adapter@D@__crt_stdio_output@@D@__crt_stdio_output@@YAXAEBV?$string_output_adapter@D@0@DHQEAH@Z 00000001800354c0 f i libucrt:output.obj
 0001:00034538       ??$write_multiple_characters@V?$string_output_adapter@_W@__crt_stdio_output@@D@__crt_stdio_output@@YAXAEBV?$string_output_adapter@_W@0@DHQEAH@Z 0000000180035538 f i libucrt:output.obj
 0001:00034818       ?crop_zeroes@__crt_stdio_output@@YAXPEADQEAU__crt_locale_pointers@@@Z 0000000180035818 f i libucrt:output.obj
 0001:00034884       ?force_decimal_point@__crt_stdio_output@@YAXPEADQEAU__crt_locale_pointers@@@Z 0000000180035884 f i libucrt:output.obj
 0001:000348f4       ?parse_int_from_format_string@?$output_processor@DV?$stream_output_adapter@D@__crt_stdio_output@@V?$standard_base@DV?$stream_output_adapter@D@__crt_stdio_output@@@2@@__crt_stdio_output@@AEAA_NQEAH@Z 00000001800358f4 f i libucrt:output.obj
 0001:000348f4       ?parse_int_from_format_string@?$output_processor@DV?$string_output_adapter@D@__crt_stdio_output@@V?$standard_base@DV?$string_output_adapter@D@__crt_stdio_output@@@2@@__crt_stdio_output@@AEAA_NQEAH@Z 00000001800358f4 f i libucrt:output.obj
 0001:00034998       ?parse_int_from_format_string@?$output_processor@_WV?$string_output_adapter@_W@__crt_stdio_output@@V?$standard_base@_WV?$string_output_adapter@_W@__crt_stdio_output@@@2@@__crt_stdio_output@@AEAA_NQEAH@Z 0000000180035998 f i libucrt:output.obj
 0001:00034998       ?parse_int_from_format_string@?$output_processor@_WV?$stream_output_adapter@_W@__crt_stdio_output@@V?$standard_base@_WV?$stream_output_adapter@_W@__crt_stdio_output@@@2@@__crt_stdio_output@@AEAA_NQEAH@Z 0000000180035998 f i libucrt:output.obj
 0001:00034a3c       ?process@?$output_processor@DV?$stream_output_adapter@D@__crt_stdio_output@@V?$standard_base@DV?$stream_output_adapter@D@__crt_stdio_output@@@2@@__crt_stdio_output@@QEAAHXZ 0000000180035a3c f i libucrt:output.obj
 0001:00034c54       ?process@?$output_processor@DV?$string_output_adapter@D@__crt_stdio_output@@V?$standard_base@DV?$string_output_adapter@D@__crt_stdio_output@@@2@@__crt_stdio_output@@QEAAHXZ 0000000180035c54 f i libucrt:output.obj
 0001:00034e60       ?process@?$output_processor@_WV?$stream_output_adapter@_W@__crt_stdio_output@@V?$standard_base@_WV?$stream_output_adapter@_W@__crt_stdio_output@@@2@@__crt_stdio_output@@QEAAHXZ 0000000180035e60 f i libucrt:output.obj
 0001:000350cc       ?process@?$output_processor@_WV?$string_output_adapter@_W@__crt_stdio_output@@V?$standard_base@_WV?$string_output_adapter@_W@__crt_stdio_output@@@2@@__crt_stdio_output@@QEAAHXZ 00000001800360cc f i libucrt:output.obj
 0001:00035348       ?state_case_normal@?$output_processor@DV?$stream_output_adapter@D@__crt_stdio_output@@V?$standard_base@DV?$stream_output_adapter@D@__crt_stdio_output@@@2@@__crt_stdio_output@@AEAA_NXZ 0000000180036348 f i libucrt:output.obj
 0001:000353b8       ?state_case_normal@?$output_processor@DV?$string_output_adapter@D@__crt_stdio_output@@V?$standard_base@DV?$string_output_adapter@D@__crt_stdio_output@@@2@@__crt_stdio_output@@AEAA_NXZ 00000001800363b8 f i libucrt:output.obj
 0001:0003542c       ?state_case_normal_tchar@?$output_processor@DV?$stream_output_adapter@D@__crt_stdio_output@@V?$standard_base@DV?$stream_output_adapter@D@__crt_stdio_output@@@2@@__crt_stdio_output@@AEAA_ND@Z 000000018003642c f i libucrt:output.obj
 0001:000354d0       ?state_case_normal_tchar@?$output_processor@DV?$string_output_adapter@D@__crt_stdio_output@@V?$standard_base@DV?$string_output_adapter@D@__crt_stdio_output@@@2@@__crt_stdio_output@@AEAA_ND@Z 00000001800364d0 f i libucrt:output.obj
 0001:00035578       ?state_case_size@?$output_processor@DV?$stream_output_adapter@D@__crt_stdio_output@@V?$standard_base@DV?$stream_output_adapter@D@__crt_stdio_output@@@2@@__crt_stdio_output@@AEAA_NXZ 0000000180036578 f i libucrt:output.obj
 0001:000356ec       ?state_case_size@?$output_processor@DV?$string_output_adapter@D@__crt_stdio_output@@V?$standard_base@DV?$string_output_adapter@D@__crt_stdio_output@@@2@@__crt_stdio_output@@AEAA_NXZ 00000001800366ec f i libucrt:output.obj
 0001:00035860       ?state_case_size@?$output_processor@_WV?$stream_output_adapter@_W@__crt_stdio_output@@V?$standard_base@_WV?$stream_output_adapter@_W@__crt_stdio_output@@@2@@__crt_stdio_output@@AEAA_NXZ 0000000180036860 f i libucrt:output.obj
 0001:000359f8       ?state_case_size@?$output_processor@_WV?$string_output_adapter@_W@__crt_stdio_output@@V?$standard_base@_WV?$string_output_adapter@_W@__crt_stdio_output@@@2@@__crt_stdio_output@@AEAA_NXZ 00000001800369f8 f i libucrt:output.obj
 0001:00035b90       ?state_case_type@?$output_processor@DV?$stream_output_adapter@D@__crt_stdio_output@@V?$standard_base@DV?$stream_output_adapter@D@__crt_stdio_output@@@2@@__crt_stdio_output@@AEAA_NXZ 0000000180036b90 f i libucrt:output.obj
 0001:00035e14       ?state_case_type@?$output_processor@DV?$string_output_adapter@D@__crt_stdio_output@@V?$standard_base@DV?$string_output_adapter@D@__crt_stdio_output@@@2@@__crt_stdio_output@@AEAA_NXZ 0000000180036e14 f i libucrt:output.obj
 0001:0003607c       ?state_case_type@?$output_processor@_WV?$stream_output_adapter@_W@__crt_stdio_output@@V?$standard_base@_WV?$stream_output_adapter@_W@__crt_stdio_output@@@2@@__crt_stdio_output@@AEAA_NXZ 000000018003707c f i libucrt:output.obj
 0001:0003635c       ?state_case_type@?$output_processor@_WV?$string_output_adapter@_W@__crt_stdio_output@@V?$standard_base@_WV?$string_output_adapter@_W@__crt_stdio_output@@@2@@__crt_stdio_output@@AEAA_NXZ 000000018003735c f i libucrt:output.obj
 0001:00036628       ?type_case_Z@?$output_processor@DV?$string_output_adapter@D@__crt_stdio_output@@V?$standard_base@DV?$string_output_adapter@D@__crt_stdio_output@@@2@@__crt_stdio_output@@AEAA_NXZ 0000000180037628 f i libucrt:output.obj
 0001:00036628       ?type_case_Z@?$output_processor@DV?$stream_output_adapter@D@__crt_stdio_output@@V?$standard_base@DV?$stream_output_adapter@D@__crt_stdio_output@@@2@@__crt_stdio_output@@AEAA_NXZ 0000000180037628 f i libucrt:output.obj
 0001:000366a0       ?type_case_Z@?$output_processor@_WV?$string_output_adapter@_W@__crt_stdio_output@@V?$standard_base@_WV?$string_output_adapter@_W@__crt_stdio_output@@@2@@__crt_stdio_output@@AEAA_NXZ 00000001800376a0 f i libucrt:output.obj
 0001:000366a0       ?type_case_Z@?$output_processor@_WV?$stream_output_adapter@_W@__crt_stdio_output@@V?$standard_base@_WV?$stream_output_adapter@_W@__crt_stdio_output@@@2@@__crt_stdio_output@@AEAA_NXZ 00000001800376a0 f i libucrt:output.obj
 0001:0003671c       ?type_case_a@?$output_processor@DV?$stream_output_adapter@D@__crt_stdio_output@@V?$standard_base@DV?$stream_output_adapter@D@__crt_stdio_output@@@2@@__crt_stdio_output@@AEAA_NXZ 000000018003771c f i libucrt:output.obj
 0001:0003671c       ?type_case_a@?$output_processor@DV?$string_output_adapter@D@__crt_stdio_output@@V?$standard_base@DV?$string_output_adapter@D@__crt_stdio_output@@@2@@__crt_stdio_output@@AEAA_NXZ 000000018003771c f i libucrt:output.obj
 0001:000368d8       ?type_case_a@?$output_processor@_WV?$stream_output_adapter@_W@__crt_stdio_output@@V?$standard_base@_WV?$stream_output_adapter@_W@__crt_stdio_output@@@2@@__crt_stdio_output@@AEAA_NXZ 00000001800378d8 f i libucrt:output.obj
 0001:000368d8       ?type_case_a@?$output_processor@_WV?$string_output_adapter@_W@__crt_stdio_output@@V?$standard_base@_WV?$string_output_adapter@_W@__crt_stdio_output@@@2@@__crt_stdio_output@@AEAA_NXZ 00000001800378d8 f i libucrt:output.obj
 0001:00036ab8       ?type_case_c_tchar@?$output_processor@DV?$stream_output_adapter@D@__crt_stdio_output@@V?$standard_base@DV?$stream_output_adapter@D@__crt_stdio_output@@@2@@__crt_stdio_output@@AEAA_ND@Z 0000000180037ab8 f i libucrt:output.obj
 0001:00036ab8       ?type_case_c_tchar@?$output_processor@DV?$string_output_adapter@D@__crt_stdio_output@@V?$standard_base@DV?$string_output_adapter@D@__crt_stdio_output@@@2@@__crt_stdio_output@@AEAA_ND@Z 0000000180037ab8 f i libucrt:output.obj
 0001:00036b74       ?type_case_c_tchar@?$output_processor@_WV?$string_output_adapter@_W@__crt_stdio_output@@V?$standard_base@_WV?$string_output_adapter@_W@__crt_stdio_output@@@2@@__crt_stdio_output@@AEAA_N_W@Z 0000000180037b74 f i libucrt:output.obj
 0001:00036b74       ?type_case_c_tchar@?$output_processor@_WV?$stream_output_adapter@_W@__crt_stdio_output@@V?$standard_base@_WV?$stream_output_adapter@_W@__crt_stdio_output@@@2@@__crt_stdio_output@@AEAA_N_W@Z 0000000180037b74 f i libucrt:output.obj
 0001:00036c1c       ?type_case_integer@?$output_processor@DV?$stream_output_adapter@D@__crt_stdio_output@@V?$standard_base@DV?$stream_output_adapter@D@__crt_stdio_output@@@2@@__crt_stdio_output@@AEAA_NI_N@Z 0000000180037c1c f i libucrt:output.obj
 0001:00036c1c       ?type_case_integer@?$output_processor@DV?$string_output_adapter@D@__crt_stdio_output@@V?$standard_base@DV?$string_output_adapter@D@__crt_stdio_output@@@2@@__crt_stdio_output@@AEAA_NI_N@Z 0000000180037c1c f i libucrt:output.obj
 0001:00036de4       ?type_case_integer@?$output_processor@_WV?$string_output_adapter@_W@__crt_stdio_output@@V?$standard_base@_WV?$string_output_adapter@_W@__crt_stdio_output@@@2@@__crt_stdio_output@@AEAA_NI_N@Z 0000000180037de4 f i libucrt:output.obj
 0001:00036de4       ?type_case_integer@?$output_processor@_WV?$stream_output_adapter@_W@__crt_stdio_output@@V?$standard_base@_WV?$stream_output_adapter@_W@__crt_stdio_output@@@2@@__crt_stdio_output@@AEAA_NI_N@Z 0000000180037de4 f i libucrt:output.obj
 0001:00036fb0       ?type_case_n@?$output_processor@DV?$string_output_adapter@D@__crt_stdio_output@@V?$standard_base@DV?$string_output_adapter@D@__crt_stdio_output@@@2@@__crt_stdio_output@@AEAA_NXZ 0000000180037fb0 f i libucrt:output.obj
 0001:00036fb0       ?type_case_n@?$output_processor@_WV?$stream_output_adapter@_W@__crt_stdio_output@@V?$standard_base@_WV?$stream_output_adapter@_W@__crt_stdio_output@@@2@@__crt_stdio_output@@AEAA_NXZ 0000000180037fb0 f i libucrt:output.obj
 0001:00036fb0       ?type_case_n@?$output_processor@DV?$stream_output_adapter@D@__crt_stdio_output@@V?$standard_base@DV?$stream_output_adapter@D@__crt_stdio_output@@@2@@__crt_stdio_output@@AEAA_NXZ 0000000180037fb0 f i libucrt:output.obj
 0001:00036fb0       ?type_case_n@?$output_processor@_WV?$string_output_adapter@_W@__crt_stdio_output@@V?$standard_base@_WV?$string_output_adapter@_W@__crt_stdio_output@@@2@@__crt_stdio_output@@AEAA_NXZ 0000000180037fb0 f i libucrt:output.obj
 0001:0003708c       ?type_case_s@?$output_processor@DV?$string_output_adapter@D@__crt_stdio_output@@V?$standard_base@DV?$string_output_adapter@D@__crt_stdio_output@@@2@@__crt_stdio_output@@AEAA_NXZ 000000018003808c f i libucrt:output.obj
 0001:0003708c       ?type_case_s@?$output_processor@DV?$stream_output_adapter@D@__crt_stdio_output@@V?$standard_base@DV?$stream_output_adapter@D@__crt_stdio_output@@@2@@__crt_stdio_output@@AEAA_NXZ 000000018003808c f i libucrt:output.obj
 0001:00037124       ?type_case_s@?$output_processor@_WV?$string_output_adapter@_W@__crt_stdio_output@@V?$standard_base@_WV?$string_output_adapter@_W@__crt_stdio_output@@@2@@__crt_stdio_output@@AEAA_NXZ 0000000180038124 f i libucrt:output.obj
 0001:00037124       ?type_case_s@?$output_processor@_WV?$stream_output_adapter@_W@__crt_stdio_output@@V?$standard_base@_WV?$stream_output_adapter@_W@__crt_stdio_output@@@2@@__crt_stdio_output@@AEAA_NXZ 0000000180038124 f i libucrt:output.obj
 0001:000371ec       ?validate_stream_is_ansi_if_required@?$__acrt_stdio_char_traits@D@@SA_NQEAU_iobuf@@@Z 00000001800381ec f i libucrt:output.obj
 0001:00037288       ?write_stored_string_tchar@?$output_processor@DV?$stream_output_adapter@D@__crt_stdio_output@@V?$standard_base@DV?$stream_output_adapter@D@__crt_stdio_output@@@2@@__crt_stdio_output@@AEAA_ND@Z 0000000180038288 f i libucrt:output.obj
 0001:000373ac       ?write_stored_string_tchar@?$output_processor@DV?$string_output_adapter@D@__crt_stdio_output@@V?$standard_base@DV?$string_output_adapter@D@__crt_stdio_output@@@2@@__crt_stdio_output@@AEAA_ND@Z 00000001800383ac f i libucrt:output.obj
 0001:00037484       ?write_stored_string_tchar@?$output_processor@_WV?$stream_output_adapter@_W@__crt_stdio_output@@V?$standard_base@_WV?$stream_output_adapter@_W@__crt_stdio_output@@@2@@__crt_stdio_output@@AEAA_N_W@Z 0000000180038484 f i libucrt:output.obj
 0001:0003758c       ?write_stored_string_tchar@?$output_processor@_WV?$string_output_adapter@_W@__crt_stdio_output@@V?$standard_base@_WV?$string_output_adapter@_W@__crt_stdio_output@@@2@@__crt_stdio_output@@AEAA_N_W@Z 000000018003858c f i libucrt:output.obj
 0001:00037678       ?write_string@?$string_output_adapter@D@__crt_stdio_output@@QEBAXQEBDHQEAHAEAV__crt_deferred_errno_cache@@@Z 0000000180038678 f i libucrt:output.obj
 0001:0003771c       ?write_string@?$string_output_adapter@_W@__crt_stdio_output@@QEBAXQEB_WHQEAHAEAV__crt_deferred_errno_cache@@@Z 000000018003871c f i libucrt:output.obj
 0001:000377c4       ?write_string_impl@?$output_adapter_common@DV?$stream_output_adapter@D@__crt_stdio_output@@@__crt_stdio_output@@IEBAXQEBDHQEAHAEAV__crt_deferred_errno_cache@@@Z 00000001800387c4 f i libucrt:output.obj
 0001:000378bc       ?write_string_impl@?$output_adapter_common@_WV?$stream_output_adapter@_W@__crt_stdio_output@@@__crt_stdio_output@@IEBAXQEB_WHQEAHAEAV__crt_deferred_errno_cache@@@Z 00000001800388bc f i libucrt:output.obj
 0001:000379c0       __stdio_common_vfprintf    00000001800389c0 f   libucrt:output.obj
 0001:00037a4c       __stdio_common_vfwprintf   0000000180038a4c f   libucrt:output.obj
 0001:00037ad8       __stdio_common_vsprintf    0000000180038ad8 f   libucrt:output.obj
 0001:00037ae0       __stdio_common_vswprintf   0000000180038ae0 f   libucrt:output.obj
 0001:00037ae8       __acrt_initialize_stdio    0000000180038ae8 f   libucrt:_file.obj
 0001:00037c08       __acrt_iob_func            0000000180038c08 f   libucrt:_file.obj
 0001:00037c1c       __acrt_uninitialize_stdio  0000000180038c1c f   libucrt:_file.obj
 0001:00037c78       _lock_file                 0000000180038c78 f   libucrt:_file.obj
 0001:00037c84       _unlock_file               0000000180038c84 f   libucrt:_file.obj
 0001:00037c90       ??$parse_integer@KV?$c_string_character_source@D@__crt_strtox@@@__crt_strtox@@YAKQEAU__crt_locale_pointers@@V?$c_string_character_source@D@0@H_N@Z 0000000180038c90 f i libucrt:atox.obj
 0001:00037fcc       ??$parse_integer@KV?$c_string_character_source@_W@__crt_strtox@@@__crt_strtox@@YAKQEAU__crt_locale_pointers@@V?$c_string_character_source@_W@0@H_N@Z 0000000180038fcc f i libucrt:atox.obj
 0001:00038680       _wtol                      0000000180039680 f   libucrt:atox.obj
 0001:000386ac       atoi                       00000001800396ac f   libucrt:atox.obj
 0001:000386d8       _isalpha_l                 00000001800396d8 f i libucrt:_ctype.obj
 0001:00038744       isalpha                    0000000180039744 f i libucrt:_ctype.obj
 0001:00038780       isdigit                    0000000180039780 f i libucrt:_ctype.obj
 0001:00038814       isspace                    0000000180039814 f i libucrt:_ctype.obj
 0001:000388a8       calloc                     00000001800398a8 f   libucrt:calloc.obj
 0001:000388b0       __acrt_initialize_clock    00000001800398b0 f   libucrt:clock.obj
 0001:00038904       clock                      0000000180039904 f   libucrt:clock.obj
 0001:00038a34       fgets                      0000000180039a34 f   libucrt:fgets.obj
 0001:00038a3c       _fread_nolock_s            0000000180039a3c f   libucrt:fread.obj
 0001:00038ccc       fread                      0000000180039ccc f   libucrt:fread.obj
 0001:00038cec       fread_s                    0000000180039cec f   libucrt:fread.obj
 0001:00038d94       __acrt_initialize_new_handler 0000000180039d94 f   libucrt:new_handler.obj
 0001:00038d9c       _callnewh                  0000000180039d9c f   libucrt:new_handler.obj
 0001:00038dcc       _query_new_handler         0000000180039dcc f   libucrt:new_handler.obj
 0001:00038e00       _initterm                  0000000180039e00 f   libucrt:initterm.obj
 0001:00038e64       _initterm_e                0000000180039e64 f   libucrt:initterm.obj
 0001:00038ea4       _seh_filter_dll            0000000180039ea4 f   libucrt:exception_filter.obj
 0001:00038eb8       _seh_filter_exe            0000000180039eb8 f   libucrt:exception_filter.obj
 0001:000392a8       __acrt_initialize_thread_local_exit_callback 000000018003a2a8 f   libucrt:exit.obj
 0001:000392b0       _cexit                     000000018003a2b0 f   libucrt:exit.obj
 0001:000392c0       _exit                      000000018003a2c0 f   libucrt:exit.obj
 0001:000392cc       _is_c_termination_complete 000000018003a2cc f   libucrt:exit.obj
 0001:00039498       __acrt_allocate_buffer_for_argv 000000018003a498 f   libucrt:argv_parsing.obj
 0001:000394f8       _configure_narrow_argv     000000018003a4f8 f   libucrt:argv_parsing.obj
 0001:00039944       __dcrt_get_or_create_narrow_environment_nolock 000000018003a944 f   libucrt:environment_initialization.obj
 0001:00039980       __dcrt_uninitialize_environments_nolock 000000018003a980 f   libucrt:environment_initialization.obj
 0001:000399b8       _initialize_narrow_environment 000000018003a9b8 f   libucrt:environment_initialization.obj
 0001:00039b14       _execute_onexit_table      000000018003ab14 f   libucrt:onexit.obj
 0001:00039b50       _initialize_onexit_table   000000018003ab50 f   libucrt:onexit.obj
 0001:00039bb0       __acrt_uninitialize_command_line 000000018003abb0 f   libucrt:argv_data.obj
 0001:00039ca8       __acrt_initialize          000000018003aca8 f   libucrt:initialization.obj
 0001:00039cbc       __acrt_thread_attach       000000018003acbc f   libucrt:initialization.obj
 0001:00039cd0       __acrt_thread_detach       000000018003acd0 f   libucrt:initialization.obj
 0001:00039ce0       __acrt_uninitialize        000000018003ace0 f   libucrt:initialization.obj
 0001:00039d18       __acrt_uninitialize_critical 000000018003ad18 f   libucrt:initialization.obj
 0001:00039d28       terminate                  000000018003ad28 f   libucrt:terminate.obj
 0001:00039d48       abort                      000000018003ad48 f   libucrt:abort.obj
 0001:00039da0       strcpy_s                   000000018003ada0 f   libucrt:strcpy_s.obj
 0001:00039e00       wcsncmp                    000000018003ae00 f   libucrt:wcsncmp.obj
 0001:00039e2c       _free_base                 000000018003ae2c f   libucrt:free_base.obj
 0001:00039e6c       _query_app_type            000000018003ae6c f   libucrt:report_runtime_error.obj
 0001:00039e74       __acrt_errno_from_os_error 000000018003ae74 f   libucrt:errno.obj
 0001:00039ebc       __acrt_errno_map_os_error  000000018003aebc f   libucrt:errno.obj
 0001:00039f0c       __doserrno                 000000018003af0c f   libucrt:errno.obj
 0001:00039f2c       _errno                     000000018003af2c f   libucrt:errno.obj
 0001:0003a08c       _itow_s                    000000018003b08c f   libucrt:xtoa.obj
 0001:0003a0ac       _set_error_mode            000000018003b0ac f   libucrt:set_error_mode.obj
 0001:0003a0ec       wcscat_s                   000000018003b0ec f   libucrt:wcscat_s.obj
 0001:0003a16c       wcscpy_s                   000000018003b16c f   libucrt:wcscpy_s.obj
 0001:0003a1d4       wcsncat_s                  000000018003b1d4 f   libucrt:wcsncat_s.obj
 0001:0003a2d4       ??$__acrt_wcs_to_mbs_cp@U__crt_win32_buffer_no_resizing@@@@YAHQEB_WAEAV?$__crt_win32_buffer@DU__crt_win32_buffer_no_resizing@@@@I@Z 000000018003b2d4 f i libucrt:getmodulefilenamea.obj
 0001:0003a3e8       __acrt_GetModuleFileNameA  000000018003b3e8 f   libucrt:getmodulefilenamea.obj
 0001:0003a508       __acrt_show_wide_message_box 000000018003b508 f   libucrt:crtmbox.obj
 0001:0003a7c8       __acrt_stdio_flush_nolock  000000018003b7c8 f   libucrt:fflush.obj
 0001:0003a844       _fflush_nolock             000000018003b844 f   libucrt:fflush.obj
 0001:0003a890       _flushall                  000000018003b890 f   libucrt:fflush.obj
 0001:0003a898       fflush                     000000018003b898 f   libucrt:fflush.obj
 0001:0003aa20       setvbuf                    000000018003ba20 f   libucrt:setvbuf.obj
 0001:0003ab04       __acrt_get_sigabrt_handler 000000018003bb04 f   libucrt:signal.obj
 0001:0003ab34       __acrt_initialize_signal_handlers 000000018003bb34 f   libucrt:signal.obj
 0001:0003ab54       raise                      000000018003bb54 f   libucrt:signal.obj
 0001:0003b138       __acrt_freeptd             000000018003c138 f   libucrt:per_thread_data.obj
 0001:0003b17c       __acrt_getptd              000000018003c17c f   libucrt:per_thread_data.obj
 0001:0003b250       __acrt_getptd_head         000000018003c250 f   libucrt:per_thread_data.obj
 0001:0003b2f8       __acrt_getptd_noexit       000000018003c2f8 f   libucrt:per_thread_data.obj
 0001:0003b3c4       __acrt_initialize_ptd      000000018003c3c4 f   libucrt:per_thread_data.obj
 0001:0003b400       __acrt_uninitialize_ptd    000000018003c400 f   libucrt:per_thread_data.obj
 0001:0003b424       _malloc_base               000000018003c424 f   libucrt:malloc_base.obj
 0001:0003b484       _calloc_base               000000018003c484 f   libucrt:calloc_base.obj
 0001:0003b700       _mbstowcs_s_l              000000018003c700 f   libucrt:mbstowcs.obj
 0001:0003b834       mbstowcs_s                 000000018003c834 f   libucrt:mbstowcs.obj
 0001:0003bbbc       _wcstombs_s_l              000000018003cbbc f   libucrt:wcstombs.obj
 0001:0003bca8       __acrt_initialize_locks    000000018003cca8 f   libucrt:locks.obj
 0001:0003bcf0       __acrt_lock                000000018003ccf0 f   libucrt:locks.obj
 0001:0003bd0c       __acrt_uninitialize_locks  000000018003cd0c f   libucrt:locks.obj
 0001:0003bd44       __acrt_unlock              000000018003cd44 f   libucrt:locks.obj
 0001:0003bfdc       __acrt_AppPolicyGetProcessTerminationMethodInternal 000000018003cfdc f   libucrt:winapi_thunks.obj
 0001:0003c02c       __acrt_AppPolicyGetShowDeveloperDiagnosticInternal 000000018003d02c f   libucrt:winapi_thunks.obj
 0001:0003c07c       __acrt_AppPolicyGetWindowingModelInternal 000000018003d07c f   libucrt:winapi_thunks.obj
 0001:0003c0cc       __acrt_AreFileApisANSI     000000018003d0cc f   libucrt:winapi_thunks.obj
 0001:0003c108       __acrt_CompareStringEx     000000018003d108 f   libucrt:winapi_thunks.obj
 0001:0003c1e4       __acrt_EnumSystemLocalesEx 000000018003d1e4 f   libucrt:winapi_thunks.obj
 0001:0003c27c       __acrt_FlsAlloc            000000018003d27c f   libucrt:winapi_thunks.obj
 0001:0003c2c4       __acrt_FlsFree             000000018003d2c4 f   libucrt:winapi_thunks.obj
 0001:0003c30c       __acrt_FlsGetValue         000000018003d30c f   libucrt:winapi_thunks.obj
 0001:0003c354       __acrt_FlsSetValue         000000018003d354 f   libucrt:winapi_thunks.obj
 0001:0003c3a8       __acrt_GetLocaleInfoEx     000000018003d3a8 f   libucrt:winapi_thunks.obj
 0001:0003c42c       __acrt_GetUserDefaultLocaleName 000000018003d42c f   libucrt:winapi_thunks.obj
 0001:0003c490       __acrt_InitializeCriticalSectionEx 000000018003d490 f   libucrt:winapi_thunks.obj
 0001:0003c4f4       __acrt_IsValidLocaleName   000000018003d4f4 f   libucrt:winapi_thunks.obj
 0001:0003c54c       __acrt_LCIDToLocaleName    000000018003d54c f   libucrt:winapi_thunks.obj
 0001:0003c5bc       __acrt_LCMapStringEx       000000018003d5bc f   libucrt:winapi_thunks.obj
 0001:0003c698       __acrt_LocaleNameToLCID    000000018003d698 f   libucrt:winapi_thunks.obj
 0001:0003c6e8       __acrt_MessageBoxW         000000018003d6e8 f   libucrt:winapi_thunks.obj
 0001:0003c75c       __acrt_can_show_message_box 000000018003d75c f   libucrt:winapi_thunks.obj
 0001:0003c7cc       __acrt_can_use_vista_locale_apis 000000018003d7cc f   libucrt:winapi_thunks.obj
 0001:0003c7fc       __acrt_eagerly_load_locale_apis 000000018003d7fc f   libucrt:winapi_thunks.obj
 0001:0003c958       __acrt_get_parent_window   000000018003d958 f   libucrt:winapi_thunks.obj
 0001:0003c9d0       __acrt_initialize_winapi_thunks 000000018003d9d0 f   libucrt:winapi_thunks.obj
 0001:0003ca04       __acrt_is_interactive      000000018003da04 f   libucrt:winapi_thunks.obj
 0001:0003cacc       __acrt_uninitialize_winapi_thunks 000000018003dacc f   libucrt:winapi_thunks.obj
 0001:0003cd7c       __acrt_copy_locale_name    000000018003dd7c f   libucrt:wsetlocale.obj
 0001:0003ce00       __acrt_set_locale_changed  000000018003de00 f   libucrt:wsetlocale.obj
 0001:0003ce0c       __acrt_uninitialize_locale 000000018003de0c f   libucrt:wsetlocale.obj
 0001:0003ce3c       __lc_lctowcs               000000018003de3c f   libucrt:wsetlocale.obj
 0001:0003cee0       __lc_wcstolc               000000018003dee0 f   libucrt:wsetlocale.obj
 0001:0003d11c       _expandlocale              000000018003e11c f   libucrt:wsetlocale.obj
 0001:0003d500       _wcscats                   000000018003e500 f   libucrt:wsetlocale.obj
 0001:0003d568       _wsetlocale                000000018003e568 f   libucrt:wsetlocale.obj
 0001:0003dde0       ?__acrt_stdio_allocate_stream@@YA?AV__crt_stdio_stream@@XZ 000000018003ede0 f   libucrt:stream.obj
 0001:0003de38       ?__acrt_stdio_free_stream@@YAXV__crt_stdio_stream@@@Z 000000018003ee38 f   libucrt:stream.obj
 0001:0003df40       ??$__acrt_stdio_parse_mode@D@@YA?AU__acrt_stdio_stream_mode@@QEBD@Z 000000018003ef40 f i libucrt:openfile.obj
 0001:0003e204       _openfile                  000000018003f204 f   libucrt:openfile.obj
 0001:0003e314       _close                     000000018003f314 f   libucrt:close.obj
 0001:0003e3b8       _close_nolock              000000018003f3b8 f   libucrt:close.obj
 0001:0003e478       _fileno                    000000018003f478 f   libucrt:fileno.obj
 0001:0003e4a0       __acrt_stdio_free_buffer_nolock 000000018003f4a0 f   libucrt:_freebuf.obj
 0001:0003e4e0       iswctype                   000000018003f4e0 f   libucrt:iswctype.obj
 0001:0003e550       __acrt_update_locale_info  000000018003f550 f   libucrt:locale_update.obj
 0001:0003e584       __acrt_update_multibyte_info 000000018003f584 f   libucrt:locale_update.obj
 0001:0003e5b8       strnlen                    000000018003f5b8 f   libucrt:strnlen.obj
 0001:0003e708       wcsnlen                    000000018003f708 f   libucrt:strnlen.obj
 0001:0003e8e0       _strnicoll                 000000018003f8e0 f   libucrt:strnicol.obj
 0001:0003e8f8       _strnicoll_l               000000018003f8f8 f   libucrt:strnicol.obj
 0001:0003ea58       _tolower_l                 000000018003fa58 f   libucrt:tolower_toupper.obj
 0001:0003eb98       tolower                    000000018003fb98 f   libucrt:tolower_toupper.obj
 0001:0003ebc4       _realloc_base              000000018003fbc4 f   libucrt:realloc_base.obj
 0001:0003ec40       strtol                     000000018003fc40 f   libucrt:strtox.obj
 0001:0003ec6c       wcstol                     000000018003fc6c f   libucrt:strtox.obj
 0001:0003ec98       _mbtowc_l                  000000018003fc98 f   libucrt:mbtowc.obj
 0001:0003ee14       mbtowc                     000000018003fe14 f   libucrt:mbtowc.obj
 0001:0003ee1c       _wctomb_s_l                000000018003fe1c f   libucrt:wctomb.obj
 0001:0003efbc       wctomb_s                   000000018003ffbc f   libucrt:wctomb.obj
 0001:0003f9a4       __acrt_fp_format           00000001800409a4 f   libucrt:cvt.obj
 0001:0003fc2c       _fputwc_nolock             0000000180040c2c f   libucrt:fputwc.obj
 0001:0003fda8       _fputc_nolock              0000000180040da8 f   libucrt:fputc.obj
 0001:0003fdc0       _get_printf_count_output   0000000180040dc0 f   libucrt:printf_count_output.obj
 0001:0003fdd8       __acrt_stdio_begin_temporary_buffering_nolock 0000000180040dd8 f   libucrt:_sftbuf.obj
 0001:0003fea8       __acrt_stdio_end_temporary_buffering_nolock 0000000180040ea8 f   libucrt:_sftbuf.obj
 0001:000400e0       __acrt_initialize_lowio    00000001800410e0 f   libucrt:ioinit.obj
 0001:0004011c       __acrt_uninitialize_lowio  000000018004111c f   libucrt:ioinit.obj
 0001:0004015c       _fcloseall                 000000018004115c f   libucrt:closeall.obj
 0001:00040210       __pctype_func              0000000180041210 f   libucrt:ctype.obj
 0001:00040240       _isctype_l                 0000000180041240 f   libucrt:isctype.obj
 0001:00040350       _fgetc_nolock              0000000180041350 f   libucrt:fgetc.obj
 0001:00040394       _getc_nolock               0000000180041394 f   libucrt:fgetc.obj
 0001:00040970       _read                      0000000180041970 f   libucrt:read.obj
 0001:00040a8c       _read_nolock               0000000180041a8c f   libucrt:read.obj
 0001:00040ee4       __acrt_stdio_refill_and_read_narrow_nolock 0000000180041ee4 f   libucrt:_filbuf.obj
 0001:00041050       __acrt_get_developer_information_policy 0000000180042050 f   libucrt:win_policies.obj
 0001:000410a4       __acrt_get_process_end_policy 00000001800420a4 f   libucrt:win_policies.obj
 0001:000410e0       __acrt_get_windowing_model_policy 00000001800420e0 f   libucrt:win_policies.obj
 0001:00041160       ??$__acrt_mbs_to_wcs_cp@U__crt_win32_buffer_internal_dynamic_resizing@@@@YAHQEBDAEAV?$__crt_win32_buffer@_WU__crt_win32_buffer_internal_dynamic_resizing@@@@I@Z 0000000180042160 f i libucrt:argv_wildcards.obj
 0001:000412d8       ??$__acrt_wcs_to_mbs_cp@U__crt_win32_buffer_internal_dynamic_resizing@@@@YAHQEB_WAEAV?$__crt_win32_buffer@DU__crt_win32_buffer_internal_dynamic_resizing@@@@I@Z 00000001800422d8 f i libucrt:argv_wildcards.obj
 0001:00041b08       __acrt_expand_narrow_argv_wildcards 0000000180042b08 f   libucrt:argv_wildcards.obj
 0001:0004223c       __acrt_initialize_multibyte 000000018004323c f   libucrt:mbctype.obj
 0001:0004229c       __acrt_update_thread_multibyte_data 000000018004329c f   libucrt:mbctype.obj
 0001:000422b8       _setmbcp_nolock            00000001800432b8 f   libucrt:mbctype.obj
 0001:000425ec       _ismbblead                 00000001800435ec f   libucrt:ismbbyte.obj
 0001:00042600       __acrt_initialize_command_line 0000000180043600 f   libucrt:argv_data.obj
 0001:00042628       __acrt_MultiByteToWideChar 0000000180043628 f   libucrt:multibytetowidechar.obj
 0001:00042684       __acrt_WideCharToMultiByte 0000000180043684 f   libucrt:widechartomultibyte.obj
 0001:0004271c       __dcrt_get_narrow_environment_from_os 000000018004371c f   libucrt:get_environment_from_os.obj
 0001:00042c28       __dcrt_set_variable_in_narrow_environment_nolock 0000000180043c28 f   libucrt:setenv.obj
 0001:00042c30       _recalloc_base             0000000180043c30 f   libucrt:recalloc.obj
 0001:00042cc8       __acrt_initialize_heap     0000000180043cc8 f   libucrt:heap_handle.obj
 0001:00042ce4       __acrt_uninitialize_heap   0000000180043ce4 f   libucrt:heap_handle.obj
 0001:00042cf0       __acrt_execute_initializers 0000000180043cf0 f   libucrt:shared_initialization.obj
 0001:00042d70       __acrt_execute_uninitializers 0000000180043d70 f   libucrt:shared_initialization.obj
 0001:00042dac       __acrt_has_user_matherr    0000000180043dac f   libucrt:matherr.obj
 0001:00042dcc       __acrt_initialize_user_matherr 0000000180043dcc f   libucrt:matherr.obj
 0001:00042dd4       __acrt_invoke_user_matherr 0000000180043dd4 f   libucrt:matherr.obj
 0001:00042e04       wcsncpy_s                  0000000180043e04 f   libucrt:wcsncpy_s.obj
 0001:00042f74       _commit                    0000000180043f74 f   libucrt:commit.obj
 0001:00043874       _write                     0000000180044874 f   libucrt:write.obj
 0001:00043960       _write_nolock              0000000180044960 f   libucrt:write.obj
 0001:00043c3c       __acrt_add_locale_ref      0000000180044c3c f   libucrt:locale_refcounting.obj
 0001:00043cc8       __acrt_free_locale         0000000180044cc8 f   libucrt:locale_refcounting.obj
 0001:00043e40       __acrt_locale_add_lc_time_reference 0000000180044e40 f   libucrt:locale_refcounting.obj
 0001:00043e68       __acrt_locale_free_lc_time_if_unreferenced 0000000180044e68 f   libucrt:locale_refcounting.obj
 0001:00043ea0       __acrt_locale_release_lc_time_reference 0000000180044ea0 f   libucrt:locale_refcounting.obj
 0001:00043ec8       __acrt_release_locale_ref  0000000180044ec8 f   libucrt:locale_refcounting.obj
 0001:00043f70       __acrt_update_thread_locale_data 0000000180044f70 f   libucrt:locale_refcounting.obj
 0001:00043fe0       _updatetlocinfoEx_nolock   0000000180044fe0 f   libucrt:locale_refcounting.obj
 0001:00044048       _query_new_mode            0000000180045048 f   libucrt:new_mode.obj
 0001:00044050       ?__mbrtowc_utf8@__crt_mbstring@@YA_KPEA_WPEBD_KPEAU_Mbstatet@@@Z 0000000180045050 f   libucrt:mbrtowc.obj
 0001:0004408c       ?__mbsrtowcs_utf8@__crt_mbstring@@YA_KPEA_WPEAPEBD_KPEAU_Mbstatet@@@Z 000000018004508c f   libucrt:mbrtowc.obj
 0001:00044204       ?__wcsrtombs_utf8@__crt_mbstring@@YA_KPEADPEAPEB_W_KPEAU_Mbstatet@@@Z 0000000180045204 f   libucrt:wcrtomb.obj
 0001:00044408       __acrt_DownlevelLCIDToLocaleName 0000000180045408 f   libucrt:lcidtoname_downlevel.obj
 0001:000444fc       __acrt_DownlevelLocaleNameToLCID 00000001800454fc f   libucrt:lcidtoname_downlevel.obj
 0001:00044530       __acrt_locale_initialize_ctype 0000000180045530 f   libucrt:initctype.obj
 0001:00044b80       __acrt_locale_free_monetary 0000000180045b80 f   libucrt:initmon.obj
 0001:00044c8c       __acrt_locale_initialize_monetary 0000000180045c8c f   libucrt:initmon.obj
 0001:000451c0       __acrt_locale_free_numeric 00000001800461c0 f   libucrt:initnum.obj
 0001:0004522c       __acrt_locale_initialize_numeric 000000018004622c f   libucrt:initnum.obj
 0001:000458ac       __acrt_locale_free_time    00000001800468ac f   libucrt:inittime.obj
 0001:000459b4       __acrt_locale_initialize_time 00000001800469b4 f   libucrt:inittime.obj
 0001:00045a50       wcscspn                    0000000180046a50 f   libucrt:wcscspn.obj
 0001:00045a90       wcspbrk                    0000000180046a90 f   libucrt:wcspbrk.obj
 0001:00045ac4       _wcsicmp                   0000000180046ac4 f   libucrt:wcsicmp.obj
 0001:00045b5c       _wcsicmp_l                 0000000180046b5c f   libucrt:wcsicmp.obj
 0001:00045c5c       __acrt_GetStringTypeA      0000000180046c5c f   libucrt:getstringtypea.obj
 0001:000465a0       __acrt_get_qualified_locale 00000001800475a0 f   libucrt:get_qualified_locale.obj
 0001:00046fd4       __acrt_get_qualified_locale_downlevel 0000000180047fd4 f   libucrt:getqloc_downlevel.obj
 0001:00047254       _wcsnicmp                  0000000180048254 f   libucrt:wcsnicmp.obj
 0001:00047300       _wcsnicmp_l                0000000180048300 f   libucrt:wcsnicmp.obj
 0001:00047428       __ascii_strnicmp           0000000180048428 f   libucrt:strnicmp.obj
 0001:00047484       _strnicmp                  0000000180048484 f   libucrt:strnicmp.obj
 0001:000474d4       _strnicmp_l                00000001800484d4 f   libucrt:strnicmp.obj
 0001:00047bd8       _sopen_nolock              0000000180048bd8 f   libucrt:open.obj
 0001:00047cf0       _sopen_s                   0000000180048cf0 f   libucrt:open.obj
 0001:00047d24       _wsopen_nolock             0000000180048d24 f   libucrt:open.obj
 0001:0004810c       __acrt_lowio_create_handle_array 000000018004910c f   libucrt:osfinfo.obj
 0001:000481b4       __acrt_lowio_destroy_handle_array 00000001800491b4 f   libucrt:osfinfo.obj
 0001:00048204       __acrt_lowio_ensure_fh_exists 0000000180049204 f   libucrt:osfinfo.obj
 0001:000482ac       __acrt_lowio_lock_fh       00000001800492ac f   libucrt:osfinfo.obj
 0001:000482d4       __acrt_lowio_set_os_handle 00000001800492d4 f   libucrt:osfinfo.obj
 0001:00048394       __acrt_lowio_unlock_fh     0000000180049394 f   libucrt:osfinfo.obj
 0001:000483bc       _alloc_osfhnd              00000001800493bc f   libucrt:osfinfo.obj
 0001:000484fc       _free_osfhnd               00000001800494fc f   libucrt:osfinfo.obj
 0001:000485b8       _get_osfhandle             00000001800495b8 f   libucrt:osfinfo.obj
 0001:00048630       __acrt_GetStringTypeW      0000000180049630 f   libucrt:getstringtypew.obj
 0001:00048998       __acrt_CompareStringA      0000000180049998 f   libucrt:comparestringa.obj
 0001:00048d3c       __acrt_LCMapStringA        0000000180049d3c f   libucrt:lcmapstringa.obj
 0001:00048dd4       ?__c32rtomb_utf8@__crt_mbstring@@YA_KPEAD_UPEAU_Mbstatet@@@Z 0000000180049dd4 f   libucrt:c32rtomb.obj
 0001:00048e8c       c32rtomb                   0000000180049e8c f   libucrt:c32rtomb.obj
 0001:00048e94       __acrt_fp_strflt_to_string 0000000180049e94 f   libucrt:_fptostr.obj
 0001:00048f80       ?divide@__crt_strtox@@YA_KAEAUbig_integer@1@AEBU21@@Z 0000000180049f80 f i libucrt:cfout.obj
 0001:000493ac       __acrt_fltout              000000018004a3ac f   libucrt:cfout.obj
 0001:0004a8ac       __acrt_stdio_flush_and_write_narrow_nolock 000000018004b8ac f   libucrt:_flsbuf.obj
 0001:0004a998       __acrt_stdio_flush_and_write_wide_nolock 000000018004b998 f   libucrt:_flsbuf.obj
 0001:0004aa84       _isatty                    000000018004ba84 f   libucrt:isatty.obj
 0001:0004ac70       _lseeki64                  000000018004bc70 f   libucrt:lseek.obj
 0001:0004ac78       _lseeki64_nolock           000000018004bc78 f   libucrt:lseek.obj
 0001:0004ac80       __acrt_stdio_allocate_buffer_nolock 000000018004bc80 f   libucrt:_getbuf.obj
 0001:0004acf0       qsort                      000000018004bcf0 f   libucrt:qsort.obj
 0001:0004b0b0       strncpy_s                  000000018004c0b0 f   libucrt:strncpy_s.obj
 0001:0004b230       strpbrk                    000000018004c230 f   libucrt:strpbrk.obj
 0001:0004b610       _mbsdec                    000000018004c610 f   libucrt:mbsdec.obj
 0001:0004b618       _mbsdec_l                  000000018004c618 f   libucrt:mbsdec.obj
 0001:0004b6c4       __acrt_SetEnvironmentVariableA 000000018004c6c4 f   libucrt:setenvironmentvariablea.obj
 0001:0004b85c       _msize_base                000000018004c85c f   libucrt:msize.obj
 0001:0004b898       _putwch_nolock             000000018004c898 f   libucrt:putwch.obj
 0001:0004b8d4       ?__mbrtoc32_utf8@__crt_mbstring@@YA_KPEA_UPEBD_KPEAU_Mbstatet@@@Z 000000018004c8d4 f   libucrt:mbrtoc32.obj
 0001:0004bab0       ?__c16rtomb_utf8@__crt_mbstring@@YA_KPEAD_SPEAU_Mbstatet@@@Z 000000018004cab0 f   libucrt:c16rtomb.obj
 0001:0004bcd4       __acrt_GetLocaleInfoA      000000018004ccd4 f   libucrt:getlocaleinfoa.obj
 0001:0004be9c       _towlower_l                000000018004ce9c f   libucrt:towlower.obj
 0001:0004bf60       wcscmp                     000000018004cf60 f   libucrt:wcscmp.obj
 0001:0004bf98       _get_fmode                 000000018004cf98 f   libucrt:setmode.obj
 0001:0004bfc8       _setmode_nolock            000000018004cfc8 f   libucrt:setmode.obj
 0001:0004c0a8       _chsize_nolock             000000018004d0a8 f   libucrt:chsize.obj
 0001:0004c214       __strncnt                  000000018004d214 f   libucrt:strncnt.obj
 0001:0004c22c       fegetenv                   000000018004d22c f   libucrt:fegetenv.obj
 0001:0004c24c       fesetenv                   000000018004d24c f   libucrt:fesetenv.obj
 0001:0004c29c       feholdexcept               000000018004d29c f   libucrt:feholdexcept.obj
 0001:0004c2ec       ceil                       000000018004d2ec f   libucrt:ceil.obj
 0001:0004c3b0       log10                      000000018004d3b0 f   libucrt:log10.obj
 0001:0004c95c       __dcrt_lowio_ensure_console_output_initialized 000000018004d95c f   libucrt:initcon.obj
 0001:0004c9b0       __dcrt_terminate_console_output 000000018004d9b0 f   libucrt:initcon.obj
 0001:0004c9cc       __dcrt_write_console       000000018004d9cc f   libucrt:initcon.obj
 0001:0004ca8c       __acrt_LCMapStringW        000000018004da8c f   libucrt:lcmapstringw.obj
 0001:0004cb14       __acrt_fenv_get_control    000000018004db14 f   libucrt:_fenvutils.obj
 0001:0004cc08       __acrt_fenv_get_status     000000018004dc08 f   libucrt:_fenvutils.obj
 0001:0004cc5c       __acrt_fenv_set_control    000000018004dc5c f   libucrt:_fenvutils.obj
 0001:0004cda4       __acrt_fenv_set_status     000000018004dda4 f   libucrt:_fenvutils.obj
 0001:0004ce28       _clearfp                   000000018004de28 f   libucrt:ieee.obj
 0001:0004cfbc       _handle_error              000000018004dfbc f   libucrt:libm_error.obj
 0001:0004d0e4       _handle_nan                000000018004e0e4 f   libucrt:libm_error.obj
 0001:0004d100       __acrt_initialize_fma3     000000018004e100 f   libucrt:fma3_available.obj
 0001:0004d170       _log10_special             000000018004e170 f   libucrt:log_special.obj
 0001:0004d240       _get_fpsr                  000000018004e240 f   libucrt:fpsr.obj
 0001:0004d250       _set_fpsr                  000000018004e250 f   libucrt:fpsr.obj
 0001:0004d25a       _fclrf                     000000018004e25a f   libucrt:fpsr.obj
 0001:0004d26e       _frnd                      000000018004e26e f   libucrt:fpsr.obj
 0001:0004d290       _raise_exc                 000000018004e290 f   libucrt:fpexcept.obj
 0001:0004d2b8       _raise_exc_ex              000000018004e2b8 f   libucrt:fpexcept.obj
 0001:0004d5c8       _set_errno_from_matherr    000000018004e5c8 f   libucrt:fpexcept.obj
 0001:0004d5f8       _clrfp                     000000018004e5f8 f   libucrt:fpctrl.obj
 0001:0004d618       _ctrlfp                    000000018004e618 f   libucrt:fpctrl.obj
 0001:0004d694       _set_statfp                000000018004e694 f   libucrt:fpctrl.obj
 0001:0004d6b4       _statfp                    000000018004e6b4 f   libucrt:fpctrl.obj
 0001:0004d6c5       IsProcessorFeaturePresent  000000018004e6c5 f   kernel32:KERNEL32.dll
 0001:0004d6cc       ?DloadAcquireSectionWriteAccess@@YAXXZ 000000018004e6cc f i DelayImp:delayhlp.obj
 0001:0004d778       ?DloadGetSRWLockFunctionPointers@@YAEXZ 000000018004e778 f i DelayImp:delayhlp.obj
 0001:0004d814       ?DloadMakePermanentImageCommit@@YAXPEAX_K@Z 000000018004e814 f i DelayImp:delayhlp.obj
 0001:0004d8ac       ?DloadObtainSection@@YAPEAXPEAK0@Z 000000018004e8ac f i DelayImp:delayhlp.obj
 0001:0004d948       ?DloadProtectSection@@YAXKPEAK@Z 000000018004e948 f i DelayImp:delayhlp.obj
 0001:0004d9d8       ?DloadReleaseSectionWriteAccess@@YAXXZ 000000018004e9d8 f i DelayImp:delayhlp.obj
 0001:0004da6c       __delayLoadHelper2         000000018004ea6c f   DelayImp:delayhlp.obj
 0001:0004dd30       _FindPESection             000000018004ed30 f   LIBCMT:pesect.obj
 0001:0004dd80       _IsNonwritableInCurrentImage 000000018004ed80 f   LIBCMT:pesect.obj
 0001:0004ddd0       _ValidateImageBase         000000018004edd0 f   LIBCMT:pesect.obj
 0001:0004de00       __GSHandlerCheck           000000018004ee00 f   LIBCMT:gshandler.obj
 0001:0004de20       __GSHandlerCheckCommon     000000018004ee20 f   LIBCMT:gshandler.obj
 0001:0004de7c       __GSHandlerCheck_EH        000000018004ee7c f   LIBCMT:gshandlereh.obj
 0001:0004df10       _alloca_probe              000000018004ef10 f   LIBCMT:chkstk.obj
 0001:0004df10       __chkstk                   000000018004ef10 f   LIBCMT:chkstk.obj
 0001:0004df80       memcmp                     000000018004ef80 f   libvcruntime:memcmp.obj
 0001:0004e048       strrchr                    000000018004f048 f   libvcruntime:strrchr.obj
 0001:0004e194       wcschr                     000000018004f194 f   libvcruntime:wcschr.obj
 0001:0004e240       _guard_dispatch_icall_nop  000000018004f240 f   LIBCMT:guard_dispatch.obj
 0002:00000000       __imp_MultiByteToWideChar  0000000180050000     kernel32:KERNEL32.dll
 0002:00000008       __imp_WideCharToMultiByte  0000000180050008     kernel32:KERNEL32.dll
 0002:00000010       __imp_GetModuleHandleA     0000000180050010     kernel32:KERNEL32.dll
 0002:00000018       __imp_LoadLibraryExA       0000000180050018     kernel32:KERNEL32.dll
 0002:00000020       __imp_VirtualQuery         0000000180050020     kernel32:KERNEL32.dll
 0002:00000028       __imp_VirtualProtect       0000000180050028     kernel32:KERNEL32.dll
 0002:00000030       __imp_GetSystemInfo        0000000180050030     kernel32:KERNEL32.dll
 0002:00000038       __imp_SetEndOfFile         0000000180050038     kernel32:KERNEL32.dll
 0002:00000040       __imp_HeapSize             0000000180050040     kernel32:KERNEL32.dll
 0002:00000048       __imp_RtlCaptureContext    0000000180050048     kernel32:KERNEL32.dll
 0002:00000050       __imp_RtlLookupFunctionEntry 0000000180050050     kernel32:KERNEL32.dll
 0002:00000058       __imp_RtlVirtualUnwind     0000000180050058     kernel32:KERNEL32.dll
 0002:00000060       __imp_UnhandledExceptionFilter 0000000180050060     kernel32:KERNEL32.dll
 0002:00000068       __imp_SetUnhandledExceptionFilter 0000000180050068     kernel32:KERNEL32.dll
 0002:00000070       __imp_GetCurrentProcess    0000000180050070     kernel32:KERNEL32.dll
 0002:00000078       __imp_TerminateProcess     0000000180050078     kernel32:KERNEL32.dll
 0002:00000080       __imp_IsProcessorFeaturePresent 0000000180050080     kernel32:KERNEL32.dll
 0002:00000088       __imp_QueryPerformanceCounter 0000000180050088     kernel32:KERNEL32.dll
 0002:00000090       __imp_GetCurrentProcessId  0000000180050090     kernel32:KERNEL32.dll
 0002:00000098       __imp_GetCurrentThreadId   0000000180050098     kernel32:KERNEL32.dll
 0002:000000a0       __imp_GetSystemTimeAsFileTime 00000001800500a0     kernel32:KERNEL32.dll
 0002:000000a8       __imp_InitializeSListHead  00000001800500a8     kernel32:KERNEL32.dll
 0002:000000b0       __imp_IsDebuggerPresent    00000001800500b0     kernel32:KERNEL32.dll
 0002:000000b8       __imp_GetStartupInfoW      00000001800500b8     kernel32:KERNEL32.dll
 0002:000000c0       __imp_GetModuleHandleW     00000001800500c0     kernel32:KERNEL32.dll
 0002:000000c8       __imp_RtlPcToFileHeader    00000001800500c8     kernel32:KERNEL32.dll
 0002:000000d0       __imp_RaiseException       00000001800500d0     kernel32:KERNEL32.dll
 0002:000000d8       __imp_RtlUnwindEx          00000001800500d8     kernel32:KERNEL32.dll
 0002:000000e0       __imp_InterlockedFlushSList 00000001800500e0     kernel32:KERNEL32.dll
 0002:000000e8       __imp_GetLastError         00000001800500e8     kernel32:KERNEL32.dll
 0002:000000f0       __imp_SetLastError         00000001800500f0     kernel32:KERNEL32.dll
 0002:000000f8       __imp_EnterCriticalSection 00000001800500f8     kernel32:KERNEL32.dll
 0002:00000100       __imp_LeaveCriticalSection 0000000180050100     kernel32:KERNEL32.dll
 0002:00000108       __imp_DeleteCriticalSection 0000000180050108     kernel32:KERNEL32.dll
 0002:00000110       __imp_InitializeCriticalSectionAndSpinCount 0000000180050110     kernel32:KERNEL32.dll
 0002:00000118       __imp_TlsAlloc             0000000180050118     kernel32:KERNEL32.dll
 0002:00000120       __imp_TlsGetValue          0000000180050120     kernel32:KERNEL32.dll
 0002:00000128       __imp_TlsSetValue          0000000180050128     kernel32:KERNEL32.dll
 0002:00000130       __imp_TlsFree              0000000180050130     kernel32:KERNEL32.dll
 0002:00000138       __imp_FreeLibrary          0000000180050138     kernel32:KERNEL32.dll
 0002:00000140       __imp_GetProcAddress       0000000180050140     kernel32:KERNEL32.dll
 0002:00000148       __imp_LoadLibraryExW       0000000180050148     kernel32:KERNEL32.dll
 0002:00000150       __imp_EncodePointer        0000000180050150     kernel32:KERNEL32.dll
 0002:00000158       __imp_GetStdHandle         0000000180050158     kernel32:KERNEL32.dll
 0002:00000160       __imp_GetFileType          0000000180050160     kernel32:KERNEL32.dll
 0002:00000168       __imp_GetModuleFileNameW   0000000180050168     kernel32:KERNEL32.dll
 0002:00000170       __imp_GetModuleHandleExW   0000000180050170     kernel32:KERNEL32.dll
 0002:00000178       __imp_WriteConsoleW        0000000180050178     kernel32:KERNEL32.dll
 0002:00000180       __imp_QueryPerformanceFrequency 0000000180050180     kernel32:KERNEL32.dll
 0002:00000188       __imp_ExitProcess          0000000180050188     kernel32:KERNEL32.dll
 0002:00000190       __imp_HeapFree             0000000180050190     kernel32:KERNEL32.dll
 0002:00000198       __imp_WriteFile            0000000180050198     kernel32:KERNEL32.dll
 0002:000001a0       __imp_OutputDebugStringW   00000001800501a0     kernel32:KERNEL32.dll
 0002:000001a8       __imp_HeapAlloc            00000001800501a8     kernel32:KERNEL32.dll
 0002:000001b0       __imp_CompareStringW       00000001800501b0     kernel32:KERNEL32.dll
 0002:000001b8       __imp_LCMapStringW         00000001800501b8     kernel32:KERNEL32.dll
 0002:000001c0       __imp_GetLocaleInfoW       00000001800501c0     kernel32:KERNEL32.dll
 0002:000001c8       __imp_IsValidLocale        00000001800501c8     kernel32:KERNEL32.dll
 0002:000001d0       __imp_GetUserDefaultLCID   00000001800501d0     kernel32:KERNEL32.dll
 0002:000001d8       __imp_EnumSystemLocalesW   00000001800501d8     kernel32:KERNEL32.dll
 0002:000001e0       __imp_CloseHandle          00000001800501e0     kernel32:KERNEL32.dll
 0002:000001e8       __imp_HeapReAlloc          00000001800501e8     kernel32:KERNEL32.dll
 0002:000001f0       __imp_ReadFile             00000001800501f0     kernel32:KERNEL32.dll
 0002:000001f8       __imp_GetConsoleMode       00000001800501f8     kernel32:KERNEL32.dll
 0002:00000200       __imp_ReadConsoleW         0000000180050200     kernel32:KERNEL32.dll
 0002:00000208       __imp_FindClose            0000000180050208     kernel32:KERNEL32.dll
 0002:00000210       __imp_FindFirstFileExW     0000000180050210     kernel32:KERNEL32.dll
 0002:00000218       __imp_FindNextFileW        0000000180050218     kernel32:KERNEL32.dll
 0002:00000220       __imp_IsValidCodePage      0000000180050220     kernel32:KERNEL32.dll
 0002:00000228       __imp_GetACP               0000000180050228     kernel32:KERNEL32.dll
 0002:00000230       __imp_GetOEMCP             0000000180050230     kernel32:KERNEL32.dll
 0002:00000238       __imp_GetCPInfo            0000000180050238     kernel32:KERNEL32.dll
 0002:00000240       __imp_GetCommandLineA      0000000180050240     kernel32:KERNEL32.dll
 0002:00000248       __imp_GetCommandLineW      0000000180050248     kernel32:KERNEL32.dll
 0002:00000250       __imp_GetEnvironmentStringsW 0000000180050250     kernel32:KERNEL32.dll
 0002:00000258       __imp_FreeEnvironmentStringsW 0000000180050258     kernel32:KERNEL32.dll
 0002:00000260       __imp_SetEnvironmentVariableW 0000000180050260     kernel32:KERNEL32.dll
 0002:00000268       __imp_GetProcessHeap       0000000180050268     kernel32:KERNEL32.dll
 0002:00000270       __imp_FlushFileBuffers     0000000180050270     kernel32:KERNEL32.dll
 0002:00000278       __imp_GetConsoleCP         0000000180050278     kernel32:KERNEL32.dll
 0002:00000280       __imp_GetStringTypeW       0000000180050280     kernel32:KERNEL32.dll
 0002:00000288       __imp_CreateFileW          0000000180050288     kernel32:KERNEL32.dll
 0002:00000290       __imp_SetStdHandle         0000000180050290     kernel32:KERNEL32.dll
 0002:00000298       __imp_GetFileSizeEx        0000000180050298     kernel32:KERNEL32.dll
 0002:000002a0       __imp_SetFilePointerEx     00000001800502a0     kernel32:KERNEL32.dll
 0002:000002a8       \177KERNEL32_NULL_THUNK_DATA 00000001800502a8     kernel32:KERNEL32.dll
 0002:000002b0       __imp_CoCreateInstance     00000001800502b0     ole32:ole32.dll
 0002:000002b8       __imp_CoUninitialize       00000001800502b8     ole32:ole32.dll
 0002:000002c0       __imp_CoTaskMemFree        00000001800502c0     ole32:ole32.dll
 0002:000002c8       __imp_CoInitializeEx       00000001800502c8     ole32:ole32.dll
 0002:000002d0       \177ole32_NULL_THUNK_DATA  00000001800502d0     ole32:ole32.dll
 0002:000002d8       __guard_check_icall_fptr   00000001800502d8     LIBCMT:guard_support.obj
 0002:000002e0       __guard_dispatch_icall_fptr 00000001800502e0     LIBCMT:guard_support.obj
 0002:000002e8       __xc_a                     00000001800502e8     LIBCMT:initializers.obj
 0002:000002f0       _register_spellchecker_    00000001800502f0     main.obj
 0002:000002f8       __xc_z                     00000001800502f8     LIBCMT:initializers.obj
 0002:00000300       __xi_a                     0000000180050300     LIBCMT:initializers.obj
 0002:00000308       __acrt_stdio_initializer   0000000180050308     libucrt:stdio_initializer.obj
 0002:00000310       __acrt_clock_initializer   0000000180050310     libucrt:clock_initializer.obj
 0002:00000318       __acrt_multibyte_initializer 0000000180050318     libucrt:multibyte_initializer.obj
 0002:00000320       __acrt_tran_fma3_initializer 0000000180050320     libucrt:fma3_initializer.obj
 0002:00000328       __xi_z                     0000000180050328     LIBCMT:initializers.obj
 0002:00000330       __xp_a                     0000000180050330     LIBCMT:initializers.obj
 0002:00000338       __acrt_locale_terminator   0000000180050338     libucrt:locale_initializer.obj
 0002:00000340       __dcrt_console_output_terminator 0000000180050340     libucrt:console_output_initializer.obj
 0002:00000348       __acrt_stdio_terminator    0000000180050348     libucrt:stdio_initializer.obj
 0002:00000350       __xp_z                     0000000180050350     LIBCMT:initializers.obj
 0002:00000358       __xt_a                     0000000180050358     LIBCMT:initializers.obj
 0002:00000360       __xt_z                     0000000180050360     LIBCMT:initializers.obj
 0002:00000370       IID_IGlobalInterfaceTable  0000000180050370     uuid:objidl_i.obj
 0002:00000380       CLSID_StdGlobalInterfaceTable 0000000180050380     uuid:cguid_i.obj
 0002:00000390       IID_IUnknown               0000000180050390     uuid:unknwn_i.obj
 0002:000003a0       __sz_node_exe              00000001800503a0     node:node.exe
 0002:000003b8       ??_7exception@std@@6B@     00000001800503b8     libcpmt:xthrow.obj
 0002:000003c8       ??_C@_0BC@EOODALEL@Unknown?5exception@ 00000001800503c8     libcpmt:xthrow.obj
 0002:000003e8       ??_7bad_alloc@std@@6B@     00000001800503e8     libcpmt:xthrow.obj
 0002:000003f8       ??_C@_0P@GHFPNOJB@bad?5allocation@ 00000001800503f8     libcpmt:xthrow.obj
 0002:00000410       ??_7logic_error@std@@6B@   0000000180050410     libcpmt:xthrow.obj
 0002:00000428       ??_7length_error@std@@6B@  0000000180050428     libcpmt:xthrow.obj
 0002:00000438       _pDefaultRawDllMain        0000000180050438     LIBCMT:dll_dllmain.obj
 0002:00000438       _pRawDllMain               0000000180050438     LIBCMT:dll_dllmain.obj
 0002:00000458       ??_7type_info@@6B@         0000000180050458     LIBCMT:std_type_info_static.obj
 0002:00000468       ??_7bad_array_new_length@std@@6B@ 0000000180050468     LIBCMT:throw_bad_alloc.obj
 0002:00000478       ??_C@_0BF@KINCDENJ@bad?5array?5new?5length@ 0000000180050478     LIBCMT:throw_bad_alloc.obj
 0002:000004d0       _pDestructExceptionObject  00000001800504d0     libvcruntime:ehhelpers.obj
 0002:00000818       ??_C@_08EHJDFFNH@__based?$CI@ 0000000180050818     libvcruntime:undname.obj
 0002:00000828       ??_C@_07KOLFKCDI@__cdecl@  0000000180050828     libvcruntime:undname.obj
 0002:00000830       ??_C@_08GHMPAG@__pascal@   0000000180050830     libvcruntime:undname.obj
 0002:00000840       ??_C@_09IFJBGAPI@__stdcall@ 0000000180050840     libvcruntime:undname.obj
 0002:00000850       ??_C@_0L@NPHFGOKO@__thiscall@ 0000000180050850     libvcruntime:undname.obj
 0002:00000860       ??_C@_0L@JMKHOMEK@__fastcall@ 0000000180050860     libvcruntime:undname.obj
 0002:00000870       ??_C@_0N@BCKKPABJ@__vectorcall@ 0000000180050870     libvcruntime:undname.obj
 0002:00000880       ??_C@_09HIJEGCPM@__clrcall@ 0000000180050880     libvcruntime:undname.obj
 0002:0000088c       ??_C@_06GHPCKEAG@__eabi@   000000018005088c     libvcruntime:undname.obj
 0002:00000898       ??_C@_09IOPIDJLG@__swift_1@ 0000000180050898     libvcruntime:undname.obj
 0002:000008a8       ??_C@_09KFNFGKHF@__swift_2@ 00000001800508a8     libvcruntime:undname.obj
 0002:000008b8       ??_C@_07JOMMBBKO@__ptr64@  00000001800508b8     libvcruntime:undname.obj
 0002:000008c0       ??_C@_0L@PILCLIHE@__restrict@ 00000001800508c0     libvcruntime:undname.obj
 0002:000008d0       ??_C@_0M@GFIIJFMG@__unaligned@ 00000001800508d0     libvcruntime:undname.obj
 0002:000008e0       ??_C@_09DHDLOLLB@restrict?$CI@ 00000001800508e0     libvcruntime:undname.obj
 0002:000008ec       ??_C@_04NIHEBCM@?5new@     00000001800508ec     libvcruntime:undname.obj
 0002:000008f8       ??_C@_07FPCDHGMM@?5delete@ 00000001800508f8     libvcruntime:undname.obj
 0002:00000900       ??_C@_01NEMOKFLO@?$DN@     0000000180050900     libvcruntime:undname.obj
 0002:00000904       ??_C@_02GPIOPFAK@?$DO?$DO@ 0000000180050904     libvcruntime:undname.obj
 0002:00000908       ??_C@_02FODMEDOG@?$DM?$DM@ 0000000180050908     libvcruntime:undname.obj
 0002:0000090c       ??_C@_01DCLJPIOD@?$CB@     000000018005090c     libvcruntime:undname.obj
 0002:00000910       ??_C@_02EGOFBIJA@?$DN?$DN@ 0000000180050910     libvcruntime:undname.obj
 0002:00000914       ??_C@_02FDNJECIE@?$CB?$DN@ 0000000180050914     libvcruntime:undname.obj
 0002:00000918       ??_C@_02GPECMEKF@?$FL?$FN@ 0000000180050918     libvcruntime:undname.obj
 0002:00000920       ??_C@_08LHJFAFGD@operator@ 0000000180050920     libvcruntime:undname.obj
 0002:0000092c       ??_C@_02HBOOOICD@?9?$DO@   000000018005092c     libvcruntime:undname.obj
 0002:00000930       ??_C@_01NBENCBCI@?$CK@     0000000180050930     libvcruntime:undname.obj
 0002:00000934       ??_C@_02ECNGHCIF@?$CL?$CL@ 0000000180050934     libvcruntime:undname.obj
 0002:00000938       ??_C@_02BAABKJLB@?9?9@     0000000180050938     libvcruntime:undname.obj
 0002:0000093c       ??_C@_03MNHNFDLC@?9?$DO?$CK@ 000000018005093c     libvcruntime:undname.obj
 0002:00000940       ??_C@_01FGNFDNOH@?$CF@     0000000180050940     libvcruntime:undname.obj
 0002:00000944       ??_C@_02EHCHHCKH@?$DM?$DN@ 0000000180050944     libvcruntime:undname.obj
 0002:00000948       ??_C@_01PPODPGHN@?$DO@     0000000180050948     libvcruntime:undname.obj
 0002:0000094c       ??_C@_02EEKDKGMJ@?$DO?$DN@ 000000018005094c     libvcruntime:undname.obj
 0002:00000950       ??_C@_01IHBHIGKO@?0@       0000000180050950     libvcruntime:undname.obj
 0002:00000954       ??_C@_02HCKGKOFO@?$CI?$CJ@ 0000000180050954     libvcruntime:undname.obj
 0002:00000958       ??_C@_01PJKLJHI@?$HO@      0000000180050958     libvcruntime:undname.obj
 0002:0000095c       ??_C@_01JKBOJNNK@?$FO@     000000018005095c     libvcruntime:undname.obj
 0002:00000960       ??_C@_01DNKMNLPK@?$HM@     0000000180050960     libvcruntime:undname.obj
 0002:00000964       ??_C@_02PPKAJPJL@?$CG?$CG@ 0000000180050964     libvcruntime:undname.obj
 0002:00000968       ??_C@_02NONPIBCD@?$HM?$HM@ 0000000180050968     libvcruntime:undname.obj
 0002:0000096c       ??_C@_02FPIMKNGF@?$CK?$DN@ 000000018005096c     libvcruntime:undname.obj
 0002:00000970       ??_C@_02FOEOMHFC@?$CL?$DN@ 0000000180050970     libvcruntime:undname.obj
 0002:00000974       ??_C@_02FKMDLLOA@?9?$DN@   0000000180050974     libvcruntime:undname.obj
 0002:00000978       ??_C@_02FJEHGPIO@?1?$DN@   0000000180050978     libvcruntime:undname.obj
 0002:0000097c       ??_C@_02FENAOKFI@?$CF?$DN@ 000000018005097c     libvcruntime:undname.obj
 0002:00000980       ??_C@_03IKFCCPFF@?$DO?$DO?$DN@ 0000000180050980     libvcruntime:undname.obj
 0002:00000984       ??_C@_03CDNPDDLA@?$DM?$DM?$DN@ 0000000180050984     libvcruntime:undname.obj
 0002:00000988       ??_C@_02FGJGFEAB@?$CG?$DN@ 0000000180050988     libvcruntime:undname.obj
 0002:0000098c       ??_C@_02DHLNPPGH@?$HM?$DN@ 000000018005098c     libvcruntime:undname.obj
 0002:00000990       ??_C@_02MHEGNOJ@?$FO?$DN@  0000000180050990     libvcruntime:undname.obj
 0002:00000998       ??_C@_09IFPLHPGF@?$GAvftable?8@ 0000000180050998     libvcruntime:undname.obj
 0002:000009a8       ??_C@_09BLBHBJP@?$GAvbtable?8@ 00000001800509a8     libvcruntime:undname.obj
 0002:000009b8       ??_C@_07FEEIOKP@?$GAvcall?8@ 00000001800509b8     libvcruntime:undname.obj
 0002:000009c0       ??_C@_08LLFFHHDJ@?$GAtypeof?8@ 00000001800509c0     libvcruntime:undname.obj
 0002:000009d0       ??_C@_0BF@KDPPACIK@?$GAlocal?5static?5guard?8@ 00000001800509d0     libvcruntime:undname.obj
 0002:000009e8       ??_C@_08OBABFOLI@?$GAstring?8@ 00000001800509e8     libvcruntime:undname.obj
 0002:000009f8       ??_C@_0BD@JDLKDPAB@?$GAvbase?5destructor?8@ 00000001800509f8     libvcruntime:undname.obj
 0002:00000a10       ??_C@_0BN@DEGPLNFK@?$GAvector?5deleting?5destructor?8@ 0000000180050a10     libvcruntime:undname.obj
 0002:00000a30       ??_C@_0BO@OBMKPJIG@?$GAdefault?5constructor?5closure?8@ 0000000180050a30     libvcruntime:undname.obj
 0002:00000a50       ??_C@_0BN@IMDCHIKM@?$GAscalar?5deleting?5destructor?8@ 0000000180050a50     libvcruntime:undname.obj
 0002:00000a70       ??_C@_0BO@PFGOCPJJ@?$GAvector?5constructor?5iterator?8@ 0000000180050a70     libvcruntime:undname.obj
 0002:00000a90       ??_C@_0BN@LFPFMEDL@?$GAvector?5destructor?5iterator?8@ 0000000180050a90     libvcruntime:undname.obj
 0002:00000ab0       ??_C@_0CE@IKBNEHA@?$GAvector?5vbase?5constructor?5itera@ 0000000180050ab0     libvcruntime:undname.obj
 0002:00000ad8       ??_C@_0BL@NILFHHPC@?$GAvirtual?5displacement?5map?8@ 0000000180050ad8     libvcruntime:undname.obj
 0002:00000af8       ??_C@_0CB@JONCMFFK@?$GAeh?5vector?5constructor?5iterator@ 0000000180050af8     libvcruntime:undname.obj
 0002:00000b20       ??_C@_0CA@GCEOPDGL@?$GAeh?5vector?5destructor?5iterator?8@ 0000000180050b20     libvcruntime:undname.obj
 0002:00000b40       ??_C@_0CH@OOJPLCPH@?$GAeh?5vector?5vbase?5constructor?5it@ 0000000180050b40     libvcruntime:undname.obj
 0002:00000b68       ??_C@_0BL@LLKPOHJI@?$GAcopy?5constructor?5closure?8@ 0000000180050b68     libvcruntime:undname.obj
 0002:00000b88       ??_C@_0BA@KBCDOMBN@?$GAudt?5returning?8@ 0000000180050b88     libvcruntime:undname.obj
 0002:00000b98       ??_C@_03KLGMFNMG@?$GAEH@   0000000180050b98     libvcruntime:undname.obj
 0002:00000b9c       ??_C@_05KHLCHHI@?$GARTTI@  0000000180050b9c     libvcruntime:undname.obj
 0002:00000ba8       ??_C@_0BA@KKLDJDLB@?$GAlocal?5vftable?8@ 0000000180050ba8     libvcruntime:undname.obj
 0002:00000bb8       ??_C@_0CE@IIHCMGGL@?$GAlocal?5vftable?5constructor?5clos@ 0000000180050bb8     libvcruntime:undname.obj
 0002:00000bdc       ??_C@_06FHBGPFGH@?5new?$FL?$FN@ 0000000180050bdc     libvcruntime:undname.obj
 0002:00000be8       ??_C@_09LBNFPBCA@?5delete?$FL?$FN@ 0000000180050be8     libvcruntime:undname.obj
 0002:00000bf8       ??_C@_0P@HJKNJFNN@?$GAomni?5callsig?8@ 0000000180050bf8     libvcruntime:undname.obj
 0002:00000c08       ??_C@_0BL@CNOONJFP@?$GAplacement?5delete?5closure?8@ 0000000180050c08     libvcruntime:undname.obj
 0002:00000c28       ??_C@_0BN@CKNJLHMB@?$GAplacement?5delete?$FL?$FN?5closure?8@ 0000000180050c28     libvcruntime:undname.obj
 0002:00000c48       ??_C@_0CG@CFDHKGGD@?$GAmanaged?5vector?5constructor?5ite@ 0000000180050c48     libvcruntime:undname.obj
 0002:00000c70       ??_C@_0CF@IMGKMJNO@?$GAmanaged?5vector?5destructor?5iter@ 0000000180050c70     libvcruntime:undname.obj
 0002:00000c98       ??_C@_0CG@HLDDJMAG@?$GAeh?5vector?5copy?5constructor?5ite@ 0000000180050c98     libvcruntime:undname.obj
 0002:00000cc0       ??_C@_0CM@FCBBDIGB@?$GAeh?5vector?5vbase?5copy?5construct@ 0000000180050cc0     libvcruntime:undname.obj
 0002:00000cf0       ??_C@_0BL@CLIPGLGB@?$GAdynamic?5initializer?5for?5?8@ 0000000180050cf0     libvcruntime:undname.obj
 0002:00000d10       ??_C@_0CB@PDBIFEP@?$GAdynamic?5atexit?5destructor?5for?5@ 0000000180050d10     libvcruntime:undname.obj
 0002:00000d38       ??_C@_0CD@CGAJBKEJ@?$GAvector?5copy?5constructor?5iterat@ 0000000180050d38     libvcruntime:undname.obj
 0002:00000d60       ??_C@_0CJ@GJELGAMM@?$GAvector?5vbase?5copy?5constructor?5@ 0000000180050d60     libvcruntime:undname.obj
 0002:00000d90       ??_C@_0CL@FGIJHLCE@?$GAmanaged?5vector?5copy?5constructo@ 0000000180050d90     libvcruntime:undname.obj
 0002:00000dc0       ??_C@_0BM@PMGGMLDN@?$GAlocal?5static?5thread?5guard?8@ 0000000180050dc0     libvcruntime:undname.obj
 0002:00000de0       ??_C@_0N@BDNMDMOL@operator?5?$CC?$CC?5@ 0000000180050de0     libvcruntime:undname.obj
 0002:00000df0       ??_C@_0BC@GGEBGALA@operator?5co_await@ 0000000180050df0     libvcruntime:undname.obj
 0002:00000e08       ??_C@_0BC@DAFEJGAK@?5Type?5Descriptor?8@ 0000000180050e08     libvcruntime:undname.obj
 0002:00000e20       ??_C@_0BM@LDKODKLH@?5Base?5Class?5Descriptor?5at?5?$CI@ 0000000180050e20     libvcruntime:undname.obj
 0002:00000e40       ??_C@_0BD@LGICGFMM@?5Base?5Class?5Array?8@ 0000000180050e40     libvcruntime:undname.obj
 0002:00000e58       ??_C@_0BN@MECKDCOJ@?5Class?5Hierarchy?5Descriptor?8@ 0000000180050e58     libvcruntime:undname.obj
 0002:00000e78       ??_C@_0BK@CFCOFLF@?5Complete?5Object?5Locator?8@ 0000000180050e78     libvcruntime:undname.obj
 0002:00000eb0       ??_C@_1DM@KHCHBNEB@?$AAa?$AAp?$AAi?$AA?9?$AAm?$AAs?$AA?9?$AAw?$AAi?$AAn?$AA?9?$AAc?$AAo?$AAr?$AAe@ 0000000180050eb0     libvcruntime:winapi_downlevel.obj
 0002:00000ef0       ??_C@_1DK@LPPGFMPP@?$AAa?$AAp?$AAi?$AA?9?$AAm?$AAs?$AA?9?$AAw?$AAi?$AAn?$AA?9?$AAc?$AAo?$AAr?$AAe@ 0000000180050ef0     libvcruntime:winapi_downlevel.obj
 0002:00000f30       ??_C@_1BC@GDMECMAK@?$AAk?$AAe?$AAr?$AAn?$AAe?$AAl?$AA3?$AA2@ 0000000180050f30     libvcruntime:winapi_downlevel.obj
 0002:00000f48       ??_C@_1BA@PFFKHIOG@?$AAa?$AAp?$AAi?$AA?9?$AAm?$AAs?$AA?9@ 0000000180050f48     libvcruntime:winapi_downlevel.obj
 0002:00000f58       ??_C@_1BA@IAIFMGEF@?$AAe?$AAx?$AAt?$AA?9?$AAm?$AAs?$AA?9@ 0000000180050f58     libvcruntime:winapi_downlevel.obj
 0002:00000f70       ??_C@_08KNHFBNJ@FlsAlloc@  0000000180050f70     libvcruntime:winapi_downlevel.obj
 0002:00000f88       ??_C@_07PEJMOBNF@FlsFree@  0000000180050f88     libvcruntime:winapi_downlevel.obj
 0002:00000f98       ??_C@_0M@GDNOONDI@FlsGetValue@ 0000000180050f98     libvcruntime:winapi_downlevel.obj
 0002:00000fb0       ??_C@_0M@JCPCPOEF@FlsSetValue@ 0000000180050fb0     libvcruntime:winapi_downlevel.obj
 0002:00000fc8       ??_C@_0BM@HCFOFFN@InitializeCriticalSectionEx@ 0000000180050fc8     libvcruntime:winapi_downlevel.obj
 0002:00001090       ??_7bad_exception@std@@6B@ 0000000180051090     libvcruntime:frame.obj
 0002:000010a0       ??_C@_0O@DPKOEFFH@bad?5exception@ 00000001800510a0     libvcruntime:frame.obj
 0002:000010b0       ??_C@_1FE@LHBLIKM@?$AAA?$AAs?$AAs?$AAe?$AAr?$AAt?$AAi?$AAo?$AAn?$AA?5?$AAf?$AAa?$AAi?$AAl?$AAe?$AAd?$AA?3?$AA?5?$AA?$CF?$AAT?$AAs?$AA?0?$AA?5?$AAf?$AAi?$AAl?$AAe?$AA?5?$AA?$CF?$AAT?$AAs?$AA?0@ 00000001800510b0     libucrt:assert.obj
 0002:00001110       ??_C@_1EK@MBDPDCGA@?$AAM?$AAi?$AAc?$AAr?$AAo?$AAs?$AAo?$AAf?$AAt?$AA?5?$AAV?$AAi?$AAs?$AAu?$AAa?$AAl?$AA?5?$AAC?$AA?$CL?$AA?$CL?$AA?5?$AAR?$AAu?$AAn?$AAt?$AAi?$AAm?$AAe?$AA?5?$AAL?$AAi?$AAb@ 0000000180051110     libucrt:assert.obj
 0002:00001160       ??_C@_1CE@OJBNHDMO@?$AAA?$AAs?$AAs?$AAe?$AAr?$AAt?$AAi?$AAo?$AAn?$AA?5?$AAf?$AAa?$AAi?$AAl?$AAe?$AAd?$AA?$CB?$AA?$AA@ 0000000180051160     libucrt:assert.obj
 0002:00001188       ??_C@_1BE@PHKBBGE@?$AAP?$AAr?$AAo?$AAg?$AAr?$AAa?$AAm?$AA?3?$AA?5?$AA?$AA@ 0000000180051188     libucrt:assert.obj
 0002:000011a0       ??_C@_1O@HEMHKNDC@?$AAF?$AAi?$AAl?$AAe?$AA?3?$AA?5?$AA?$AA@ 00000001800511a0     libucrt:assert.obj
 0002:000011b0       ??_C@_1O@KCAFKHJE@?$AAL?$AAi?$AAn?$AAe?$AA?3?$AA?5?$AA?$AA@ 00000001800511b0     libucrt:assert.obj
 0002:000011c0       ??_C@_1BK@PEDCIPMA@?$AAE?$AAx?$AAp?$AAr?$AAe?$AAs?$AAs?$AAi?$AAo?$AAn?$AA?3?$AA?5?$AA?$AA@ 00000001800511c0     libucrt:assert.obj
 0002:000011e0       ??_C@_1OA@EGMLFBHJ@?$AAF?$AAo?$AAr?$AA?5?$AAi?$AAn?$AAf?$AAo?$AAr?$AAm?$AAa?$AAt?$AAi?$AAo?$AAn?$AA?5?$AAo?$AAn?$AA?5?$AAh?$AAo?$AAw?$AA?5?$AAy?$AAo?$AAu?$AAr?$AA?5?$AAp?$AAr?$AAo?$AAg@ 00000001800511e0     libucrt:assert.obj
 0002:000012c0       ??_C@_1HK@POCJMFGK@?$AA?$CI?$AAP?$AAr?$AAe?$AAs?$AAs?$AA?5?$AAR?$AAe?$AAt?$AAr?$AAy?$AA?5?$AAt?$AAo?$AA?5?$AAd?$AAe?$AAb?$AAu?$AAg?$AA?5?$AAt?$AAh?$AAe?$AA?5?$AAa?$AAp?$AAp?$AAl?$AAi?$AAc@ 00000001800512c0     libucrt:assert.obj
 0002:00001340       ??_C@_17LGKOMLJ@?$AA?4?$AA?4?$AA?4?$AA?$AA@ 0000000180051340     libucrt:assert.obj
 0002:00001348       ??_C@_13LBAGMAIH@?$AA?6?$AA?$AA@ 0000000180051348     libucrt:assert.obj
 0002:0000134c       ??_C@_15IABLJNFO@?$AA?6?$AA?6?$AA?$AA@ 000000018005134c     libucrt:assert.obj
 0002:00001358       ??_C@_1CO@EAEJAADC@?$AA?$DM?$AAp?$AAr?$AAo?$AAg?$AAr?$AAa?$AAm?$AA?5?$AAn?$AAa?$AAm?$AAe?$AA?5?$AAu?$AAn?$AAk?$AAn?$AAo?$AAw?$AAn?$AA?$DO?$AA?$AA@ 0000000180051358     libucrt:assert.obj
 0002:00001390       standard_lookup_table      0000000180051390     libucrt:output.obj
 0002:000013f0       ??_C@_1O@CEDCILHN@?$AA?$CI?$AAn?$AAu?$AAl?$AAl?$AA?$CJ?$AA?$AA@ 00000001800513f0     libucrt:output.obj
 0002:00001400       ??_C@_06OJHGLDPL@?$CInull?$CJ?$AA@ 0000000180051400     libucrt:output.obj
 0002:00001410       __acrt_exception_action_table 0000000180051410     libucrt:exception_filter.obj
 0002:000014d0       __acrt_signal_action_table_count 00000001800514d0     libucrt:exception_filter.obj
 0002:000014d8       __acrt_signal_action_first_fpe_index 00000001800514d8     libucrt:exception_filter.obj
 0002:000014e0       __acrt_signal_action_fpe_count 00000001800514e0     libucrt:exception_filter.obj
 0002:000014e8       ??_C@_1BI@BGOHAHKC@?$AAm?$AAs?$AAc?$AAo?$AAr?$AAe?$AAe?$AA?4?$AAd?$AAl?$AAl?$AA?$AA@ 00000001800514e8     libucrt:exit.obj
 0002:00001500       ??_C@_0P@MIGLKIOC@CorExitProcess?$AA@ 0000000180051500     libucrt:exit.obj
 0002:00001840       ??_C@_1EA@JGEFHKEI@?$AAa?$AAp?$AAi?$AA?9?$AAm?$AAs?$AA?9?$AAw?$AAi?$AAn?$AA?9?$AAc?$AAo?$AAr?$AAe?$AA?9?$AAd?$AAa?$AAt?$AAe?$AAt?$AAi?$AAm?$AAe?$AA?9?$AAl?$AA1?$AA?9?$AA1?$AA?9?$AA1?$AA?$AA@ 0000000180051840     libucrt:winapi_thunks.obj
 0002:00001880       ??_C@_1DM@KHCHBNEB@?$AAa?$AAp?$AAi?$AA?9?$AAm?$AAs?$AA?9?$AAw?$AAi?$AAn?$AA?9?$AAc?$AAo?$AAr?$AAe?$AA?9?$AAf?$AAi?$AAb?$AAe?$AAr?$AAs?$AA?9?$AAl?$AA1?$AA?9?$AA1?$AA?9?$AA1?$AA?$AA@ 0000000180051880     libucrt:winapi_thunks.obj
 0002:000018c0       ??_C@_1DI@IJCEHOCB@?$AAa?$AAp?$AAi?$AA?9?$AAm?$AAs?$AA?9?$AAw?$AAi?$AAn?$AA?9?$AAc?$AAo?$AAr?$AAe?$AA?9?$AAf?$AAi?$AAl?$AAe?$AA?9?$AAl?$AA1?$AA?9?$AA2?$AA?9?$AA2?$AA?$AA@ 00000001800518c0     libucrt:winapi_thunks.obj
 0002:00001900       ??_C@_1EI@MPIAOHOC@?$AAa?$AAp?$AAi?$AA?9?$AAm?$AAs?$AA?9?$AAw?$AAi?$AAn?$AA?9?$AAc?$AAo?$AAr?$AAe?$AA?9?$AAl?$AAo?$AAc?$AAa?$AAl?$AAi?$AAz?$AAa?$AAt?$AAi?$AAo?$AAn?$AA?9?$AAl?$AA1?$AA?9@ 0000000180051900     libucrt:winapi_thunks.obj
 0002:00001950       ??_C@_1FK@FPHCKFIE@?$AAa?$AAp?$AAi?$AA?9?$AAm?$AAs?$AA?9?$AAw?$AAi?$AAn?$AA?9?$AAc?$AAo?$AAr?$AAe?$AA?9?$AAl?$AAo?$AAc?$AAa?$AAl?$AAi?$AAz?$AAa?$AAt?$AAi?$AAo?$AAn?$AA?9?$AAo?$AAb?$AAs@ 0000000180051950     libucrt:winapi_thunks.obj
 0002:000019b0       ??_C@_1EM@DILCGIIO@?$AAa?$AAp?$AAi?$AA?9?$AAm?$AAs?$AA?9?$AAw?$AAi?$AAn?$AA?9?$AAc?$AAo?$AAr?$AAe?$AA?9?$AAp?$AAr?$AAo?$AAc?$AAe?$AAs?$AAs?$AAt?$AAh?$AAr?$AAe?$AAa?$AAd?$AAs?$AA?9?$AAl@ 00000001800519b0     libucrt:winapi_thunks.obj
 0002:00001a00       ??_C@_1DM@LNCGDDPN@?$AAa?$AAp?$AAi?$AA?9?$AAm?$AAs?$AA?9?$AAw?$AAi?$AAn?$AA?9?$AAc?$AAo?$AAr?$AAe?$AA?9?$AAs?$AAt?$AAr?$AAi?$AAn?$AAg?$AA?9?$AAl?$AA1?$AA?9?$AA1?$AA?9?$AA0?$AA?$AA@ 0000000180051a00     libucrt:winapi_thunks.obj
 0002:00001a40       ??_C@_1DK@LPPGFMPP@?$AAa?$AAp?$AAi?$AA?9?$AAm?$AAs?$AA?9?$AAw?$AAi?$AAn?$AA?9?$AAc?$AAo?$AAr?$AAe?$AA?9?$AAs?$AAy?$AAn?$AAc?$AAh?$AA?9?$AAl?$AA1?$AA?9?$AA2?$AA?9?$AA0?$AA?$AA@ 0000000180051a40     libucrt:winapi_thunks.obj
 0002:00001a80       ??_C@_1DO@FPAPJEMD@?$AAa?$AAp?$AAi?$AA?9?$AAm?$AAs?$AA?9?$AAw?$AAi?$AAn?$AA?9?$AAc?$AAo?$AAr?$AAe?$AA?9?$AAs?$AAy?$AAs?$AAi?$AAn?$AAf?$AAo?$AA?9?$AAl?$AA1?$AA?9?$AA2?$AA?9?$AA1?$AA?$AA@ 0000000180051a80     libucrt:winapi_thunks.obj
 0002:00001ac0       ??_C@_1DK@NDHNAHIO@?$AAa?$AAp?$AAi?$AA?9?$AAm?$AAs?$AA?9?$AAw?$AAi?$AAn?$AA?9?$AAc?$AAo?$AAr?$AAe?$AA?9?$AAw?$AAi?$AAn?$AAr?$AAt?$AA?9?$AAl?$AA1?$AA?9?$AA1?$AA?9?$AA0?$AA?$AA@ 0000000180051ac0     libucrt:winapi_thunks.obj
 0002:00001b00       ??_C@_1DM@KGHDGBCM@?$AAa?$AAp?$AAi?$AA?9?$AAm?$AAs?$AA?9?$AAw?$AAi?$AAn?$AA?9?$AAc?$AAo?$AAr?$AAe?$AA?9?$AAx?$AAs?$AAt?$AAa?$AAt?$AAe?$AA?9?$AAl?$AA2?$AA?9?$AA1?$AA?9?$AA0?$AA?$AA@ 0000000180051b00     libucrt:winapi_thunks.obj
 0002:00001b40       ??_C@_1EO@IJIOEFOH@?$AAa?$AAp?$AAi?$AA?9?$AAm?$AAs?$AA?9?$AAw?$AAi?$AAn?$AA?9?$AAr?$AAt?$AAc?$AAo?$AAr?$AAe?$AA?9?$AAn?$AAt?$AAu?$AAs?$AAe?$AAr?$AA?9?$AAw?$AAi?$AAn?$AAd?$AAo?$AAw?$AA?9@ 0000000180051b40     libucrt:winapi_thunks.obj
 0002:00001b90       ??_C@_1FG@HHGEKANL@?$AAa?$AAp?$AAi?$AA?9?$AAm?$AAs?$AA?9?$AAw?$AAi?$AAn?$AA?9?$AAs?$AAe?$AAc?$AAu?$AAr?$AAi?$AAt?$AAy?$AA?9?$AAs?$AAy?$AAs?$AAt?$AAe?$AAm?$AAf?$AAu?$AAn?$AAc?$AAt?$AAi@ 0000000180051b90     libucrt:winapi_thunks.obj
 0002:00001bf0       ??_C@_1EG@DBIOJECG@?$AAe?$AAx?$AAt?$AA?9?$AAm?$AAs?$AA?9?$AAw?$AAi?$AAn?$AA?9?$AAn?$AAt?$AAu?$AAs?$AAe?$AAr?$AA?9?$AAd?$AAi?$AAa?$AAl?$AAo?$AAg?$AAb?$AAo?$AAx?$AA?9?$AAl?$AA1?$AA?9?$AA1@ 0000000180051bf0     libucrt:winapi_thunks.obj
 0002:00001c40       ??_C@_1EO@FIHMJCLF@?$AAe?$AAx?$AAt?$AA?9?$AAm?$AAs?$AA?9?$AAw?$AAi?$AAn?$AA?9?$AAn?$AAt?$AAu?$AAs?$AAe?$AAr?$AA?9?$AAw?$AAi?$AAn?$AAd?$AAo?$AAw?$AAs?$AAt?$AAa?$AAt?$AAi?$AAo?$AAn?$AA?9@ 0000000180051c40     libucrt:winapi_thunks.obj
 0002:00001c90       ??_C@_1BC@DNHGCMLG@?$AAa?$AAd?$AAv?$AAa?$AAp?$AAi?$AA3?$AA2?$AA?$AA@ 0000000180051c90     libucrt:winapi_thunks.obj
 0002:00001ca8       ??_C@_1BC@GDMECMAK@?$AAk?$AAe?$AAr?$AAn?$AAe?$AAl?$AA3?$AA2?$AA?$AA@ 0000000180051ca8     libucrt:winapi_thunks.obj
 0002:00001cc0       ??_C@_1M@OAIMIKLP@?$AAn?$AAt?$AAd?$AAl?$AAl?$AA?$AA@ 0000000180051cc0     libucrt:winapi_thunks.obj
 0002:00001cd0       ??_C@_1EG@DPGNFKGC@?$AAa?$AAp?$AAi?$AA?9?$AAm?$AAs?$AA?9?$AAw?$AAi?$AAn?$AA?9?$AAa?$AAp?$AAp?$AAm?$AAo?$AAd?$AAe?$AAl?$AA?9?$AAr?$AAu?$AAn?$AAt?$AAi?$AAm?$AAe?$AA?9?$AAl?$AA1?$AA?9?$AA1@ 0000000180051cd0     libucrt:winapi_thunks.obj
 0002:00001d18       ??_C@_1O@BCCLBEOE@?$AAu?$AAs?$AAe?$AAr?$AA3?$AA2?$AA?$AA@ 0000000180051d18     libucrt:winapi_thunks.obj
 0002:00001d28       ??_C@_1BA@PFFKHIOG@?$AAa?$AAp?$AAi?$AA?9?$AAm?$AAs?$AA?9?$AA?$AA@ 0000000180051d28     libucrt:winapi_thunks.obj
 0002:00001d38       ??_C@_1BA@IAIFMGEF@?$AAe?$AAx?$AAt?$AA?9?$AAm?$AAs?$AA?9?$AA?$AA@ 0000000180051d38     libucrt:winapi_thunks.obj
 0002:00001d50       ??_C@_0BA@FHFNEAED@AreFileApisANSI?$AA@ 0000000180051d50     libucrt:winapi_thunks.obj
 0002:00001d68       ??_C@_0BA@IHGNDAEB@CompareStringEx?$AA@ 0000000180051d68     libucrt:winapi_thunks.obj
 0002:00001d80       ??_C@_0BE@LJANKFHF@EnumSystemLocalesEx?$AA@ 0000000180051d80     libucrt:winapi_thunks.obj
 0002:00001da0       ??_C@_08KNHFBNJ@FlsAlloc?$AA@ 0000000180051da0     libucrt:winapi_thunks.obj
 0002:00001db8       ??_C@_07PEJMOBNF@FlsFree?$AA@ 0000000180051db8     libucrt:winapi_thunks.obj
 0002:00001dc8       ??_C@_0M@GDNOONDI@FlsGetValue?$AA@ 0000000180051dc8     libucrt:winapi_thunks.obj
 0002:00001de0       ??_C@_0M@JCPCPOEF@FlsSetValue?$AA@ 0000000180051de0     libucrt:winapi_thunks.obj
 0002:00001df8       ??_C@_0BA@HNOPNCHB@GetActiveWindow?$AA@ 0000000180051df8     libucrt:winapi_thunks.obj
 0002:00001e10       ??_C@_0BA@EPCJIIPD@GetDateFormatEx?$AA@ 0000000180051e10     libucrt:winapi_thunks.obj
 0002:00001e28       ??_C@_0BD@HHGDFDBJ@GetLastActivePopup?$AA@ 0000000180051e28     libucrt:winapi_thunks.obj
 0002:00001e48       ??_C@_0BA@ONOKGCMP@GetLocaleInfoEx?$AA@ 0000000180051e48     libucrt:winapi_thunks.obj
 0002:00001e60       ??_C@_0BI@DFKBFLJE@GetProcessWindowStation?$AA@ 0000000180051e60     libucrt:winapi_thunks.obj
 0002:00001e80       ??_C@_0BA@CIJJKCJJ@GetTimeFormatEx?$AA@ 0000000180051e80     libucrt:winapi_thunks.obj
 0002:00001e98       ??_C@_0BJ@PBCCBIPI@GetUserDefaultLocaleName?$AA@ 0000000180051e98     libucrt:winapi_thunks.obj
 0002:00001ec0       ??_C@_0BK@DEKFELLI@GetUserObjectInformationW?$AA@ 0000000180051ec0     libucrt:winapi_thunks.obj
 0002:00001ee8       ??_C@_0BM@HCFOFFN@InitializeCriticalSectionEx?$AA@ 0000000180051ee8     libucrt:winapi_thunks.obj
 0002:00001f10       ??_C@_0BC@CELBKLLA@IsValidLocaleName?$AA@ 0000000180051f10     libucrt:winapi_thunks.obj
 0002:00001f30       ??_C@_0O@KKBNKAPF@LCMapStringEx?$AA@ 0000000180051f30     libucrt:winapi_thunks.obj
 0002:00001f48       ??_C@_0BB@CDHDDLLP@LCIDToLocaleName?$AA@ 0000000180051f48     libucrt:winapi_thunks.obj
 0002:00001f68       ??_C@_0BB@HBDEELFH@LocaleNameToLCID?$AA@ 0000000180051f68     libucrt:winapi_thunks.obj
 0002:00001f88       ??_C@_0M@CHKKJDAI@MessageBoxA?$AA@ 0000000180051f88     libucrt:winapi_thunks.obj
 0002:00001fa0       ??_C@_0M@DLDCCGNP@MessageBoxW?$AA@ 0000000180051fa0     libucrt:winapi_thunks.obj
 0002:00001fb0       ??_C@_0CF@OJOFEIGO@AppPolicyGetProcessTerminationMe@ 0000000180051fb0     libucrt:winapi_thunks.obj
 0002:00001fe0       ??_C@_0CE@OICFMIKE@AppPolicyGetShowDeveloperDiagnos@ 0000000180051fe0     libucrt:winapi_thunks.obj
 0002:00002008       ??_C@_0BL@ODDJNEDA@AppPolicyGetWindowingModel?$AA@ 0000000180052008     libucrt:winapi_thunks.obj
 0002:000020b0       __lc_category              00000001800520b0     libucrt:wsetlocale.obj
 0002:00002140       ??_C@_1O@GIFLHMA@?$AAL?$AAC?$AA_?$AAA?$AAL?$AAL?$AA?$AA@ 0000000180052140     libucrt:wsetlocale.obj
 0002:00002150       ??_C@_1BG@PPOMIBNJ@?$AAL?$AAC?$AA_?$AAC?$AAO?$AAL?$AAL?$AAA?$AAT?$AAE?$AA?$AA@ 0000000180052150     libucrt:wsetlocale.obj
 0002:00002168       ??_C@_1BC@FFJGAPJM@?$AAL?$AAC?$AA_?$AAC?$AAT?$AAY?$AAP?$AAE?$AA?$AA@ 0000000180052168     libucrt:wsetlocale.obj
 0002:00002180       ??_C@_1BI@PCKFNJFB@?$AAL?$AAC?$AA_?$AAM?$AAO?$AAN?$AAE?$AAT?$AAA?$AAR?$AAY?$AA?$AA@ 0000000180052180     libucrt:wsetlocale.obj
 0002:00002198       ??_C@_1BG@ENIEDKID@?$AAL?$AAC?$AA_?$AAN?$AAU?$AAM?$AAE?$AAR?$AAI?$AAC?$AA?$AA@ 0000000180052198     libucrt:wsetlocale.obj
 0002:000021b0       ??_C@_1BA@HAAOMIIG@?$AAL?$AAC?$AA_?$AAT?$AAI?$AAM?$AAE?$AA?$AA@ 00000001800521b0     libucrt:wsetlocale.obj
 0002:000021c0       ??_C@_15NBPDDFIP@?$AA?$DN?$AA?$DL?$AA?$AA@ 00000001800521c0     libucrt:wsetlocale.obj
 0002:000021c8       ??_C@_13PJJBFPED@?$AA?$DL?$AA?$AA@ 00000001800521c8     libucrt:wsetlocale.obj
 0002:000021cc       ??_C@_13NMPKAAJP@?$AA?$DN?$AA?$AA@ 00000001800521cc     libucrt:wsetlocale.obj
 0002:000021d0       ??_C@_13FHBKNHDA@?$AAC?$AA?$AA@ 00000001800521d0     libucrt:wsetlocale.obj
 0002:000021d8       ??_C@_19MPDNHKDG@?$AAu?$AAt?$AAf?$AA8?$AA?$AA@ 00000001800521d8     libucrt:wsetlocale.obj
 0002:000021e8       ??_C@_1M@FPEIIFAM@?$AAu?$AAt?$AAf?$AA?9?$AA8?$AA?$AA@ 00000001800521e8     libucrt:wsetlocale.obj
 0002:000021f8       ??_C@_17MBJJLFDM@?$AA_?$AA?4?$AA?0?$AA?$AA@ 00000001800521f8     libucrt:wsetlocale.obj
 0002:00002200       ??_C@_13ENNFDPBH@?$AA_?$AA?$AA@ 0000000180052200     libucrt:wsetlocale.obj
 0002:00002204       ??_C@_13JOFGPIOO@?$AA?4?$AA?$AA@ 0000000180052204     libucrt:wsetlocale.obj
 0002:00002208       ?ccs@?1???$__acrt_stdio_parse_mode@D@@YA?AU__acrt_stdio_stream_mode@@QEBD@Z@4QBDB 0000000180052208     libucrt:openfile.obj
 0002:0000220c       ?utf8_encoding@?1???$__acrt_stdio_parse_mode@D@@YA?AU__acrt_stdio_stream_mode@@QEBD@Z@4QBDB 000000018005220c     libucrt:openfile.obj
 0002:00002218       ?utf16_encoding@?1???$__acrt_stdio_parse_mode@D@@YA?AU__acrt_stdio_stream_mode@@QEBD@Z@4QBDB 0000000180052218     libucrt:openfile.obj
 0002:00002220       ?unicode_encoding@?1???$__acrt_stdio_parse_mode@D@@YA?AU__acrt_stdio_stream_mode@@QEBD@Z@4QBDB 0000000180052220     libucrt:openfile.obj
 0002:00002230       __lc_time_c                0000000180052230     libucrt:nlsdata.obj
 0002:000024f0       ??_C@_03KOEHGMDN@Sun?$AA@  00000001800524f0     libucrt:nlsdata.obj
 0002:000024f4       ??_C@_03PDAGKDH@Mon?$AA@   00000001800524f4     libucrt:nlsdata.obj
 0002:000024f8       ??_C@_03NAGEINEP@Tue?$AA@  00000001800524f8     libucrt:nlsdata.obj
 0002:000024fc       ??_C@_03MHOMLAJA@Wed?$AA@  00000001800524fc     libucrt:nlsdata.obj
 0002:00002500       ??_C@_03IOFIKPDN@Thu?$AA@  0000000180052500     libucrt:nlsdata.obj
 0002:00002504       ??_C@_03IDIOELNC@Fri?$AA@  0000000180052504     libucrt:nlsdata.obj
 0002:00002508       ??_C@_03FEFJNEK@Sat?$AA@   0000000180052508     libucrt:nlsdata.obj
 0002:0000250c       ??_C@_06OOPIFAJ@Sunday?$AA@ 000000018005250c     libucrt:nlsdata.obj
 0002:00002514       ??_C@_06JLEDEDGH@Monday?$AA@ 0000000180052514     libucrt:nlsdata.obj
 0002:00002520       ??_C@_07BAAGCFCM@Tuesday?$AA@ 0000000180052520     libucrt:nlsdata.obj
 0002:00002528       ??_C@_09DLIGFAKA@Wednesday?$AA@ 0000000180052528     libucrt:nlsdata.obj
 0002:00002538       ??_C@_08HACCIKIA@Thursday?$AA@ 0000000180052538     libucrt:nlsdata.obj
 0002:00002544       ??_C@_06JECMNKMI@Friday?$AA@ 0000000180052544     libucrt:nlsdata.obj
 0002:00002550       ??_C@_08INBOOONO@Saturday?$AA@ 0000000180052550     libucrt:nlsdata.obj
 0002:0000255c       ??_C@_03JIHJHPIE@Jan?$AA@  000000018005255c     libucrt:nlsdata.obj
 0002:00002560       ??_C@_03HJBDCHOM@Feb?$AA@  0000000180052560     libucrt:nlsdata.obj
 0002:00002564       ??_C@_03ODNJBKGA@Mar?$AA@  0000000180052564     libucrt:nlsdata.obj
 0002:00002568       ??_C@_03LEOLGMJP@Apr?$AA@  0000000180052568     libucrt:nlsdata.obj
 0002:0000256c       ??_C@_03CNMDKL@May?$AA@    000000018005256c     libucrt:nlsdata.obj
 0002:00002570       ??_C@_03IDFGHECI@Jun?$AA@  0000000180052570     libucrt:nlsdata.obj
 0002:00002574       ??_C@_03LBGABGKK@Jul?$AA@  0000000180052574     libucrt:nlsdata.obj
 0002:00002578       ??_C@_03IFJFEIGA@Aug?$AA@  0000000180052578     libucrt:nlsdata.obj
 0002:0000257c       ??_C@_03GGCAPAJC@Sep?$AA@  000000018005257c     libucrt:nlsdata.obj
 0002:00002580       ??_C@_03BMAOKBAD@Oct?$AA@  0000000180052580     libucrt:nlsdata.obj
 0002:00002584       ??_C@_03JPJOFNIA@Nov?$AA@  0000000180052584     libucrt:nlsdata.obj
 0002:00002588       ??_C@_03MKABNOCG@Dec?$AA@  0000000180052588     libucrt:nlsdata.obj
 0002:00002590       ??_C@_07CGJPFGJA@January?$AA@ 0000000180052590     libucrt:nlsdata.obj
 0002:00002598       ??_C@_08GNJGEPFN@February?$AA@ 0000000180052598     libucrt:nlsdata.obj
 0002:000025a4       ??_C@_05HPCKOFNC@March?$AA@ 00000001800525a4     libucrt:nlsdata.obj
 0002:000025ac       ??_C@_05DMJDNLEJ@April?$AA@ 00000001800525ac     libucrt:nlsdata.obj
 0002:000025b4       ??_C@_04CNLMGBGM@June?$AA@ 00000001800525b4     libucrt:nlsdata.obj
 0002:000025bc       ??_C@_04MIEPOIFP@July?$AA@ 00000001800525bc     libucrt:nlsdata.obj
 0002:000025c4       ??_C@_06LBBHFDDG@August?$AA@ 00000001800525c4     libucrt:nlsdata.obj
 0002:000025d0       ??_C@_09BHHEALKD@September?$AA@ 00000001800525d0     libucrt:nlsdata.obj
 0002:000025e0       ??_C@_07JJNFCEND@October?$AA@ 00000001800525e0     libucrt:nlsdata.obj
 0002:000025e8       ??_C@_08HCHEGEOA@November?$AA@ 00000001800525e8     libucrt:nlsdata.obj
 0002:000025f8       ??_C@_08EDHMEBNP@December?$AA@ 00000001800525f8     libucrt:nlsdata.obj
 0002:00002604       ??_C@_02DEDBPAFC@AM?$AA@   0000000180052604     libucrt:nlsdata.obj
 0002:00002608       ??_C@_02CJNFDJBF@PM?$AA@   0000000180052608     libucrt:nlsdata.obj
 0002:00002610       ??_C@_08BPBNCDIB@MM?1dd?1yy?$AA@ 0000000180052610     libucrt:nlsdata.obj
 0002:00002620       ??_C@_0BE@CKGJFCPC@dddd?0?5MMMM?5dd?0?5yyyy?$AA@ 0000000180052620     libucrt:nlsdata.obj
 0002:00002638       ??_C@_08JCCMCCIL@HH?3mm?3ss?$AA@ 0000000180052638     libucrt:nlsdata.obj
 0002:00002648       ??_C@_17MBGCMIPB@?$AAS?$AAu?$AAn?$AA?$AA@ 0000000180052648     libucrt:nlsdata.obj
 0002:00002650       ??_C@_17KBOMKBF@?$AAM?$AAo?$AAn?$AA?$AA@ 0000000180052650     libucrt:nlsdata.obj
 0002:00002658       ??_C@_17BMKGEGOJ@?$AAT?$AAu?$AAe?$AA?$AA@ 0000000180052658     libucrt:nlsdata.obj
 0002:00002660       ??_C@_17CJEDCEPE@?$AAW?$AAe?$AAd?$AA?$AA@ 0000000180052660     libucrt:nlsdata.obj
 0002:00002668       ??_C@_17PDPHAADD@?$AAT?$AAh?$AAu?$AA?$AA@ 0000000180052668     libucrt:nlsdata.obj
 0002:00002670       ??_C@_17HFOLPPLP@?$AAF?$AAr?$AAi?$AA?$AA@ 0000000180052670     libucrt:nlsdata.obj
 0002:00002678       ??_C@_17GGIBDPIH@?$AAS?$AAa?$AAt?$AA?$AA@ 0000000180052678     libucrt:nlsdata.obj
 0002:00002680       ??_C@_1O@IHNHDHPB@?$AAS?$AAu?$AAn?$AAd?$AAa?$AAy?$AA?$AA@ 0000000180052680     libucrt:nlsdata.obj
 0002:00002690       ??_C@_1O@MMNBFLIA@?$AAM?$AAo?$AAn?$AAd?$AAa?$AAy?$AA?$AA@ 0000000180052690     libucrt:nlsdata.obj
 0002:000026a0       ??_C@_1BA@ENFBFFEK@?$AAT?$AAu?$AAe?$AAs?$AAd?$AAa?$AAy?$AA?$AA@ 00000001800526a0     libucrt:nlsdata.obj
 0002:000026b0       ??_C@_1BE@EBOGMDOH@?$AAW?$AAe?$AAd?$AAn?$AAe?$AAs?$AAd?$AAa?$AAy?$AA?$AA@ 00000001800526b0     libucrt:nlsdata.obj
 0002:000026c8       ??_C@_1BC@HHMNLIHE@?$AAT?$AAh?$AAu?$AAr?$AAs?$AAd?$AAa?$AAy?$AA?$AA@ 00000001800526c8     libucrt:nlsdata.obj
 0002:000026e0       ??_C@_1O@PDICJHAG@?$AAF?$AAr?$AAi?$AAd?$AAa?$AAy?$AA?$AA@ 00000001800526e0     libucrt:nlsdata.obj
 0002:000026f0       ??_C@_1BC@ENMNNPAJ@?$AAS?$AAa?$AAt?$AAu?$AAr?$AAd?$AAa?$AAy?$AA?$AA@ 00000001800526f0     libucrt:nlsdata.obj
 0002:00002708       ??_C@_17DKNBKCHM@?$AAJ?$AAa?$AAn?$AA?$AA@ 0000000180052708     libucrt:nlsdata.obj
 0002:00002710       ??_C@_17LMDJEKJN@?$AAF?$AAe?$AAb?$AA?$AA@ 0000000180052710     libucrt:nlsdata.obj
 0002:00002718       ??_C@_17CKNLEDEC@?$AAM?$AAa?$AAr?$AA?$AA@ 0000000180052718     libucrt:nlsdata.obj
 0002:00002720       ??_C@_17LFPOIHDD@?$AAA?$AAp?$AAr?$AA?$AA@ 0000000180052720     libucrt:nlsdata.obj
 0002:00002728       ??_C@_17PNNKMEED@?$AAM?$AAa?$AAy?$AA?$AA@ 0000000180052728     libucrt:nlsdata.obj
 0002:00002730       ??_C@_17KCJGOCPB@?$AAJ?$AAu?$AAn?$AA?$AA@ 0000000180052730     libucrt:nlsdata.obj
 0002:00002738       ??_C@_17IJPCKHK@?$AAJ?$AAu?$AAl?$AA?$AA@ 0000000180052738     libucrt:nlsdata.obj
 0002:00002740       ??_C@_17ICPELBCN@?$AAA?$AAu?$AAg?$AA?$AA@ 0000000180052740     libucrt:nlsdata.obj
 0002:00002748       ??_C@_17HCHCOKMG@?$AAS?$AAe?$AAp?$AA?$AA@ 0000000180052748     libucrt:nlsdata.obj
 0002:00002750       ??_C@_17FNLKOI@?$AAO?$AAc?$AAt?$AA?$AA@ 0000000180052750     libucrt:nlsdata.obj
 0002:00002758       ??_C@_17BBDMLCIG@?$AAN?$AAo?$AAv?$AA?$AA@ 0000000180052758     libucrt:nlsdata.obj
 0002:00002760       ??_C@_17EGKACKIF@?$AAD?$AAe?$AAc?$AA?$AA@ 0000000180052760     libucrt:nlsdata.obj
 0002:00002768       ??_C@_1BA@EFMEIEBA@?$AAJ?$AAa?$AAn?$AAu?$AAa?$AAr?$AAy?$AA?$AA@ 0000000180052768     libucrt:nlsdata.obj
 0002:00002778       ??_C@_1BC@JGDDFFAM@?$AAF?$AAe?$AAb?$AAr?$AAu?$AAa?$AAr?$AAy?$AA?$AA@ 0000000180052778     libucrt:nlsdata.obj
 0002:00002790       ??_C@_1M@IKEENEDF@?$AAM?$AAa?$AAr?$AAc?$AAh?$AA?$AA@ 0000000180052790     libucrt:nlsdata.obj
 0002:000027a0       ??_C@_1M@GJNLMHFD@?$AAA?$AAp?$AAr?$AAi?$AAl?$AA?$AA@ 00000001800527a0     libucrt:nlsdata.obj
 0002:000027b0       ??_C@_19EPFLPGAP@?$AAJ?$AAu?$AAn?$AAe?$AA?$AA@ 00000001800527b0     libucrt:nlsdata.obj
 0002:000027c0       ??_C@_19BIFMLPCD@?$AAJ?$AAu?$AAl?$AAy?$AA?$AA@ 00000001800527c0     libucrt:nlsdata.obj
 0002:000027d0       ??_C@_1O@PAHLKOAC@?$AAA?$AAu?$AAg?$AAu?$AAs?$AAt?$AA?$AA@ 00000001800527d0     libucrt:nlsdata.obj
 0002:000027e0       ??_C@_1BE@DKAAMBJL@?$AAS?$AAe?$AAp?$AAt?$AAe?$AAm?$AAb?$AAe?$AAr?$AA?$AA@ 00000001800527e0     libucrt:nlsdata.obj
 0002:000027f8       ??_C@_1BA@EPANDLNG@?$AAO?$AAc?$AAt?$AAo?$AAb?$AAe?$AAr?$AA?$AA@ 00000001800527f8     libucrt:nlsdata.obj
 0002:00002808       ??_C@_1BC@BGLIFPF@?$AAN?$AAo?$AAv?$AAe?$AAm?$AAb?$AAe?$AAr?$AA?$AA@ 0000000180052808     libucrt:nlsdata.obj
 0002:00002820       ??_C@_1BC@FEMKIFH@?$AAD?$AAe?$AAc?$AAe?$AAm?$AAb?$AAe?$AAr?$AA?$AA@ 0000000180052820     libucrt:nlsdata.obj
 0002:00002834       ??_C@_15ODEHAHHF@?$AAA?$AAM?$AA?$AA@ 0000000180052834     libucrt:nlsdata.obj
 0002:0000283c       ??_C@_15CLMNNGEL@?$AAP?$AAM?$AA?$AA@ 000000018005283c     libucrt:nlsdata.obj
 0002:00002848       ??_C@_1BC@IEBCMHCM@?$AAM?$AAM?$AA?1?$AAd?$AAd?$AA?1?$AAy?$AAy?$AA?$AA@ 0000000180052848     libucrt:nlsdata.obj
 0002:00002860       ??_C@_1CI@KNAKOEBC@?$AAd?$AAd?$AAd?$AAd?$AA?0?$AA?5?$AAM?$AAM?$AAM?$AAM?$AA?5?$AAd?$AAd?$AA?0?$AA?5?$AAy?$AAy?$AAy?$AAy?$AA?$AA@ 0000000180052860     libucrt:nlsdata.obj
 0002:00002888       ??_C@_1BC@GDGBMEMK@?$AAH?$AAH?$AA?3?$AAm?$AAm?$AA?3?$AAs?$AAs?$AA?$AA@ 0000000180052888     libucrt:nlsdata.obj
 0002:000028a0       ??_C@_1M@BMHNFIME@?$AAe?$AAn?$AA?9?$AAU?$AAS?$AA?$AA@ 00000001800528a0     libucrt:nlsdata.obj
 0002:000028ac       ??_C@_03OEIAHPBN@INF?$AA@  00000001800528ac     libucrt:cvt.obj
 0002:000028b0       ??_C@_03OJHLLCGB@inf?$AA@  00000001800528b0     libucrt:cvt.obj
 0002:000028b4       ??_C@_03LKNCIKJB@NAN?$AA@  00000001800528b4     libucrt:cvt.obj
 0002:000028b8       ??_C@_03LHCJEHON@nan?$AA@  00000001800528b8     libucrt:cvt.obj
 0002:000028c0       ??_C@_09OFJJIMPC@NAN?$CISNAN?$CJ?$AA@ 00000001800528c0     libucrt:cvt.obj
 0002:000028d0       ??_C@_09IPFBKMDL@nan?$CIsnan?$CJ?$AA@ 00000001800528d0     libucrt:cvt.obj
 0002:000028e0       ??_C@_08IKHNHAJ@NAN?$CIIND?$CJ?$AA@ 00000001800528e0     libucrt:cvt.obj
 0002:000028f0       ??_C@_08OFCDMILK@nan?$CIind?$CJ?$AA@ 00000001800528f0     libucrt:cvt.obj
 0002:000028fc       ??_C@_05KLBDPFGC@e?$CL000?$AA@ 00000001800528fc     libucrt:cvt.obj
 0002:00002910       __newctype                 0000000180052910     libucrt:ctype.obj
 0002:00002c10       __newclmap                 0000000180052c10     libucrt:ctype.obj
 0002:00002d90       __newcumap                 0000000180052d90     libucrt:ctype.obj
 0002:00002f10       _wctype                    0000000180052f10     libucrt:ctype.obj
 0002:00003138       ??_C@_1M@HPNHIDJI@?$AAj?$AAa?$AA?9?$AAJ?$AAP?$AA?$AA@ 0000000180053138     libucrt:mbctype.obj
 0002:00003148       ??_C@_1M@BIBDDEMK@?$AAz?$AAh?$AA?9?$AAC?$AAN?$AA?$AA@ 0000000180053148     libucrt:mbctype.obj
 0002:00003158       ??_C@_1M@JLOOOEGK@?$AAk?$AAo?$AA?9?$AAK?$AAR?$AA?$AA@ 0000000180053158     libucrt:mbctype.obj
 0002:00003168       ??_C@_1M@CLNBBOPM@?$AAz?$AAh?$AA?9?$AAT?$AAW?$AA?$AA@ 0000000180053168     libucrt:mbctype.obj
 0002:00003174       ??_C@_00CNPNBAHC@?$AA@     0000000180053174     libucrt:mbrtowc.obj
 0002:00003fc0       ??_C@_15EMKDOKLE@?$AAa?$AAr?$AA?$AA@ 0000000180053fc0     libucrt:lcidtoname_downlevel.obj
 0002:00003fc8       ??_C@_15KNPADPLH@?$AAb?$AAg?$AA?$AA@ 0000000180053fc8     libucrt:lcidtoname_downlevel.obj
 0002:00003fd0       ??_C@_15EDMHLDMO@?$AAc?$AAa?$AA?$AA@ 0000000180053fd0     libucrt:lcidtoname_downlevel.obj
 0002:00003fd8       ??_C@_1O@BPEAJADD@?$AAz?$AAh?$AA?9?$AAC?$AAH?$AAS?$AA?$AA@ 0000000180053fd8     libucrt:lcidtoname_downlevel.obj
 0002:00003fe8       ??_C@_15LJNHCMNK@?$AAc?$AAs?$AA?$AA@ 0000000180053fe8     libucrt:lcidtoname_downlevel.obj
 0002:00003ff0       ??_C@_15FOMCIDHG@?$AAd?$AAa?$AA?$AA@ 0000000180053ff0     libucrt:lcidtoname_downlevel.obj
 0002:00003ff8       ??_C@_15NBKABECB@?$AAd?$AAe?$AA?$AA@ 0000000180053ff8     libucrt:lcidtoname_downlevel.obj
 0002:00004000       ??_C@_15GHPEIIAO@?$AAe?$AAl?$AA?$AA@ 0000000180054000     libucrt:lcidtoname_downlevel.obj
 0002:00004008       ??_C@_15MNPNEAIF@?$AAe?$AAn?$AA?$AA@ 0000000180054008     libucrt:lcidtoname_downlevel.obj
 0002:00004010       ??_C@_15GPIOMPMH@?$AAe?$AAs?$AA?$AA@ 0000000180054010     libucrt:lcidtoname_downlevel.obj
 0002:00004018       ??_C@_15NGLOAKJC@?$AAf?$AAi?$AA?$AA@ 0000000180054018     libucrt:lcidtoname_downlevel.obj
 0002:00004020       ??_C@_15FBKGNKAM@?$AAf?$AAr?$AA?$AA@ 0000000180054020     libucrt:lcidtoname_downlevel.obj
 0002:00004028       ??_C@_15KGGCNEFK@?$AAh?$AAe?$AA?$AA@ 0000000180054028     libucrt:lcidtoname_downlevel.obj
 0002:00004030       ??_C@_15PGHLIDMF@?$AAh?$AAu?$AA?$AA@ 0000000180054030     libucrt:lcidtoname_downlevel.obj
 0002:00004038       ??_C@_15BIEMAPLM@?$AAi?$AAs?$AA?$AA@ 0000000180054038     libucrt:lcidtoname_downlevel.obj
 0002:00004040       ??_C@_15IFJLDHAF@?$AAi?$AAt?$AA?$AA@ 0000000180054040     libucrt:lcidtoname_downlevel.obj
 0002:00004048       ??_C@_15GEMIOCAG@?$AAj?$AAa?$AA?$AA@ 0000000180054048     libucrt:lcidtoname_downlevel.obj
 0002:00004050       ??_C@_15EPELEGJA@?$AAk?$AAo?$AA?$AA@ 0000000180054050     libucrt:lcidtoname_downlevel.obj
 0002:00004058       ??_C@_15NDDHIMN@?$AAn?$AAl?$AA?$AA@ 0000000180054058     libucrt:lcidtoname_downlevel.obj
 0002:00004060       ??_C@_15BPIGNHCD@?$AAn?$AAo?$AA?$AA@ 0000000180054060     libucrt:lcidtoname_downlevel.obj
 0002:00004068       ??_C@_15DEOPBLCG@?$AAp?$AAl?$AA?$AA@ 0000000180054068     libucrt:lcidtoname_downlevel.obj
 0002:00004070       ??_C@_15KBECGEFG@?$AAp?$AAt?$AA?$AA@ 0000000180054070     libucrt:lcidtoname_downlevel.obj
 0002:00004078       ??_C@_15GLJCBFMD@?$AAr?$AAo?$AA?$AA@ 0000000180054078     libucrt:lcidtoname_downlevel.obj
 0002:00004080       ??_C@_15FEDGKCDI@?$AAr?$AAu?$AA?$AA@ 0000000180054080     libucrt:lcidtoname_downlevel.obj
 0002:00004088       ??_C@_15GLKMLLHM@?$AAh?$AAr?$AA?$AA@ 0000000180054088     libucrt:lcidtoname_downlevel.obj
 0002:00004090       ??_C@_15CPKMFBDB@?$AAs?$AAk?$AA?$AA@ 0000000180054090     libucrt:lcidtoname_downlevel.obj
 0002:00004098       ??_C@_15BAAIOGMK@?$AAs?$AAq?$AA?$AA@ 0000000180054098     libucrt:lcidtoname_downlevel.obj
 0002:000040a0       ??_C@_15INNPNOHD@?$AAs?$AAv?$AA?$AA@ 00000001800540a0     libucrt:lcidtoname_downlevel.obj
 0002:000040a8       ??_C@_15CABMMOGH@?$AAt?$AAh?$AA?$AA@ 00000001800540a8     libucrt:lcidtoname_downlevel.obj
 0002:000040b0       ??_C@_15BPLIHJJM@?$AAt?$AAr?$AA?$AA@ 00000001800540b0     libucrt:lcidtoname_downlevel.obj
 0002:000040b8       ??_C@_15NEOEKKDJ@?$AAu?$AAr?$AA?$AA@ 00000001800540b8     libucrt:lcidtoname_downlevel.obj
 0002:000040c0       ??_C@_15NFICGAJK@?$AAi?$AAd?$AA?$AA@ 00000001800540c0     libucrt:lcidtoname_downlevel.obj
 0002:000040c8       ??_C@_15PJPFLCCM@?$AAu?$AAk?$AA?$AA@ 00000001800540c8     libucrt:lcidtoname_downlevel.obj
 0002:000040d0       ??_C@_15HPJPHDM@?$AAb?$AAe?$AA?$AA@ 00000001800540d0     libucrt:lcidtoname_downlevel.obj
 0002:000040d8       ??_C@_15LCHLGJII@?$AAs?$AAl?$AA?$AA@ 00000001800540d8     libucrt:lcidtoname_downlevel.obj
 0002:000040e0       ??_C@_15PCFJPHHO@?$AAe?$AAt?$AA?$AA@ 00000001800540e0     libucrt:lcidtoname_downlevel.obj
 0002:000040e8       ??_C@_15HPFPGODN@?$AAl?$AAv?$AA?$AA@ 00000001800540e8     libucrt:lcidtoname_downlevel.obj
 0002:000040f0       ??_C@_15NFFGKGLG@?$AAl?$AAt?$AA?$AA@ 00000001800540f0     libucrt:lcidtoname_downlevel.obj
 0002:000040f8       ??_C@_15BDAKCCHN@?$AAf?$AAa?$AA?$AA@ 00000001800540f8     libucrt:lcidtoname_downlevel.obj
 0002:00004100       ??_C@_15NFGIAIAJ@?$AAv?$AAi?$AA?$AA@ 0000000180054100     libucrt:lcidtoname_downlevel.obj
 0002:00004108       ??_C@_15LMKNDMHN@?$AAh?$AAy?$AA?$AA@ 0000000180054108     libucrt:lcidtoname_downlevel.obj
 0002:00004110       ??_C@_15IJBHMCFL@?$AAa?$AAz?$AA?$AA@ 0000000180054110     libucrt:lcidtoname_downlevel.obj
 0002:00004118       ??_C@_15EKOFJABL@?$AAe?$AAu?$AA?$AA@ 0000000180054118     libucrt:lcidtoname_downlevel.obj
 0002:00004120       ??_C@_15BGHADCNK@?$AAm?$AAk?$AA?$AA@ 0000000180054120     libucrt:lcidtoname_downlevel.obj
 0002:00004128       ??_C@_15JDNICKHM@?$AAa?$AAf?$AA?$AA@ 0000000180054128     libucrt:lcidtoname_downlevel.obj
 0002:00004130       ??_C@_15KPJEDBKD@?$AAk?$AAa?$AA?$AA@ 0000000180054130     libucrt:lcidtoname_downlevel.obj
 0002:00004138       ??_C@_15PDNFFFEO@?$AAf?$AAo?$AA?$AA@ 0000000180054138     libucrt:lcidtoname_downlevel.obj
 0002:00004140       ??_C@_15OMLEGLOC@?$AAh?$AAi?$AA?$AA@ 0000000180054140     libucrt:lcidtoname_downlevel.obj
 0002:00004148       ??_C@_15IDNNENKK@?$AAm?$AAs?$AA?$AA@ 0000000180054148     libucrt:lcidtoname_downlevel.obj
 0002:00004150       ??_C@_15MACJNBMH@?$AAk?$AAk?$AA?$AA@ 0000000180054150     libucrt:lcidtoname_downlevel.obj
 0002:00004158       ??_C@_15DKDJEOND@?$AAk?$AAy?$AA?$AA@ 0000000180054158     libucrt:lcidtoname_downlevel.obj
 0002:00004160       ??_C@_15DFGDLJBG@?$AAs?$AAw?$AA?$AA@ 0000000180054160     libucrt:lcidtoname_downlevel.obj
 0002:00004168       ??_C@_15BBFAICNG@?$AAu?$AAz?$AA?$AA@ 0000000180054168     libucrt:lcidtoname_downlevel.obj
 0002:00004170       ??_C@_15DKNDCGEA@?$AAt?$AAt?$AA?$AA@ 0000000180054170     libucrt:lcidtoname_downlevel.obj
 0002:00004178       ??_C@_15MGIFMDPL@?$AAp?$AAa?$AA?$AA@ 0000000180054178     libucrt:lcidtoname_downlevel.obj
 0002:00004180       ??_C@_15HCNDBBA@?$AAg?$AAu?$AA?$AA@ 0000000180054180     libucrt:lcidtoname_downlevel.obj
 0002:00004188       ??_C@_15FNBEIBON@?$AAt?$AAa?$AA?$AA@ 0000000180054188     libucrt:lcidtoname_downlevel.obj
 0002:00004190       ??_C@_15NCHGBGLK@?$AAt?$AAe?$AA?$AA@ 0000000180054190     libucrt:lcidtoname_downlevel.obj
 0002:00004198       ??_C@_15PHPHCBPF@?$AAk?$AAn?$AA?$AA@ 0000000180054198     libucrt:lcidtoname_downlevel.obj
 0002:000041a0       ??_C@_15DLGBCKMP@?$AAm?$AAr?$AA?$AA@ 00000001800541a0     libucrt:lcidtoname_downlevel.obj
 0002:000041a8       ??_C@_15EABBLBFF@?$AAs?$AAa?$AA?$AA@ 00000001800541a8     libucrt:lcidtoname_downlevel.obj
 0002:000041b0       ??_C@_15CBKOMCOI@?$AAm?$AAn?$AA?$AA@ 00000001800541b0     libucrt:lcidtoname_downlevel.obj
 0002:000041b8       ??_C@_15CKDMCJAF@?$AAg?$AAl?$AA?$AA@ 00000001800541b8     libucrt:lcidtoname_downlevel.obj
 0002:000041c0       ??_C@_17CNJFBPG@?$AAk?$AAo?$AAk?$AA?$AA@ 00000001800541c0     libucrt:lcidtoname_downlevel.obj
 0002:000041c8       ??_C@_17FFBJICPL@?$AAs?$AAy?$AAr?$AA?$AA@ 00000001800541c8     libucrt:lcidtoname_downlevel.obj
 0002:000041d0       ??_C@_17KPNDCPAF@?$AAd?$AAi?$AAv?$AA?$AA@ 00000001800541d0     libucrt:lcidtoname_downlevel.obj
 0002:000041d8       ??_C@_11LOCGONAA@?$AA?$AA@ 00000001800541d8     libucrt:lcidtoname_downlevel.obj
 0002:000041e0       ??_C@_1M@OKAHONE@?$AAa?$AAr?$AA?9?$AAS?$AAA?$AA?$AA@ 00000001800541e0     libucrt:lcidtoname_downlevel.obj
 0002:000041f0       ??_C@_1M@FFFIGIGK@?$AAb?$AAg?$AA?9?$AAB?$AAG?$AA?$AA@ 00000001800541f0     libucrt:lcidtoname_downlevel.obj
 0002:00004200       ??_C@_1M@BJNKEDC@?$AAc?$AAa?$AA?9?$AAE?$AAS?$AA?$AA@ 0000000180054200     libucrt:lcidtoname_downlevel.obj
 0002:00004210       ??_C@_1M@IJJHFJHA@?$AAc?$AAs?$AA?9?$AAC?$AAZ?$AA?$AA@ 0000000180054210     libucrt:lcidtoname_downlevel.obj
 0002:00004220       ??_C@_1M@CLPEOBGI@?$AAd?$AAa?$AA?9?$AAD?$AAK?$AA?$AA@ 0000000180054220     libucrt:lcidtoname_downlevel.obj
 0002:00004230       ??_C@_1M@MCMADGCB@?$AAd?$AAe?$AA?9?$AAD?$AAE?$AA?$AA@ 0000000180054230     libucrt:lcidtoname_downlevel.obj
 0002:00004240       ??_C@_1M@OOCKEMAM@?$AAe?$AAl?$AA?9?$AAG?$AAR?$AA?$AA@ 0000000180054240     libucrt:lcidtoname_downlevel.obj
 0002:00004250       ??_C@_1M@DDNJFGID@?$AAf?$AAi?$AA?9?$AAF?$AAI?$AA?$AA@ 0000000180054250     libucrt:lcidtoname_downlevel.obj
 0002:00004260       ??_C@_1M@GLIPPMAC@?$AAf?$AAr?$AA?9?$AAF?$AAR?$AA?$AA@ 0000000180054260     libucrt:lcidtoname_downlevel.obj
 0002:00004270       ??_C@_1M@GFMCHPE@?$AAh?$AAe?$AA?9?$AAI?$AAL?$AA?$AA@ 0000000180054270     libucrt:lcidtoname_downlevel.obj
 0002:00004280       ??_C@_1M@MHLPGNKM@?$AAh?$AAu?$AA?9?$AAH?$AAU?$AA?$AA@ 0000000180054280     libucrt:lcidtoname_downlevel.obj
 0002:00004290       ??_C@_1M@LPDDNNPN@?$AAi?$AAs?$AA?9?$AAI?$AAS?$AA?$AA@ 0000000180054290     libucrt:lcidtoname_downlevel.obj
 0002:000042a0       ??_C@_1M@MADIPODN@?$AAi?$AAt?$AA?9?$AAI?$AAT?$AA?$AA@ 00000001800542a0     libucrt:lcidtoname_downlevel.obj
 0002:000042b0       ??_C@_1M@IHBJJGG@?$AAn?$AAl?$AA?9?$AAN?$AAL?$AA?$AA@ 00000001800542b0     libucrt:lcidtoname_downlevel.obj
 0002:000042c0       ??_C@_1M@EANAGDL@?$AAn?$AAb?$AA?9?$AAN?$AAO?$AA?$AA@ 00000001800542c0     libucrt:lcidtoname_downlevel.obj
 0002:000042d0       ??_C@_1M@NEIEMEGP@?$AAp?$AAl?$AA?9?$AAP?$AAL?$AA?$AA@ 00000001800542d0     libucrt:lcidtoname_downlevel.obj
 0002:000042e0       ??_C@_1M@BOCFIGEP@?$AAp?$AAt?$AA?9?$AAB?$AAR?$AA?$AA@ 00000001800542e0     libucrt:lcidtoname_downlevel.obj
 0002:000042f0       ??_C@_1M@IMPFOPBG@?$AAr?$AAo?$AA?9?$AAR?$AAO?$AA?$AA@ 00000001800542f0     libucrt:lcidtoname_downlevel.obj
 0002:00004300       ??_C@_1M@IDNNEJMM@?$AAr?$AAu?$AA?9?$AAR?$AAU?$AA?$AA@ 0000000180054300     libucrt:lcidtoname_downlevel.obj
 0002:00004310       ??_C@_1M@LILEEOGM@?$AAh?$AAr?$AA?9?$AAH?$AAR?$AA?$AA@ 0000000180054310     libucrt:lcidtoname_downlevel.obj
 0002:00004320       ??_C@_1M@FKIFEHPB@?$AAs?$AAk?$AA?9?$AAS?$AAK?$AA?$AA@ 0000000180054320     libucrt:lcidtoname_downlevel.obj
 0002:00004330       ??_C@_1M@LJMAMNPJ@?$AAs?$AAq?$AA?9?$AAA?$AAL?$AA?$AA@ 0000000180054330     libucrt:lcidtoname_downlevel.obj
 0002:00004340       ??_C@_1M@GIAKDKJK@?$AAs?$AAv?$AA?9?$AAS?$AAE?$AA?$AA@ 0000000180054340     libucrt:lcidtoname_downlevel.obj
 0002:00004350       ??_C@_1M@MKJKIKCL@?$AAt?$AAh?$AA?9?$AAT?$AAH?$AA?$AA@ 0000000180054350     libucrt:lcidtoname_downlevel.obj
 0002:00004360       ??_C@_1M@MFLCCMPB@?$AAt?$AAr?$AA?9?$AAT?$AAR?$AA?$AA@ 0000000180054360     libucrt:lcidtoname_downlevel.obj
 0002:00004370       ??_C@_1M@OIJHDKJN@?$AAu?$AAr?$AA?9?$AAP?$AAK?$AA?$AA@ 0000000180054370     libucrt:lcidtoname_downlevel.obj
 0002:00004380       ??_C@_1M@LHIPCIEK@?$AAi?$AAd?$AA?9?$AAI?$AAD?$AA?$AA@ 0000000180054380     libucrt:lcidtoname_downlevel.obj
 0002:00004390       ??_C@_1M@MFMOBGI@?$AAu?$AAk?$AA?9?$AAU?$AAA?$AA?$AA@ 0000000180054390     libucrt:lcidtoname_downlevel.obj
 0002:000043a0       ??_C@_1M@OBGLJIPL@?$AAb?$AAe?$AA?9?$AAB?$AAY?$AA?$AA@ 00000001800543a0     libucrt:lcidtoname_downlevel.obj
 0002:000043b0       ??_C@_1M@BCFAJEAD@?$AAs?$AAl?$AA?9?$AAS?$AAI?$AA?$AA@ 00000001800543b0     libucrt:lcidtoname_downlevel.obj
 0002:000043c0       ??_C@_1M@FKFFEDDN@?$AAe?$AAt?$AA?9?$AAE?$AAE?$AA?$AA@ 00000001800543c0     libucrt:lcidtoname_downlevel.obj
 0002:000043d0       ??_C@_1M@KGKKAACI@?$AAl?$AAv?$AA?9?$AAL?$AAV?$AA?$AA@ 00000001800543d0     libucrt:lcidtoname_downlevel.obj
 0002:000043e0       ??_C@_1M@IFGBIJO@?$AAl?$AAt?$AA?9?$AAL?$AAT?$AA?$AA@ 00000001800543e0     libucrt:lcidtoname_downlevel.obj
 0002:000043f0       ??_C@_1M@FGEAHEDM@?$AAf?$AAa?$AA?9?$AAI?$AAR?$AA?$AA@ 00000001800543f0     libucrt:lcidtoname_downlevel.obj
 0002:00004400       ??_C@_1M@KBMAIBFN@?$AAv?$AAi?$AA?9?$AAV?$AAN?$AA?$AA@ 0000000180054400     libucrt:lcidtoname_downlevel.obj
 0002:00004410       ??_C@_1M@GPCBKDJK@?$AAh?$AAy?$AA?9?$AAA?$AAM?$AA?$AA@ 0000000180054410     libucrt:lcidtoname_downlevel.obj
 0002:00004420       ??_C@_1BG@BECMDDJB@?$AAa?$AAz?$AA?9?$AAA?$AAZ?$AA?9?$AAL?$AAa?$AAt?$AAn?$AA?$AA@ 0000000180054420     libucrt:lcidtoname_downlevel.obj
 0002:00004438       ??_C@_1M@MAOFCAEA@?$AAe?$AAu?$AA?9?$AAE?$AAS?$AA?$AA@ 0000000180054438     libucrt:lcidtoname_downlevel.obj
 0002:00004448       ??_C@_1M@IGHABKPI@?$AAm?$AAk?$AA?9?$AAM?$AAK?$AA?$AA@ 0000000180054448     libucrt:lcidtoname_downlevel.obj
 0002:00004458       ??_C@_1M@IAIGNEJG@?$AAt?$AAn?$AA?9?$AAZ?$AAA?$AA?$AA@ 0000000180054458     libucrt:lcidtoname_downlevel.obj
 0002:00004468       ??_C@_1M@IIJCOJFA@?$AAx?$AAh?$AA?9?$AAZ?$AAA?$AA?$AA@ 0000000180054468     libucrt:lcidtoname_downlevel.obj
 0002:00004478       ??_C@_1M@LGPJHNJH@?$AAz?$AAu?$AA?9?$AAZ?$AAA?$AA?$AA@ 0000000180054478     libucrt:lcidtoname_downlevel.obj
 0002:00004488       ??_C@_1M@HOKAOIO@?$AAa?$AAf?$AA?9?$AAZ?$AAA?$AA?$AA@ 0000000180054488     libucrt:lcidtoname_downlevel.obj
 0002:00004498       ??_C@_1M@DPCLHLIE@?$AAk?$AAa?$AA?9?$AAG?$AAE?$AA?$AA@ 0000000180054498     libucrt:lcidtoname_downlevel.obj
 0002:000044a8       ??_C@_1M@BLKMHJBI@?$AAf?$AAo?$AA?9?$AAF?$AAO?$AA?$AA@ 00000001800544a8     libucrt:lcidtoname_downlevel.obj
 0002:000044b8       ??_C@_1M@LGGJAPPB@?$AAh?$AAi?$AA?9?$AAI?$AAN?$AA?$AA@ 00000001800544b8     libucrt:lcidtoname_downlevel.obj
 0002:000044c8       ??_C@_1M@FIKPIHFE@?$AAm?$AAt?$AA?9?$AAM?$AAT?$AA?$AA@ 00000001800544c8     libucrt:lcidtoname_downlevel.obj
 0002:000044d8       ??_C@_1M@HEGGPBFA@?$AAs?$AAe?$AA?9?$AAN?$AAO?$AA?$AA@ 00000001800544d8     libucrt:lcidtoname_downlevel.obj
 0002:000044e8       ??_C@_1M@EIBJEEPA@?$AAm?$AAs?$AA?9?$AAM?$AAY?$AA?$AA@ 00000001800544e8     libucrt:lcidtoname_downlevel.obj
 0002:000044f8       ??_C@_1M@FHLBGMPP@?$AAk?$AAk?$AA?9?$AAK?$AAZ?$AA?$AA@ 00000001800544f8     libucrt:lcidtoname_downlevel.obj
 0002:00004508       ??_C@_1M@NGJJLCGI@?$AAk?$AAy?$AA?9?$AAK?$AAG?$AA?$AA@ 0000000180054508     libucrt:lcidtoname_downlevel.obj
 0002:00004518       ??_C@_1M@GIENNBFC@?$AAs?$AAw?$AA?9?$AAK?$AAE?$AA?$AA@ 0000000180054518     libucrt:lcidtoname_downlevel.obj
 0002:00004528       ??_C@_1BG@NDGMJIMJ@?$AAu?$AAz?$AA?9?$AAU?$AAZ?$AA?9?$AAL?$AAa?$AAt?$AAn?$AA?$AA@ 0000000180054528     libucrt:lcidtoname_downlevel.obj
 0002:00004540       ??_C@_1M@IDCCIHBC@?$AAt?$AAt?$AA?9?$AAR?$AAU?$AA?$AA@ 0000000180054540     libucrt:lcidtoname_downlevel.obj
 0002:00004550       ??_C@_1M@LOICPMOJ@?$AAb?$AAn?$AA?9?$AAI?$AAN?$AA?$AA@ 0000000180054550     libucrt:lcidtoname_downlevel.obj
 0002:00004560       ??_C@_1M@KPKKNEAH@?$AAp?$AAa?$AA?9?$AAI?$AAN?$AA?$AA@ 0000000180054560     libucrt:lcidtoname_downlevel.obj
 0002:00004570       ??_C@_1M@PJGPPBOG@?$AAg?$AAu?$AA?9?$AAI?$AAN?$AA?$AA@ 0000000180054570     libucrt:lcidtoname_downlevel.obj
 0002:00004580       ??_C@_1M@KMKMOPHI@?$AAt?$AAa?$AA?9?$AAI?$AAN?$AA?$AA@ 0000000180054580     libucrt:lcidtoname_downlevel.obj
 0002:00004590       ??_C@_1M@KFEHEPAC@?$AAt?$AAe?$AA?9?$AAI?$AAN?$AA?$AA@ 0000000180054590     libucrt:lcidtoname_downlevel.obj
 0002:000045a0       ??_C@_1M@CDCLMGHI@?$AAk?$AAn?$AA?9?$AAI?$AAN?$AA?$AA@ 00000001800545a0     libucrt:lcidtoname_downlevel.obj
 0002:000045b0       ??_C@_1M@MIODLDKF@?$AAm?$AAl?$AA?9?$AAI?$AAN?$AA?$AA@ 00000001800545b0     libucrt:lcidtoname_downlevel.obj
 0002:000045c0       ??_C@_1M@PBIEACPO@?$AAm?$AAr?$AA?9?$AAI?$AAN?$AA?$AA@ 00000001800545c0     libucrt:lcidtoname_downlevel.obj
 0002:000045d0       ??_C@_1M@NIDEAGPH@?$AAs?$AAa?$AA?9?$AAI?$AAN?$AA?$AA@ 00000001800545d0     libucrt:lcidtoname_downlevel.obj
 0002:000045e0       ??_C@_1M@FHIHCBIO@?$AAm?$AAn?$AA?9?$AAM?$AAN?$AA?$AA@ 00000001800545e0     libucrt:lcidtoname_downlevel.obj
 0002:000045f0       ??_C@_1M@JAIJPENP@?$AAc?$AAy?$AA?9?$AAG?$AAB?$AA?$AA@ 00000001800545f0     libucrt:lcidtoname_downlevel.obj
 0002:00004600       ??_C@_1M@PHGFBEPN@?$AAg?$AAl?$AA?9?$AAE?$AAS?$AA?$AA@ 0000000180054600     libucrt:lcidtoname_downlevel.obj
 0002:00004610       ??_C@_1O@KPIPDNCP@?$AAk?$AAo?$AAk?$AA?9?$AAI?$AAN?$AA?$AA@ 0000000180054610     libucrt:lcidtoname_downlevel.obj
 0002:00004620       ??_C@_1O@KNHJLDJA@?$AAs?$AAy?$AAr?$AA?9?$AAS?$AAY?$AA?$AA@ 0000000180054620     libucrt:lcidtoname_downlevel.obj
 0002:00004630       ??_C@_1O@MKEKBLAH@?$AAd?$AAi?$AAv?$AA?9?$AAM?$AAV?$AA?$AA@ 0000000180054630     libucrt:lcidtoname_downlevel.obj
 0002:00004640       ??_C@_1O@OHDCKDDF@?$AAq?$AAu?$AAz?$AA?9?$AAB?$AAO?$AA?$AA@ 0000000180054640     libucrt:lcidtoname_downlevel.obj
 0002:00004650       ??_C@_1M@LEPJNLFD@?$AAn?$AAs?$AA?9?$AAZ?$AAA?$AA?$AA@ 0000000180054650     libucrt:lcidtoname_downlevel.obj
 0002:00004660       ??_C@_1M@OMLEIIJB@?$AAm?$AAi?$AA?9?$AAN?$AAZ?$AA?$AA@ 0000000180054660     libucrt:lcidtoname_downlevel.obj
 0002:00004670       ??_C@_1M@PMPEAILG@?$AAa?$AAr?$AA?9?$AAI?$AAQ?$AA?$AA@ 0000000180054670     libucrt:lcidtoname_downlevel.obj
 0002:00004680       ??_C@_1M@CNKPNOEE@?$AAd?$AAe?$AA?9?$AAC?$AAH?$AA?$AA@ 0000000180054680     libucrt:lcidtoname_downlevel.obj
 0002:00004690       ??_C@_1M@LKMGMLKO@?$AAe?$AAn?$AA?9?$AAG?$AAB?$AA?$AA@ 0000000180054690     libucrt:lcidtoname_downlevel.obj
 0002:000046a0       ??_C@_1M@PGKJFFGL@?$AAe?$AAs?$AA?9?$AAM?$AAX?$AA?$AA@ 00000001800546a0     libucrt:lcidtoname_downlevel.obj
 0002:000046b0       ??_C@_1M@DNNANBDC@?$AAf?$AAr?$AA?9?$AAB?$AAE?$AA?$AA@ 00000001800546b0     libucrt:lcidtoname_downlevel.obj
 0002:000046c0       ??_C@_1M@HLGMDFHM@?$AAi?$AAt?$AA?9?$AAC?$AAH?$AA?$AA@ 00000001800546c0     libucrt:lcidtoname_downlevel.obj
 0002:000046d0       ??_C@_1M@CLLBGJH@?$AAn?$AAl?$AA?9?$AAB?$AAE?$AA?$AA@ 00000001800546d0     libucrt:lcidtoname_downlevel.obj
 0002:000046e0       ??_C@_1M@BODBOGLF@?$AAn?$AAn?$AA?9?$AAN?$AAO?$AA?$AA@ 00000001800546e0     libucrt:lcidtoname_downlevel.obj
 0002:000046f0       ??_C@_1M@HFFAHKAD@?$AAp?$AAt?$AA?9?$AAP?$AAT?$AA?$AA@ 00000001800546f0     libucrt:lcidtoname_downlevel.obj
 0002:00004700       ??_C@_1BG@LNOAKHIE@?$AAs?$AAr?$AA?9?$AAS?$AAP?$AA?9?$AAL?$AAa?$AAt?$AAn?$AA?$AA@ 0000000180054700     libucrt:lcidtoname_downlevel.obj
 0002:00004718       ??_C@_1M@HBMHBGAK@?$AAs?$AAv?$AA?9?$AAF?$AAI?$AA?$AA@ 0000000180054718     libucrt:lcidtoname_downlevel.obj
 0002:00004728       ??_C@_1BG@DGCJGJBE@?$AAa?$AAz?$AA?9?$AAA?$AAZ?$AA?9?$AAC?$AAy?$AAr?$AAl?$AA?$AA@ 0000000180054728     libucrt:lcidtoname_downlevel.obj
 0002:00004740       ??_C@_1M@KEJDAAHB@?$AAs?$AAe?$AA?9?$AAS?$AAE?$AA?$AA@ 0000000180054740     libucrt:lcidtoname_downlevel.obj
 0002:00004750       ??_C@_1M@HEIBJJAD@?$AAm?$AAs?$AA?9?$AAB?$AAN?$AA?$AA@ 0000000180054750     libucrt:lcidtoname_downlevel.obj
 0002:00004760       ??_C@_1BG@PBGJMCEM@?$AAu?$AAz?$AA?9?$AAU?$AAZ?$AA?9?$AAC?$AAy?$AAr?$AAl?$AA?$AA@ 0000000180054760     libucrt:lcidtoname_downlevel.obj
 0002:00004778       ??_C@_1O@LAOBCMDF@?$AAq?$AAu?$AAz?$AA?9?$AAE?$AAC?$AA?$AA@ 0000000180054778     libucrt:lcidtoname_downlevel.obj
 0002:00004788       ??_C@_1M@POEEMAIO@?$AAa?$AAr?$AA?9?$AAE?$AAG?$AA?$AA@ 0000000180054788     libucrt:lcidtoname_downlevel.obj
 0002:00004798       ??_C@_1M@EFAKDEDL@?$AAz?$AAh?$AA?9?$AAH?$AAK?$AA?$AA@ 0000000180054798     libucrt:lcidtoname_downlevel.obj
 0002:000047a8       ??_C@_1M@HKKIJHGI@?$AAd?$AAe?$AA?9?$AAA?$AAT?$AA?$AA@ 00000001800547a8     libucrt:lcidtoname_downlevel.obj
 0002:000047b8       ??_C@_1M@KBFBEHJF@?$AAe?$AAn?$AA?9?$AAA?$AAU?$AA?$AA@ 00000001800547b8     libucrt:lcidtoname_downlevel.obj
 0002:000047c8       ??_C@_1M@MNPLFAAH@?$AAe?$AAs?$AA?9?$AAE?$AAS?$AA?$AA@ 00000001800547c8     libucrt:lcidtoname_downlevel.obj
 0002:000047d8       ??_C@_1M@HJOOJFMA@?$AAf?$AAr?$AA?9?$AAC?$AAA?$AA?$AA@ 00000001800547d8     libucrt:lcidtoname_downlevel.obj
 0002:000047e8       ??_C@_1BG@JPOFPNAB@?$AAs?$AAr?$AA?9?$AAS?$AAP?$AA?9?$AAC?$AAy?$AAr?$AAl?$AA?$AA@ 00000001800547e8     libucrt:lcidtoname_downlevel.obj
 0002:00004800       ??_C@_1M@LNFOCMOB@?$AAs?$AAe?$AA?9?$AAF?$AAI?$AA?$AA@ 0000000180054800     libucrt:lcidtoname_downlevel.obj
 0002:00004810       ??_C@_1O@MGJBOAMB@?$AAq?$AAu?$AAz?$AA?9?$AAP?$AAE?$AA?$AA@ 0000000180054810     libucrt:lcidtoname_downlevel.obj
 0002:00004820       ??_C@_1M@GJINLBOK@?$AAa?$AAr?$AA?9?$AAL?$AAY?$AA?$AA@ 0000000180054820     libucrt:lcidtoname_downlevel.obj
 0002:00004830       ??_C@_1M@GGMNHJNL@?$AAz?$AAh?$AA?9?$AAS?$AAG?$AA?$AA@ 0000000180054830     libucrt:lcidtoname_downlevel.obj
 0002:00004840       ??_C@_1M@HOIKODND@?$AAd?$AAe?$AA?9?$AAL?$AAU?$AA?$AA@ 0000000180054840     libucrt:lcidtoname_downlevel.obj
 0002:00004850       ??_C@_1M@DDOCCGFG@?$AAe?$AAn?$AA?9?$AAC?$AAA?$AA?$AA@ 0000000180054850     libucrt:lcidtoname_downlevel.obj
 0002:00004860       ??_C@_1M@BNOEMJLF@?$AAe?$AAs?$AA?9?$AAG?$AAT?$AA?$AA@ 0000000180054860     libucrt:lcidtoname_downlevel.obj
 0002:00004870       ??_C@_1M@EOGNKEK@?$AAf?$AAr?$AA?9?$AAC?$AAH?$AA?$AA@ 0000000180054870     libucrt:lcidtoname_downlevel.obj
 0002:00004880       ??_C@_1M@FLIDJFHL@?$AAh?$AAr?$AA?9?$AAB?$AAA?$AA?$AA@ 0000000180054880     libucrt:lcidtoname_downlevel.obj
 0002:00004890       ??_C@_1O@FMCELNAJ@?$AAs?$AAm?$AAj?$AA?9?$AAN?$AAO?$AA?$AA@ 0000000180054890     libucrt:lcidtoname_downlevel.obj
 0002:000048a0       ??_C@_1M@JHGLJMGJ@?$AAa?$AAr?$AA?9?$AAD?$AAZ?$AA?$AA@ 00000001800548a0     libucrt:lcidtoname_downlevel.obj
 0002:000048b0       ??_C@_1M@JKKFDCNP@?$AAz?$AAh?$AA?9?$AAM?$AAO?$AA?$AA@ 00000001800548b0     libucrt:lcidtoname_downlevel.obj
 0002:000048c0       ??_C@_1M@GEEFALPE@?$AAd?$AAe?$AA?9?$AAL?$AAI?$AA?$AA@ 00000001800548c0     libucrt:lcidtoname_downlevel.obj
 0002:000048d0       ??_C@_1M@IGEOFBG@?$AAe?$AAn?$AA?9?$AAN?$AAZ?$AA?$AA@ 00000001800548d0     libucrt:lcidtoname_downlevel.obj
 0002:000048e0       ??_C@_1M@KDBONEHP@?$AAe?$AAs?$AA?9?$AAC?$AAR?$AA?$AA@ 00000001800548e0     libucrt:lcidtoname_downlevel.obj
 0002:000048f0       ??_C@_1M@FHMDOHNN@?$AAf?$AAr?$AA?9?$AAL?$AAU?$AA?$AA@ 00000001800548f0     libucrt:lcidtoname_downlevel.obj
 0002:00004900       ??_C@_1BG@NFKKMAFG@?$AAb?$AAs?$AA?9?$AAB?$AAA?$AA?9?$AAL?$AAa?$AAt?$AAn?$AA?$AA@ 0000000180054900     libucrt:lcidtoname_downlevel.obj
 0002:00004918       ??_C@_1O@IMNBEMCI@?$AAs?$AAm?$AAj?$AA?9?$AAS?$AAE?$AA?$AA@ 0000000180054918     libucrt:lcidtoname_downlevel.obj
 0002:00004928       ??_C@_1M@DHHMBNDP@?$AAa?$AAr?$AA?9?$AAM?$AAA?$AA?$AA@ 0000000180054928     libucrt:lcidtoname_downlevel.obj
 0002:00004938       ??_C@_1M@BNBLJCGH@?$AAe?$AAn?$AA?9?$AAI?$AAE?$AA?$AA@ 0000000180054938     libucrt:lcidtoname_downlevel.obj
 0002:00004948       ??_C@_1M@GEPAFMDL@?$AAe?$AAs?$AA?9?$AAP?$AAA?$AA?$AA@ 0000000180054948     libucrt:lcidtoname_downlevel.obj
 0002:00004958       ??_C@_1M@OJONDMDL@?$AAf?$AAr?$AA?9?$AAM?$AAC?$AA?$AA@ 0000000180054958     libucrt:lcidtoname_downlevel.obj
 0002:00004968       ??_C@_1BG@OBCNFJB@?$AAs?$AAr?$AA?9?$AAB?$AAA?$AA?9?$AAL?$AAa?$AAt?$AAn?$AA?$AA@ 0000000180054968     libucrt:lcidtoname_downlevel.obj
 0002:00004980       ??_C@_1O@KEMEEGPO@?$AAs?$AAm?$AAa?$AA?9?$AAN?$AAO?$AA?$AA@ 0000000180054980     libucrt:lcidtoname_downlevel.obj
 0002:00004990       ??_C@_1M@ELMGFODK@?$AAa?$AAr?$AA?9?$AAT?$AAN?$AA?$AA@ 0000000180054990     libucrt:lcidtoname_downlevel.obj
 0002:000049a0       ??_C@_1M@BHDLHFAF@?$AAe?$AAn?$AA?9?$AAZ?$AAA?$AA?$AA@ 00000001800549a0     libucrt:lcidtoname_downlevel.obj
 0002:000049b0       ??_C@_1M@BMGIGLIF@?$AAe?$AAs?$AA?9?$AAD?$AAO?$AA?$AA@ 00000001800549b0     libucrt:lcidtoname_downlevel.obj
 0002:000049c0       ??_C@_1BG@CMBHIPBE@?$AAs?$AAr?$AA?9?$AAB?$AAA?$AA?9?$AAC?$AAy?$AAr?$AAl?$AA?$AA@ 00000001800549c0     libucrt:lcidtoname_downlevel.obj
 0002:000049d8       ??_C@_1O@HEDBLHNP@?$AAs?$AAm?$AAa?$AA?9?$AAS?$AAE?$AA?$AA@ 00000001800549d8     libucrt:lcidtoname_downlevel.obj
 0002:000049e8       ??_C@_1M@DAGCADIM@?$AAa?$AAr?$AA?9?$AAO?$AAM?$AA?$AA@ 00000001800549e8     libucrt:lcidtoname_downlevel.obj
 0002:000049f8       ??_C@_1M@FODLMICG@?$AAe?$AAn?$AA?9?$AAJ?$AAM?$AA?$AA@ 00000001800549f8     libucrt:lcidtoname_downlevel.obj
 0002:00004a08       ??_C@_1M@DNMLCIHB@?$AAe?$AAs?$AA?9?$AAV?$AAE?$AA?$AA@ 0000000180054a08     libucrt:lcidtoname_downlevel.obj
 0002:00004a18       ??_C@_1O@EOKHMKJK@?$AAs?$AAm?$AAs?$AA?9?$AAF?$AAI?$AA?$AA@ 0000000180054a18     libucrt:lcidtoname_downlevel.obj
 0002:00004a28       ??_C@_1M@CAFJMKOF@?$AAa?$AAr?$AA?9?$AAY?$AAE?$AA?$AA@ 0000000180054a28     libucrt:lcidtoname_downlevel.obj
 0002:00004a38       ??_C@_1M@CBFHIJLI@?$AAe?$AAn?$AA?9?$AAC?$AAB?$AA?$AA@ 0000000180054a38     libucrt:lcidtoname_downlevel.obj
 0002:00004a48       ??_C@_1M@BGNFLDN@?$AAe?$AAs?$AA?9?$AAC?$AAO?$AA?$AA@ 0000000180054a48     libucrt:lcidtoname_downlevel.obj
 0002:00004a58       ??_C@_1O@JMPHMAMC@?$AAs?$AAm?$AAn?$AA?9?$AAF?$AAI?$AA?$AA@ 0000000180054a58     libucrt:lcidtoname_downlevel.obj
 0002:00004a68       ??_C@_1M@JLANABKE@?$AAa?$AAr?$AA?9?$AAS?$AAY?$AA?$AA@ 0000000180054a68     libucrt:lcidtoname_downlevel.obj
 0002:00004a78       ??_C@_1M@HPKGCFGN@?$AAe?$AAn?$AA?9?$AAB?$AAZ?$AA?$AA@ 0000000180054a78     libucrt:lcidtoname_downlevel.obj
 0002:00004a88       ??_C@_1M@OLJCMLGM@?$AAe?$AAs?$AA?9?$AAP?$AAE?$AA?$AA@ 0000000180054a88     libucrt:lcidtoname_downlevel.obj
 0002:00004a98       ??_C@_1M@MKKGFKLE@?$AAa?$AAr?$AA?9?$AAJ?$AAO?$AA?$AA@ 0000000180054a98     libucrt:lcidtoname_downlevel.obj
 0002:00004aa8       ??_C@_1M@EKPGLDNI@?$AAe?$AAn?$AA?9?$AAT?$AAT?$AA?$AA@ 0000000180054aa8     libucrt:lcidtoname_downlevel.obj
 0002:00004ab8       ??_C@_1M@OONGHFHE@?$AAe?$AAs?$AA?9?$AAA?$AAR?$AA?$AA@ 0000000180054ab8     libucrt:lcidtoname_downlevel.obj
 0002:00004ac8       ??_C@_1M@OOJFGBHE@?$AAa?$AAr?$AA?9?$AAL?$AAB?$AA?$AA@ 0000000180054ac8     libucrt:lcidtoname_downlevel.obj
 0002:00004ad8       ??_C@_1M@GCEJHNEG@?$AAe?$AAn?$AA?9?$AAZ?$AAW?$AA?$AA@ 0000000180054ad8     libucrt:lcidtoname_downlevel.obj
 0002:00004ae8       ??_C@_1M@JNOCAHJI@?$AAe?$AAs?$AA?9?$AAE?$AAC?$AA?$AA@ 0000000180054ae8     libucrt:lcidtoname_downlevel.obj
 0002:00004af8       ??_C@_1M@JEFHPGGB@?$AAa?$AAr?$AA?9?$AAK?$AAW?$AA?$AA@ 0000000180054af8     libucrt:lcidtoname_downlevel.obj
 0002:00004b08       ??_C@_1M@MLKIBJOJ@?$AAe?$AAn?$AA?9?$AAP?$AAH?$AA?$AA@ 0000000180054b08     libucrt:lcidtoname_downlevel.obj
 0002:00004b18       ??_C@_1M@BDNIPEND@?$AAe?$AAs?$AA?9?$AAC?$AAL?$AA?$AA@ 0000000180054b18     libucrt:lcidtoname_downlevel.obj
 0002:00004b28       ??_C@_1M@MPNMEKBD@?$AAa?$AAr?$AA?9?$AAA?$AAE?$AA?$AA@ 0000000180054b28     libucrt:lcidtoname_downlevel.obj
 0002:00004b38       ??_C@_1M@KBJALCPI@?$AAe?$AAs?$AA?9?$AAU?$AAY?$AA?$AA@ 0000000180054b38     libucrt:lcidtoname_downlevel.obj
 0002:00004b48       ??_C@_1M@LLCCOAGA@?$AAa?$AAr?$AA?9?$AAB?$AAH?$AA?$AA@ 0000000180054b48     libucrt:lcidtoname_downlevel.obj
 0002:00004b58       ??_C@_1M@PBFNCDEL@?$AAe?$AAs?$AA?9?$AAP?$AAY?$AA?$AA@ 0000000180054b58     libucrt:lcidtoname_downlevel.obj
 0002:00004b68       ??_C@_1M@EDGINPNP@?$AAa?$AAr?$AA?9?$AAQ?$AAA?$AA?$AA@ 0000000180054b68     libucrt:lcidtoname_downlevel.obj
 0002:00004b78       ??_C@_1M@MKDBIIJI@?$AAe?$AAs?$AA?9?$AAB?$AAO?$AA?$AA@ 0000000180054b78     libucrt:lcidtoname_downlevel.obj
 0002:00004b88       ??_C@_1M@CPKKEBLD@?$AAe?$AAs?$AA?9?$AAS?$AAV?$AA?$AA@ 0000000180054b88     libucrt:lcidtoname_downlevel.obj
 0002:00004b98       ??_C@_1M@NDBGMMJL@?$AAe?$AAs?$AA?9?$AAH?$AAN?$AA?$AA@ 0000000180054b98     libucrt:lcidtoname_downlevel.obj
 0002:00004ba8       ??_C@_1M@JIJIBHDP@?$AAe?$AAs?$AA?9?$AAN?$AAI?$AA?$AA@ 0000000180054ba8     libucrt:lcidtoname_downlevel.obj
 0002:00004bb8       ??_C@_1M@CGFMKEEK@?$AAe?$AAs?$AA?9?$AAP?$AAR?$AA?$AA@ 0000000180054bb8     libucrt:lcidtoname_downlevel.obj
 0002:00004bc8       ??_C@_1O@ICJHKIIK@?$AAz?$AAh?$AA?9?$AAC?$AAH?$AAT?$AA?$AA@ 0000000180054bc8     libucrt:lcidtoname_downlevel.obj
 0002:00004bd8       ??_C@_15CLNEJCE@?$AAs?$AAr?$AA?$AA@ 0000000180054bd8     libucrt:lcidtoname_downlevel.obj
 0002:00005a20       ??_C@_1M@KAHEKEIG@?$AAa?$AAf?$AA?9?$AAz?$AAa?$AA?$AA@ 0000000180055a20     libucrt:lcidtoname_downlevel.obj
 0002:00005a30       ??_C@_1M@GIECOABL@?$AAa?$AAr?$AA?9?$AAa?$AAe?$AA?$AA@ 0000000180055a30     libucrt:lcidtoname_downlevel.obj
 0002:00005a40       ??_C@_1M@BMLMEKGI@?$AAa?$AAr?$AA?9?$AAb?$AAh?$AA?$AA@ 0000000180055a40     libucrt:lcidtoname_downlevel.obj
 0002:00005a50       ??_C@_1M@DAPFDGGB@?$AAa?$AAr?$AA?9?$AAd?$AAz?$AA?$AA@ 0000000180055a50     libucrt:lcidtoname_downlevel.obj
 0002:00005a60       ??_C@_1M@FJNKGKIG@?$AAa?$AAr?$AA?9?$AAe?$AAg?$AA?$AA@ 0000000180055a60     libucrt:lcidtoname_downlevel.obj
 0002:00005a70       ??_C@_1M@FLGKKCLO@?$AAa?$AAr?$AA?9?$AAi?$AAq?$AA?$AA@ 0000000180055a70     libucrt:lcidtoname_downlevel.obj
 0002:00005a80       ??_C@_1M@GNDIPALM@?$AAa?$AAr?$AA?9?$AAj?$AAo?$AA?$AA@ 0000000180055a80     libucrt:lcidtoname_downlevel.obj
 0002:00005a90       ??_C@_1M@DDMJFMGJ@?$AAa?$AAr?$AA?9?$AAk?$AAw?$AA?$AA@ 0000000180055a90     libucrt:lcidtoname_downlevel.obj
 0002:00005aa0       ??_C@_1M@EJALMLHM@?$AAa?$AAr?$AA?9?$AAl?$AAb?$AA?$AA@ 0000000180055aa0     libucrt:lcidtoname_downlevel.obj
 0002:00005ab0       ??_C@_1M@MOBDBLOC@?$AAa?$AAr?$AA?9?$AAl?$AAy?$AA?$AA@ 0000000180055ab0     libucrt:lcidtoname_downlevel.obj
 0002:00005ac0       ??_C@_1M@JAOCLHDH@?$AAa?$AAr?$AA?9?$AAm?$AAa?$AA?$AA@ 0000000180055ac0     libucrt:lcidtoname_downlevel.obj
 0002:00005ad0       ??_C@_1M@JHPMKJIE@?$AAa?$AAr?$AA?9?$AAo?$AAm?$AA?$AA@ 0000000180055ad0     libucrt:lcidtoname_downlevel.obj
 0002:00005ae0       ??_C@_1M@OEPGHFNH@?$AAa?$AAr?$AA?9?$AAq?$AAa?$AA?$AA@ 0000000180055ae0     libucrt:lcidtoname_downlevel.obj
 0002:00005af0       ??_C@_1M@KJDONENM@?$AAa?$AAr?$AA?9?$AAs?$AAa?$AA?$AA@ 0000000180055af0     libucrt:lcidtoname_downlevel.obj
 0002:00005b00       ??_C@_1M@DMJDKLKM@?$AAa?$AAr?$AA?9?$AAs?$AAy?$AA?$AA@ 0000000180055b00     libucrt:lcidtoname_downlevel.obj
 0002:00005b10       ??_C@_1M@OMFIPEDC@?$AAa?$AAr?$AA?9?$AAt?$AAn?$AA?$AA@ 0000000180055b10     libucrt:lcidtoname_downlevel.obj
 0002:00005b20       ??_C@_1M@IHMHGAON@?$AAa?$AAr?$AA?9?$AAy?$AAe?$AA?$AA@ 0000000180055b20     libucrt:lcidtoname_downlevel.obj
 0002:00005b30       ??_C@_1BG@KDCPGJGB@?$AAa?$AAz?$AA?9?$AAa?$AAz?$AA?9?$AAc?$AAy?$AAr?$AAl?$AA?$AA@ 0000000180055b30     libucrt:lcidtoname_downlevel.obj
 0002:00005b48       ??_C@_1BG@IBCKDDOE@?$AAa?$AAz?$AA?9?$AAa?$AAz?$AA?9?$AAl?$AAa?$AAt?$AAn?$AA?$AA@ 0000000180055b48     libucrt:lcidtoname_downlevel.obj
 0002:00005b60       ??_C@_1M@EGPFDCPD@?$AAb?$AAe?$AA?9?$AAb?$AAy?$AA?$AA@ 0000000180055b60     libucrt:lcidtoname_downlevel.obj
 0002:00005b70       ??_C@_1M@PCMGMCGC@?$AAb?$AAg?$AA?9?$AAb?$AAg?$AA?$AA@ 0000000180055b70     libucrt:lcidtoname_downlevel.obj
 0002:00005b80       ??_C@_1M@BJBMFGOB@?$AAb?$AAn?$AA?9?$AAi?$AAn?$AA?$AA@ 0000000180055b80     libucrt:lcidtoname_downlevel.obj
 0002:00005b90       ??_C@_1BG@EAKMMACD@?$AAb?$AAs?$AA?9?$AAb?$AAa?$AA?9?$AAl?$AAa?$AAt?$AAn?$AA?$AA@ 0000000180055b90     libucrt:lcidtoname_downlevel.obj
 0002:00005ba8       ??_C@_1M@KGADAODK@?$AAc?$AAa?$AA?9?$AAe?$AAs?$AA?$AA@ 0000000180055ba8     libucrt:lcidtoname_downlevel.obj
 0002:00005bb8       ??_C@_1M@COAJPDHI@?$AAc?$AAs?$AA?9?$AAc?$AAz?$AA?$AA@ 0000000180055bb8     libucrt:lcidtoname_downlevel.obj
 0002:00005bc8       ??_C@_1M@DHBHFONH@?$AAc?$AAy?$AA?9?$AAg?$AAb?$AA?$AA@ 0000000180055bc8     libucrt:lcidtoname_downlevel.obj
 0002:00005bd8       ??_C@_1M@IMGKELGA@?$AAd?$AAa?$AA?9?$AAd?$AAk?$AA?$AA@ 0000000180055bd8     libucrt:lcidtoname_downlevel.obj
 0002:00005be8       ??_C@_1M@NNDGDNGA@?$AAd?$AAe?$AA?9?$AAa?$AAt?$AA?$AA@ 0000000180055be8     libucrt:lcidtoname_downlevel.obj
 0002:00005bf8       ??_C@_1M@IKDBHEEM@?$AAd?$AAe?$AA?9?$AAc?$AAh?$AA?$AA@ 0000000180055bf8     libucrt:lcidtoname_downlevel.obj
 0002:00005c08       ??_C@_1M@GFFOJMCJ@?$AAd?$AAe?$AA?9?$AAd?$AAe?$AA?$AA@ 0000000180055c08     libucrt:lcidtoname_downlevel.obj
 0002:00005c18       ??_C@_1M@MDNLKBPM@?$AAd?$AAe?$AA?9?$AAl?$AAi?$AA?$AA@ 0000000180055c18     libucrt:lcidtoname_downlevel.obj
 0002:00005c28       ??_C@_1M@NJBEEJNL@?$AAd?$AAe?$AA?9?$AAl?$AAu?$AA?$AA@ 0000000180055c28     libucrt:lcidtoname_downlevel.obj
 0002:00005c38       ??_C@_1O@GNNELBAP@?$AAd?$AAi?$AAv?$AA?9?$AAm?$AAv?$AA?$AA@ 0000000180055c38     libucrt:lcidtoname_downlevel.obj
 0002:00005c48       ??_C@_1M@EJLEOGAE@?$AAe?$AAl?$AA?9?$AAg?$AAr?$AA?$AA@ 0000000180055c48     libucrt:lcidtoname_downlevel.obj
 0002:00005c58       ??_C@_1M@GMPONJN@?$AAe?$AAn?$AA?9?$AAa?$AAu?$AA?$AA@ 0000000180055c58     libucrt:lcidtoname_downlevel.obj
 0002:00005c68       ??_C@_1M@NIDIIPGF@?$AAe?$AAn?$AA?9?$AAb?$AAz?$AA?$AA@ 0000000180055c68     libucrt:lcidtoname_downlevel.obj
 0002:00005c78       ??_C@_1M@JEHMIMFO@?$AAe?$AAn?$AA?9?$AAc?$AAa?$AA?$AA@ 0000000180055c78     libucrt:lcidtoname_downlevel.obj
 0002:00005c88       ??_C@_1M@IGMJCDLA@?$AAe?$AAn?$AA?9?$AAc?$AAb?$AA?$AA@ 0000000180055c88     libucrt:lcidtoname_downlevel.obj
 0002:00005c98       ??_C@_1M@BNFIGBKG@?$AAe?$AAn?$AA?9?$AAg?$AAb?$AA?$AA@ 0000000180055c98     libucrt:lcidtoname_downlevel.obj
 0002:00005ca8       ??_C@_1M@LKIFDIGP@?$AAe?$AAn?$AA?9?$AAi?$AAe?$AA?$AA@ 0000000180055ca8     libucrt:lcidtoname_downlevel.obj
 0002:00005cb8       ??_C@_1M@PJKFGCCO@?$AAe?$AAn?$AA?9?$AAj?$AAm?$AA?$AA@ 0000000180055cb8     libucrt:lcidtoname_downlevel.obj
 0002:00005cc8       ??_C@_1M@KPPKEPBO@?$AAe?$AAn?$AA?9?$AAn?$AAz?$AA?$AA@ 0000000180055cc8     libucrt:lcidtoname_downlevel.obj
 0002:00005cd8       ??_C@_1M@GMDGLDOB@?$AAe?$AAn?$AA?9?$AAp?$AAh?$AA?$AA@ 0000000180055cd8     libucrt:lcidtoname_downlevel.obj
 0002:00005ce8       ??_C@_1M@ONGIBJNA@?$AAe?$AAn?$AA?9?$AAt?$AAt?$AA?$AA@ 0000000180055ce8     libucrt:lcidtoname_downlevel.obj
 0002:00005cf8       ??_C@_1M@LLODPCMM@?$AAe?$AAn?$AA?9?$AAu?$AAs?$AA?$AA@ 0000000180055cf8     libucrt:lcidtoname_downlevel.obj
 0002:00005d08       ??_C@_1M@LAKFNPAN@?$AAe?$AAn?$AA?9?$AAz?$AAa?$AA?$AA@ 0000000180055d08     libucrt:lcidtoname_downlevel.obj
 0002:00005d18       ??_C@_1M@MFNHNHEO@?$AAe?$AAn?$AA?9?$AAz?$AAw?$AA?$AA@ 0000000180055d18     libucrt:lcidtoname_downlevel.obj
 0002:00005d28       ??_C@_1M@EJEINPHM@?$AAe?$AAs?$AA?9?$AAa?$AAr?$AA?$AA@ 0000000180055d28     libucrt:lcidtoname_downlevel.obj
 0002:00005d38       ??_C@_1M@GNKPCCJA@?$AAe?$AAs?$AA?9?$AAb?$AAo?$AA?$AA@ 0000000180055d38     libucrt:lcidtoname_downlevel.obj
 0002:00005d48       ??_C@_1M@LEEGFONL@?$AAe?$AAs?$AA?9?$AAc?$AAl?$AA?$AA@ 0000000180055d48     libucrt:lcidtoname_downlevel.obj
 0002:00005d58       ??_C@_1M@KGPDPBDF@?$AAe?$AAs?$AA?9?$AAc?$AAo?$AA?$AA@ 0000000180055d58     libucrt:lcidtoname_downlevel.obj
 0002:00005d68       ??_C@_1M@EIAHOHH@?$AAe?$AAs?$AA?9?$AAc?$AAr?$AA?$AA@ 0000000180055d68     libucrt:lcidtoname_downlevel.obj
 0002:00005d78       ??_C@_1M@LLPGMBIN@?$AAe?$AAs?$AA?9?$AAd?$AAo?$AA?$AA@ 0000000180055d78     libucrt:lcidtoname_downlevel.obj
 0002:00005d88       ??_C@_1M@DKHMKNJA@?$AAe?$AAs?$AA?9?$AAe?$AAc?$AA?$AA@ 0000000180055d88     libucrt:lcidtoname_downlevel.obj
 0002:00005d98       ??_C@_1M@GKGFPKAP@?$AAe?$AAs?$AA?9?$AAe?$AAs?$AA?$AA@ 0000000180055d98     libucrt:lcidtoname_downlevel.obj
 0002:00005da8       ??_C@_1M@LKHKGDLN@?$AAe?$AAs?$AA?9?$AAg?$AAt?$AA?$AA@ 0000000180055da8     libucrt:lcidtoname_downlevel.obj
 0002:00005db8       ??_C@_1M@HEIIGGJD@?$AAe?$AAs?$AA?9?$AAh?$AAn?$AA?$AA@ 0000000180055db8     libucrt:lcidtoname_downlevel.obj
 0002:00005dc8       ??_C@_1M@FBDHPPGD@?$AAe?$AAs?$AA?9?$AAm?$AAx?$AA?$AA@ 0000000180055dc8     libucrt:lcidtoname_downlevel.obj
 0002:00005dd8       ??_C@_1M@DPAGLNDH@?$AAe?$AAs?$AA?9?$AAn?$AAi?$AA?$AA@ 0000000180055dd8     libucrt:lcidtoname_downlevel.obj
 0002:00005de8       ??_C@_1M@MDGOPGDD@?$AAe?$AAs?$AA?9?$AAp?$AAa?$AA?$AA@ 0000000180055de8     libucrt:lcidtoname_downlevel.obj
 0002:00005df8       ??_C@_1M@EMAMGBGE@?$AAe?$AAs?$AA?9?$AAp?$AAe?$AA?$AA@ 0000000180055df8     libucrt:lcidtoname_downlevel.obj
 0002:00005e08       ??_C@_1M@IBMCAOEC@?$AAe?$AAs?$AA?9?$AAp?$AAr?$AA?$AA@ 0000000180055e08     libucrt:lcidtoname_downlevel.obj
 0002:00005e18       ??_C@_1M@FGMDIJED@?$AAe?$AAs?$AA?9?$AAp?$AAy?$AA?$AA@ 0000000180055e18     libucrt:lcidtoname_downlevel.obj
 0002:00005e28       ??_C@_1M@IIDEOLLL@?$AAe?$AAs?$AA?9?$AAs?$AAv?$AA?$AA@ 0000000180055e28     libucrt:lcidtoname_downlevel.obj
 0002:00005e38       ??_C@_1M@GAOBIPA@?$AAe?$AAs?$AA?9?$AAu?$AAy?$AA?$AA@ 0000000180055e38     libucrt:lcidtoname_downlevel.obj
 0002:00005e48       ??_C@_1M@JKFFICHJ@?$AAe?$AAs?$AA?9?$AAv?$AAe?$AA?$AA@ 0000000180055e48     libucrt:lcidtoname_downlevel.obj
 0002:00005e58       ??_C@_1M@PNMLOJDF@?$AAe?$AAt?$AA?9?$AAe?$AAe?$AA?$AA@ 0000000180055e58     libucrt:lcidtoname_downlevel.obj
 0002:00005e68       ??_C@_1M@GHHLIKEI@?$AAe?$AAu?$AA?9?$AAe?$AAs?$AA?$AA@ 0000000180055e68     libucrt:lcidtoname_downlevel.obj
 0002:00005e78       ??_C@_1M@PBNONODE@?$AAf?$AAa?$AA?9?$AAi?$AAr?$AA?$AA@ 0000000180055e78     libucrt:lcidtoname_downlevel.obj
 0002:00005e88       ??_C@_1M@JEEHPMIL@?$AAf?$AAi?$AA?9?$AAf?$AAi?$AA?$AA@ 0000000180055e88     libucrt:lcidtoname_downlevel.obj
 0002:00005e98       ??_C@_1M@LMDCNDBA@?$AAf?$AAo?$AA?9?$AAf?$AAo?$AA?$AA@ 0000000180055e98     libucrt:lcidtoname_downlevel.obj
 0002:00005ea8       ??_C@_1M@JKEOHLDK@?$AAf?$AAr?$AA?9?$AAb?$AAe?$AA?$AA@ 0000000180055ea8     libucrt:lcidtoname_downlevel.obj
 0002:00005eb8       ??_C@_1M@NOHADPMI@?$AAf?$AAr?$AA?9?$AAc?$AAa?$AA?$AA@ 0000000180055eb8     libucrt:lcidtoname_downlevel.obj
 0002:00005ec8       ??_C@_1M@KDHIHAEC@?$AAf?$AAr?$AA?9?$AAc?$AAh?$AA?$AA@ 0000000180055ec8     libucrt:lcidtoname_downlevel.obj
 0002:00005ed8       ??_C@_1M@MMBBFGAK@?$AAf?$AAr?$AA?9?$AAf?$AAr?$AA?$AA@ 0000000180055ed8     libucrt:lcidtoname_downlevel.obj
 0002:00005ee8       ??_C@_1M@PAFNENNF@?$AAf?$AAr?$AA?9?$AAl?$AAu?$AA?$AA@ 0000000180055ee8     libucrt:lcidtoname_downlevel.obj
 0002:00005ef8       ??_C@_1M@EOHDJGDD@?$AAf?$AAr?$AA?9?$AAm?$AAc?$AA?$AA@ 0000000180055ef8     libucrt:lcidtoname_downlevel.obj
 0002:00005f08       ??_C@_1M@FAPLLOPF@?$AAg?$AAl?$AA?9?$AAe?$AAs?$AA?$AA@ 0000000180055f08     libucrt:lcidtoname_downlevel.obj
 0002:00005f18       ??_C@_1M@FOPBFLOO@?$AAg?$AAu?$AA?9?$AAi?$AAn?$AA?$AA@ 0000000180055f18     libucrt:lcidtoname_downlevel.obj
 0002:00005f28       ??_C@_1M@KBMCINPM@?$AAh?$AAe?$AA?9?$AAi?$AAl?$AA?$AA@ 0000000180055f28     libucrt:lcidtoname_downlevel.obj
 0002:00005f38       ??_C@_1M@BBPHKFPJ@?$AAh?$AAi?$AA?9?$AAi?$AAn?$AA?$AA@ 0000000180055f38     libucrt:lcidtoname_downlevel.obj
 0002:00005f48       ??_C@_1M@PMBNDPHD@?$AAh?$AAr?$AA?9?$AAb?$AAa?$AA?$AA@ 0000000180055f48     libucrt:lcidtoname_downlevel.obj
 0002:00005f58       ??_C@_1M@BPCKOEGE@?$AAh?$AAr?$AA?9?$AAh?$AAr?$AA?$AA@ 0000000180055f58     libucrt:lcidtoname_downlevel.obj
 0002:00005f68       ??_C@_1M@GACBMHKE@?$AAh?$AAu?$AA?9?$AAh?$AAu?$AA?$AA@ 0000000180055f68     libucrt:lcidtoname_downlevel.obj
 0002:00005f78       ??_C@_1M@MILPAJJC@?$AAh?$AAy?$AA?9?$AAa?$AAm?$AA?$AA@ 0000000180055f78     libucrt:lcidtoname_downlevel.obj
 0002:00005f88       ??_C@_1M@BABBICEC@?$AAi?$AAd?$AA?9?$AAi?$AAd?$AA?$AA@ 0000000180055f88     libucrt:lcidtoname_downlevel.obj
 0002:00005f98       ??_C@_1M@BIKNHHPF@?$AAi?$AAs?$AA?9?$AAi?$AAs?$AA?$AA@ 0000000180055f98     libucrt:lcidtoname_downlevel.obj
 0002:00005fa8       ??_C@_1M@NMPCJPHE@?$AAi?$AAt?$AA?9?$AAc?$AAh?$AA?$AA@ 0000000180055fa8     libucrt:lcidtoname_downlevel.obj
 0002:00005fb8       ??_C@_1M@GHKGFEDF@?$AAi?$AAt?$AA?9?$AAi?$AAt?$AA?$AA@ 0000000180055fb8     libucrt:lcidtoname_downlevel.obj
 0002:00005fc8       ??_C@_1M@NIEJCJJA@?$AAj?$AAa?$AA?9?$AAj?$AAp?$AA?$AA@ 0000000180055fc8     libucrt:lcidtoname_downlevel.obj
 0002:00005fd8       ??_C@_1M@JILFNBIM@?$AAk?$AAa?$AA?9?$AAg?$AAe?$AA?$AA@ 0000000180055fd8     libucrt:lcidtoname_downlevel.obj
 0002:00005fe8       ??_C@_1M@PACPMGPH@?$AAk?$AAk?$AA?9?$AAk?$AAz?$AA?$AA@ 0000000180055fe8     libucrt:lcidtoname_downlevel.obj
 0002:00005ff8       ??_C@_1M@IELFGMHA@?$AAk?$AAn?$AA?9?$AAi?$AAn?$AA?$AA@ 0000000180055ff8     libucrt:lcidtoname_downlevel.obj
 0002:00006008       ??_C@_1O@IBBJHCH@?$AAk?$AAo?$AAk?$AA?9?$AAi?$AAn?$AA?$AA@ 0000000180056008     libucrt:lcidtoname_downlevel.obj
 0002:00006018       ??_C@_1M@DMHAEOGC@?$AAk?$AAo?$AA?9?$AAk?$AAr?$AA?$AA@ 0000000180056018     libucrt:lcidtoname_downlevel.obj
 0002:00006028       ??_C@_1M@HBAHBIGA@?$AAk?$AAy?$AA?9?$AAk?$AAg?$AA?$AA@ 0000000180056028     libucrt:lcidtoname_downlevel.obj
 0002:00006038       ??_C@_1M@KPMILCJG@?$AAl?$AAt?$AA?9?$AAl?$AAt?$AA?$AA@ 0000000180056038     libucrt:lcidtoname_downlevel.obj
 0002:00006048       ??_C@_1M@BDEKKCA@?$AAl?$AAv?$AA?9?$AAl?$AAv?$AA?$AA@ 0000000180056048     libucrt:lcidtoname_downlevel.obj
 0002:00006058       ??_C@_1M@ELCKCCJJ@?$AAm?$AAi?$AA?9?$AAn?$AAz?$AA?$AA@ 0000000180056058     libucrt:lcidtoname_downlevel.obj
 0002:00006068       ??_C@_1M@CBOOLAPA@?$AAm?$AAk?$AA?9?$AAm?$AAk?$AA?$AA@ 0000000180056068     libucrt:lcidtoname_downlevel.obj
 0002:00006078       ??_C@_1M@GPHNBJKN@?$AAm?$AAl?$AA?9?$AAi?$AAn?$AA?$AA@ 0000000180056078     libucrt:lcidtoname_downlevel.obj
 0002:00006088       ??_C@_1M@PABJILIG@?$AAm?$AAn?$AA?9?$AAm?$AAn?$AA?$AA@ 0000000180056088     libucrt:lcidtoname_downlevel.obj
 0002:00006098       ??_C@_1M@FGBKKIPG@?$AAm?$AAr?$AA?9?$AAi?$AAn?$AA?$AA@ 0000000180056098     libucrt:lcidtoname_downlevel.obj
 0002:000060a8       ??_C@_1M@NDBPDDAL@?$AAm?$AAs?$AA?9?$AAb?$AAn?$AA?$AA@ 00000001800560a8     libucrt:lcidtoname_downlevel.obj
 0002:000060b8       ??_C@_1M@OPIHOOPI@?$AAm?$AAs?$AA?9?$AAm?$AAy?$AA?$AA@ 00000001800560b8     libucrt:lcidtoname_downlevel.obj
 0002:000060c8       ??_C@_1M@PPDBCNFM@?$AAm?$AAt?$AA?9?$AAm?$AAt?$AA?$AA@ 00000001800560c8     libucrt:lcidtoname_downlevel.obj
 0002:000060d8       ??_C@_1M@KDJDKMDD@?$AAn?$AAb?$AA?9?$AAn?$AAo?$AA?$AA@ 00000001800560d8     libucrt:lcidtoname_downlevel.obj
 0002:000060e8       ??_C@_1M@KFCFLMJP@?$AAn?$AAl?$AA?9?$AAb?$AAe?$AA?$AA@ 00000001800560e8     libucrt:lcidtoname_downlevel.obj
 0002:000060f8       ??_C@_1M@KPOPDDGO@?$AAn?$AAl?$AA?9?$AAn?$AAl?$AA?$AA@ 00000001800560f8     libucrt:lcidtoname_downlevel.obj
 0002:00006108       ??_C@_1M@LJKPEMLN@?$AAn?$AAn?$AA?9?$AAn?$AAo?$AA?$AA@ 0000000180056108     libucrt:lcidtoname_downlevel.obj
 0002:00006118       ??_C@_1M@BDGHHBFL@?$AAn?$AAs?$AA?9?$AAz?$AAa?$AA?$AA@ 0000000180056118     libucrt:lcidtoname_downlevel.obj
 0002:00006128       ??_C@_1M@IDEHOAP@?$AAp?$AAa?$AA?9?$AAi?$AAn?$AA?$AA@ 0000000180056128     libucrt:lcidtoname_downlevel.obj
 0002:00006138       ??_C@_1M@HDBKGOGH@?$AAp?$AAl?$AA?9?$AAp?$AAl?$AA?$AA@ 0000000180056138     libucrt:lcidtoname_downlevel.obj
 0002:00006148       ??_C@_1M@LJLLCMEH@?$AAp?$AAt?$AA?9?$AAb?$AAr?$AA?$AA@ 0000000180056148     libucrt:lcidtoname_downlevel.obj
 0002:00006158       ??_C@_1M@NCMONAAL@?$AAp?$AAt?$AA?9?$AAp?$AAt?$AA?$AA@ 0000000180056158     libucrt:lcidtoname_downlevel.obj
 0002:00006168       ??_C@_1O@EAKMAJDN@?$AAq?$AAu?$AAz?$AA?9?$AAb?$AAo?$AA?$AA@ 0000000180056168     libucrt:lcidtoname_downlevel.obj
 0002:00006178       ??_C@_1O@BHHPIGDN@?$AAq?$AAu?$AAz?$AA?9?$AAe?$AAc?$AA?$AA@ 0000000180056178     libucrt:lcidtoname_downlevel.obj
 0002:00006188       ??_C@_1O@GBAPEKMJ@?$AAq?$AAu?$AAz?$AA?9?$AAp?$AAe?$AA?$AA@ 0000000180056188     libucrt:lcidtoname_downlevel.obj
 0002:00006198       ??_C@_1M@CLGLEFBO@?$AAr?$AAo?$AA?9?$AAr?$AAo?$AA?$AA@ 0000000180056198     libucrt:lcidtoname_downlevel.obj
 0002:000061a8       ??_C@_1M@CEEDODME@?$AAr?$AAu?$AA?9?$AAr?$AAu?$AA?$AA@ 00000001800561a8     libucrt:lcidtoname_downlevel.obj
 0002:000061b8       ??_C@_1M@HPKKKMPP@?$AAs?$AAa?$AA?9?$AAi?$AAn?$AA?$AA@ 00000001800561b8     libucrt:lcidtoname_downlevel.obj
 0002:000061c8       ??_C@_1M@BKMAIGOJ@?$AAs?$AAe?$AA?9?$AAf?$AAi?$AA?$AA@ 00000001800561c8     libucrt:lcidtoname_downlevel.obj
 0002:000061d8       ??_C@_1M@NDPIFLFI@?$AAs?$AAe?$AA?9?$AAn?$AAo?$AA?$AA@ 00000001800561d8     libucrt:lcidtoname_downlevel.obj
 0002:000061e8       ??_C@_1M@DANKKHJ@?$AAs?$AAe?$AA?9?$AAs?$AAe?$AA?$AA@ 00000001800561e8     libucrt:lcidtoname_downlevel.obj
 0002:000061f8       ??_C@_1M@PNBLONPJ@?$AAs?$AAk?$AA?9?$AAs?$AAk?$AA?$AA@ 00000001800561f8     libucrt:lcidtoname_downlevel.obj
 0002:00006208       ??_C@_1M@LFMODOAL@?$AAs?$AAl?$AA?9?$AAs?$AAi?$AA?$AA@ 0000000180056208     libucrt:lcidtoname_downlevel.obj
 0002:00006218       ??_C@_1O@DFKOMPG@?$AAs?$AAm?$AAa?$AA?9?$AAn?$AAo?$AA?$AA@ 0000000180056218     libucrt:lcidtoname_downlevel.obj
 0002:00006228       ??_C@_1O@NDKPBNNH@?$AAs?$AAm?$AAa?$AA?9?$AAs?$AAe?$AA?$AA@ 0000000180056228     libucrt:lcidtoname_downlevel.obj
 0002:00006238       ??_C@_1O@PLLKBHAB@?$AAs?$AAm?$AAj?$AA?9?$AAn?$AAo?$AA?$AA@ 0000000180056238     libucrt:lcidtoname_downlevel.obj
 0002:00006248       ??_C@_1O@CLEPOGCA@?$AAs?$AAm?$AAj?$AA?9?$AAs?$AAe?$AA?$AA@ 0000000180056248     libucrt:lcidtoname_downlevel.obj
 0002:00006258       ??_C@_1O@DLGJGKMK@?$AAs?$AAm?$AAn?$AA?9?$AAf?$AAi?$AA?$AA@ 0000000180056258     libucrt:lcidtoname_downlevel.obj
 0002:00006268       ??_C@_1O@OJDJGAJC@?$AAs?$AAm?$AAs?$AA?9?$AAf?$AAi?$AA?$AA@ 0000000180056268     libucrt:lcidtoname_downlevel.obj
 0002:00006278       ??_C@_1M@BOFOGHPB@?$AAs?$AAq?$AA?9?$AAa?$AAl?$AA?$AA@ 0000000180056278     libucrt:lcidtoname_downlevel.obj
 0002:00006288       ??_C@_1BG@LJBBIPGB@?$AAs?$AAr?$AA?9?$AAb?$AAa?$AA?9?$AAc?$AAy?$AAr?$AAl?$AA?$AA@ 0000000180056288     libucrt:lcidtoname_downlevel.obj
 0002:000062a0       ??_C@_1BG@JLBENFOE@?$AAs?$AAr?$AA?9?$AAb?$AAa?$AA?9?$AAl?$AAa?$AAt?$AAn?$AA?$AA@ 00000001800562a0     libucrt:lcidtoname_downlevel.obj
 0002:000062b8       ??_C@_1BG@KODPNHE@?$AAs?$AAr?$AA?9?$AAs?$AAp?$AA?9?$AAc?$AAy?$AAr?$AAl?$AA?$AA@ 00000001800562b8     libucrt:lcidtoname_downlevel.obj
 0002:000062d0       ??_C@_1BG@CIOGKHPB@?$AAs?$AAr?$AA?9?$AAs?$AAp?$AA?9?$AAl?$AAa?$AAt?$AAn?$AA?$AA@ 00000001800562d0     libucrt:lcidtoname_downlevel.obj
 0002:000062e8       ??_C@_1M@NGFJLMAC@?$AAs?$AAv?$AA?9?$AAf?$AAi?$AA?$AA@ 00000001800562e8     libucrt:lcidtoname_downlevel.obj
 0002:000062f8       ??_C@_1M@MPJEJAJC@?$AAs?$AAv?$AA?9?$AAs?$AAe?$AA?$AA@ 00000001800562f8     libucrt:lcidtoname_downlevel.obj
 0002:00006308       ??_C@_1M@MPNDHLFK@?$AAs?$AAw?$AA?9?$AAk?$AAe?$AA?$AA@ 0000000180056308     libucrt:lcidtoname_downlevel.obj
 0002:00006318       ??_C@_1O@KOHBJJI@?$AAs?$AAy?$AAr?$AA?9?$AAs?$AAy?$AA?$AA@ 0000000180056318     libucrt:lcidtoname_downlevel.obj
 0002:00006328       ??_C@_1M@LDCEFHA@?$AAt?$AAa?$AA?9?$AAi?$AAn?$AA?$AA@ 0000000180056328     libucrt:lcidtoname_downlevel.obj
 0002:00006338       ??_C@_1M@CNJOFAK@?$AAt?$AAe?$AA?9?$AAi?$AAn?$AA?$AA@ 0000000180056338     libucrt:lcidtoname_downlevel.obj
 0002:00006348       ??_C@_1M@GNAECACD@?$AAt?$AAh?$AA?9?$AAt?$AAh?$AA?$AA@ 0000000180056348     libucrt:lcidtoname_downlevel.obj
 0002:00006358       ??_C@_1M@CHBIHOJO@?$AAt?$AAn?$AA?9?$AAz?$AAa?$AA?$AA@ 0000000180056358     libucrt:lcidtoname_downlevel.obj
 0002:00006368       ??_C@_1M@GCCMIGPJ@?$AAt?$AAr?$AA?9?$AAt?$AAr?$AA?$AA@ 0000000180056368     libucrt:lcidtoname_downlevel.obj
 0002:00006378       ??_C@_1M@CELMCNBK@?$AAt?$AAt?$AA?9?$AAr?$AAu?$AA?$AA@ 0000000180056378     libucrt:lcidtoname_downlevel.obj
 0002:00006388       ??_C@_1M@KLMCELGA@?$AAu?$AAk?$AA?9?$AAu?$AAa?$AA?$AA@ 0000000180056388     libucrt:lcidtoname_downlevel.obj
 0002:00006398       ??_C@_1M@EPAJJAJF@?$AAu?$AAr?$AA?9?$AAp?$AAk?$AA?$AA@ 0000000180056398     libucrt:lcidtoname_downlevel.obj
 0002:000063a8       ??_C@_1BG@GEGPMCDJ@?$AAu?$AAz?$AA?9?$AAu?$AAz?$AA?9?$AAc?$AAy?$AAr?$AAl?$AA?$AA@ 00000001800563a8     libucrt:lcidtoname_downlevel.obj
 0002:000063c0       ??_C@_1BG@EGGKJILM@?$AAu?$AAz?$AA?9?$AAu?$AAz?$AA?9?$AAl?$AAa?$AAt?$AAn?$AA?$AA@ 00000001800563c0     libucrt:lcidtoname_downlevel.obj
 0002:000063d8       ??_C@_1M@GFOCLFF@?$AAv?$AAi?$AA?9?$AAv?$AAn?$AA?$AA@ 00000001800563d8     libucrt:lcidtoname_downlevel.obj
 0002:000063e8       ??_C@_1M@CPAMEDFI@?$AAx?$AAh?$AA?9?$AAz?$AAa?$AA?$AA@ 00000001800563e8     libucrt:lcidtoname_downlevel.obj
 0002:000063f8       ??_C@_1O@EBKIFIGN@?$AAz?$AAh?$AA?9?$AAc?$AAh?$AAs?$AA?$AA@ 00000001800563f8     libucrt:lcidtoname_downlevel.obj
 0002:00006408       ??_C@_1O@NMHPGANE@?$AAz?$AAh?$AA?9?$AAc?$AAh?$AAt?$AA?$AA@ 0000000180056408     libucrt:lcidtoname_downlevel.obj
 0002:00006418       ??_C@_1M@LPINJOMC@?$AAz?$AAh?$AA?9?$AAc?$AAn?$AA?$AA@ 0000000180056418     libucrt:lcidtoname_downlevel.obj
 0002:00006428       ??_C@_1M@OCJEJODD@?$AAz?$AAh?$AA?9?$AAh?$AAk?$AA?$AA@ 0000000180056428     libucrt:lcidtoname_downlevel.obj
 0002:00006438       ??_C@_1M@DNDLJINH@?$AAz?$AAh?$AA?9?$AAm?$AAo?$AA?$AA@ 0000000180056438     libucrt:lcidtoname_downlevel.obj
 0002:00006448       ??_C@_1M@MBFDNDND@?$AAz?$AAh?$AA?9?$AAs?$AAg?$AA?$AA@ 0000000180056448     libucrt:lcidtoname_downlevel.obj
 0002:00006458       ??_C@_1M@IMEPLEPE@?$AAz?$AAh?$AA?9?$AAt?$AAw?$AA?$AA@ 0000000180056458     libucrt:lcidtoname_downlevel.obj
 0002:00006468       ??_C@_1M@BBGHNHJP@?$AAz?$AAu?$AA?9?$AAz?$AAa?$AA?$AA@ 0000000180056468     libucrt:lcidtoname_downlevel.obj
 0002:00006480       __acrt_rg_language         0000000180056480     libucrt:get_qualified_locale.obj
 0002:00006890       __acrt_rg_language_count   0000000180056890     libucrt:get_qualified_locale.obj
 0002:000068a0       __acrt_rg_country          00000001800568a0     libucrt:get_qualified_locale.obj
 0002:00006a10       __acrt_rg_country_count    0000000180056a10     libucrt:get_qualified_locale.obj
 0002:00006a18       ??_C@_1BC@LLOKLNP@?$AAa?$AAm?$AAe?$AAr?$AAi?$AAc?$AAa?$AAn?$AA?$AA@ 0000000180056a18     libucrt:get_qualified_locale.obj
 0002:00006a30       ??_C@_1CC@HEIGCDGG@?$AAa?$AAm?$AAe?$AAr?$AAi?$AAc?$AAa?$AAn?$AA?5?$AAe?$AAn?$AAg?$AAl?$AAi?$AAs?$AAh?$AA?$AA@ 0000000180056a30     libucrt:get_qualified_locale.obj
 0002:00006a58       ??_C@_1CC@IHCNOMIN@?$AAa?$AAm?$AAe?$AAr?$AAi?$AAc?$AAa?$AAn?$AA?9?$AAe?$AAn?$AAg?$AAl?$AAi?$AAs?$AAh?$AA?$AA@ 0000000180056a58     libucrt:get_qualified_locale.obj
 0002:00006a80       ??_C@_1BG@GKAGPCGG@?$AAa?$AAu?$AAs?$AAt?$AAr?$AAa?$AAl?$AAi?$AAa?$AAn?$AA?$AA@ 0000000180056a80     libucrt:get_qualified_locale.obj
 0002:00006a98       ??_C@_1BA@GMENCENF@?$AAb?$AAe?$AAl?$AAg?$AAi?$AAa?$AAn?$AA?$AA@ 0000000180056a98     libucrt:get_qualified_locale.obj
 0002:00006aa8       ??_C@_1BC@PJMIIAAN@?$AAc?$AAa?$AAn?$AAa?$AAd?$AAi?$AAa?$AAn?$AA?$AA@ 0000000180056aa8     libucrt:get_qualified_locale.obj
 0002:00006ac0       ??_C@_17NOIMNFBF@?$AAc?$AAh?$AAh?$AA?$AA@ 0000000180056ac0     libucrt:get_qualified_locale.obj
 0002:00006ac8       ??_C@_17GGDALCHA@?$AAc?$AAh?$AAi?$AA?$AA@ 0000000180056ac8     libucrt:get_qualified_locale.obj
 0002:00006ad0       ??_C@_1BA@NPNJKIBL@?$AAc?$AAh?$AAi?$AAn?$AAe?$AAs?$AAe?$AA?$AA@ 0000000180056ad0     libucrt:get_qualified_locale.obj
 0002:00006ae0       ??_C@_1CC@DINBAMMJ@?$AAc?$AAh?$AAi?$AAn?$AAe?$AAs?$AAe?$AA?9?$AAh?$AAo?$AAn?$AAg?$AAk?$AAo?$AAn?$AAg?$AA?$AA@ 0000000180056ae0     libucrt:get_qualified_locale.obj
 0002:00006b08       ??_C@_1CG@IOBJPACO@?$AAc?$AAh?$AAi?$AAn?$AAe?$AAs?$AAe?$AA?9?$AAs?$AAi?$AAm?$AAp?$AAl?$AAi?$AAf?$AAi?$AAe?$AAd?$AA?$AA@ 0000000180056b08     libucrt:get_qualified_locale.obj
 0002:00006b30       ??_C@_1CE@GAJNDCKG@?$AAc?$AAh?$AAi?$AAn?$AAe?$AAs?$AAe?$AA?9?$AAs?$AAi?$AAn?$AAg?$AAa?$AAp?$AAo?$AAr?$AAe?$AA?$AA@ 0000000180056b30     libucrt:get_qualified_locale.obj
 0002:00006b58       ??_C@_1CI@PAJPIOOD@?$AAc?$AAh?$AAi?$AAn?$AAe?$AAs?$AAe?$AA?9?$AAt?$AAr?$AAa?$AAd?$AAi?$AAt?$AAi?$AAo?$AAn?$AAa?$AAl?$AA?$AA@ 0000000180056b58     libucrt:get_qualified_locale.obj
 0002:00006b80       ??_C@_1BM@NILJBMMD@?$AAd?$AAu?$AAt?$AAc?$AAh?$AA?9?$AAb?$AAe?$AAl?$AAg?$AAi?$AAa?$AAn?$AA?$AA@ 0000000180056b80     libucrt:get_qualified_locale.obj
 0002:00006ba0       ??_C@_1CC@OOJPJNEJ@?$AAe?$AAn?$AAg?$AAl?$AAi?$AAs?$AAh?$AA?9?$AAa?$AAm?$AAe?$AAr?$AAi?$AAc?$AAa?$AAn?$AA?$AA@ 0000000180056ba0     libucrt:get_qualified_locale.obj
 0002:00006bc8       ??_C@_1BI@IOLFEEM@?$AAe?$AAn?$AAg?$AAl?$AAi?$AAs?$AAh?$AA?9?$AAa?$AAu?$AAs?$AA?$AA@ 0000000180056bc8     libucrt:get_qualified_locale.obj
 0002:00006be0       ??_C@_1BO@HFFNLENJ@?$AAe?$AAn?$AAg?$AAl?$AAi?$AAs?$AAh?$AA?9?$AAb?$AAe?$AAl?$AAi?$AAz?$AAe?$AA?$AA@ 0000000180056be0     libucrt:get_qualified_locale.obj
 0002:00006c00       ??_C@_1BI@HAPKJMPO@?$AAe?$AAn?$AAg?$AAl?$AAi?$AAs?$AAh?$AA?9?$AAc?$AAa?$AAn?$AA?$AA@ 0000000180056c00     libucrt:get_qualified_locale.obj
 0002:00006c18       ??_C@_1CE@HLNDMIOJ@?$AAe?$AAn?$AAg?$AAl?$AAi?$AAs?$AAh?$AA?9?$AAc?$AAa?$AAr?$AAi?$AAb?$AAb?$AAe?$AAa?$AAn?$AA?$AA@ 0000000180056c18     libucrt:get_qualified_locale.obj
 0002:00006c40       ??_C@_1BI@LDHJHHAC@?$AAe?$AAn?$AAg?$AAl?$AAi?$AAs?$AAh?$AA?9?$AAi?$AAr?$AAe?$AA?$AA@ 0000000180056c40     libucrt:get_qualified_locale.obj
 0002:00006c58       ??_C@_1CA@NJMMCFOC@?$AAe?$AAn?$AAg?$AAl?$AAi?$AAs?$AAh?$AA?9?$AAj?$AAa?$AAm?$AAa?$AAi?$AAc?$AAa?$AA?$AA@ 0000000180056c58     libucrt:get_qualified_locale.obj
 0002:00006c78       ??_C@_1BG@BHJEBBGG@?$AAe?$AAn?$AAg?$AAl?$AAi?$AAs?$AAh?$AA?9?$AAn?$AAz?$AA?$AA@ 0000000180056c78     libucrt:get_qualified_locale.obj
 0002:00006c90       ??_C@_1CK@FGOEJJCO@?$AAe?$AAn?$AAg?$AAl?$AAi?$AAs?$AAh?$AA?9?$AAs?$AAo?$AAu?$AAt?$AAh?$AA?5?$AAa?$AAf?$AAr?$AAi?$AAc?$AAa?$AA?$AA@ 0000000180056c90     libucrt:get_qualified_locale.obj
 0002:00006cc0       ??_C@_1DE@PDBJPCJ@?$AAe?$AAn?$AAg?$AAl?$AAi?$AAs?$AAh?$AA?9?$AAt?$AAr?$AAi?$AAn?$AAi?$AAd?$AAa?$AAd?$AA?5?$AAy?$AA?5?$AAt?$AAo?$AAb?$AAa?$AAg?$AAo?$AA?$AA@ 0000000180056cc0     libucrt:get_qualified_locale.obj
 0002:00006cf8       ??_C@_1BG@JGCANDME@?$AAe?$AAn?$AAg?$AAl?$AAi?$AAs?$AAh?$AA?9?$AAu?$AAk?$AA?$AA@ 0000000180056cf8     libucrt:get_qualified_locale.obj
 0002:00006d10       ??_C@_1BG@DINKMLE@?$AAe?$AAn?$AAg?$AAl?$AAi?$AAs?$AAh?$AA?9?$AAu?$AAs?$AA?$AA@ 0000000180056d10     libucrt:get_qualified_locale.obj
 0002:00006d28       ??_C@_1BI@NMFDBHJE@?$AAe?$AAn?$AAg?$AAl?$AAi?$AAs?$AAh?$AA?9?$AAu?$AAs?$AAa?$AA?$AA@ 0000000180056d28     libucrt:get_qualified_locale.obj
 0002:00006d40       ??_C@_1BO@OIHKJKII@?$AAf?$AAr?$AAe?$AAn?$AAc?$AAh?$AA?9?$AAb?$AAe?$AAl?$AAg?$AAi?$AAa?$AAn?$AA?$AA@ 0000000180056d40     libucrt:get_qualified_locale.obj
 0002:00006d60       ??_C@_1CA@NKAELJKI@?$AAf?$AAr?$AAe?$AAn?$AAc?$AAh?$AA?9?$AAc?$AAa?$AAn?$AAa?$AAd?$AAi?$AAa?$AAn?$AA?$AA@ 0000000180056d60     libucrt:get_qualified_locale.obj
 0002:00006d80       ??_C@_1CE@MGKCNLGN@?$AAf?$AAr?$AAe?$AAn?$AAc?$AAh?$AA?9?$AAl?$AAu?$AAx?$AAe?$AAm?$AAb?$AAo?$AAu?$AAr?$AAg?$AA?$AA@ 0000000180056d80     libucrt:get_qualified_locale.obj
 0002:00006da8       ??_C@_1BK@CEGEAILM@?$AAf?$AAr?$AAe?$AAn?$AAc?$AAh?$AA?9?$AAs?$AAw?$AAi?$AAs?$AAs?$AA?$AA@ 0000000180056da8     libucrt:get_qualified_locale.obj
 0002:00006dc8       ??_C@_1CA@PAFKEOCC@?$AAg?$AAe?$AAr?$AAm?$AAa?$AAn?$AA?9?$AAa?$AAu?$AAs?$AAt?$AAr?$AAi?$AAa?$AAn?$AA?$AA@ 0000000180056dc8     libucrt:get_qualified_locale.obj
 0002:00006de8       ??_C@_1CI@HCFHGOFD@?$AAg?$AAe?$AAr?$AAm?$AAa?$AAn?$AA?9?$AAl?$AAi?$AAc?$AAh?$AAt?$AAe?$AAn?$AAs?$AAt?$AAe?$AAi?$AAn?$AA?$AA@ 0000000180056de8     libucrt:get_qualified_locale.obj
 0002:00006e10       ??_C@_1CE@FEDDNPDG@?$AAg?$AAe?$AAr?$AAm?$AAa?$AAn?$AA?9?$AAl?$AAu?$AAx?$AAe?$AAm?$AAb?$AAo?$AAu?$AAr?$AAg?$AA?$AA@ 0000000180056e10     libucrt:get_qualified_locale.obj
 0002:00006e38       ??_C@_1BK@LIMINNMN@?$AAg?$AAe?$AAr?$AAm?$AAa?$AAn?$AA?9?$AAs?$AAw?$AAi?$AAs?$AAs?$AA?$AA@ 0000000180056e38     libucrt:get_qualified_locale.obj
 0002:00006e58       ??_C@_1BM@LGMDBEPD@?$AAi?$AAr?$AAi?$AAs?$AAh?$AA?9?$AAe?$AAn?$AAg?$AAl?$AAi?$AAs?$AAh?$AA?$AA@ 0000000180056e58     libucrt:get_qualified_locale.obj
 0002:00006e78       ??_C@_1BM@NNCFBAEE@?$AAi?$AAt?$AAa?$AAl?$AAi?$AAa?$AAn?$AA?9?$AAs?$AAw?$AAi?$AAs?$AAs?$AA?$AA@ 0000000180056e78     libucrt:get_qualified_locale.obj
 0002:00006e98       ??_C@_1BE@FEDJNPIB@?$AAn?$AAo?$AAr?$AAw?$AAe?$AAg?$AAi?$AAa?$AAn?$AA?$AA@ 0000000180056e98     libucrt:get_qualified_locale.obj
 0002:00006eb0       ??_C@_1CC@CILKDEIE@?$AAn?$AAo?$AAr?$AAw?$AAe?$AAg?$AAi?$AAa?$AAn?$AA?9?$AAb?$AAo?$AAk?$AAm?$AAa?$AAl?$AA?$AA@ 0000000180056eb0     libucrt:get_qualified_locale.obj
 0002:00006ed8       ??_C@_1CE@DHMMHEPL@?$AAn?$AAo?$AAr?$AAw?$AAe?$AAg?$AAi?$AAa?$AAn?$AA?9?$AAn?$AAy?$AAn?$AAo?$AAr?$AAs?$AAk?$AA?$AA@ 0000000180056ed8     libucrt:get_qualified_locale.obj
 0002:00006f00       ??_C@_1CK@OPNMHECD@?$AAp?$AAo?$AAr?$AAt?$AAu?$AAg?$AAu?$AAe?$AAs?$AAe?$AA?9?$AAb?$AAr?$AAa?$AAz?$AAi?$AAl?$AAi?$AAa?$AAn?$AA?$AA@ 0000000180056f00     libucrt:get_qualified_locale.obj
 0002:00006f30       ??_C@_1CE@KEEHCDB@?$AAs?$AAp?$AAa?$AAn?$AAi?$AAs?$AAh?$AA?9?$AAa?$AAr?$AAg?$AAe?$AAn?$AAt?$AAi?$AAn?$AAa?$AA?$AA@ 0000000180056f30     libucrt:get_qualified_locale.obj
 0002:00006f58       ??_C@_1CA@GIAOLHJD@?$AAs?$AAp?$AAa?$AAn?$AAi?$AAs?$AAh?$AA?9?$AAb?$AAo?$AAl?$AAi?$AAv?$AAi?$AAa?$AA?$AA@ 0000000180056f58     libucrt:get_qualified_locale.obj
 0002:00006f78       ??_C@_1BM@OJNDFNPD@?$AAs?$AAp?$AAa?$AAn?$AAi?$AAs?$AAh?$AA?9?$AAc?$AAh?$AAi?$AAl?$AAe?$AA?$AA@ 0000000180056f78     libucrt:get_qualified_locale.obj
 0002:00006f98       ??_C@_1CC@OCOLPALL@?$AAs?$AAp?$AAa?$AAn?$AAi?$AAs?$AAh?$AA?9?$AAc?$AAo?$AAl?$AAo?$AAm?$AAb?$AAi?$AAa?$AA?$AA@ 0000000180056f98     libucrt:get_qualified_locale.obj
 0002:00006fc0       ??_C@_1CG@BPOFMKBB@?$AAs?$AAp?$AAa?$AAn?$AAi?$AAs?$AAh?$AA?9?$AAc?$AAo?$AAs?$AAt?$AAa?$AA?5?$AAr?$AAi?$AAc?$AAa?$AA?$AA@ 0000000180056fc0     libucrt:get_qualified_locale.obj
 0002:00006fe8       ??_C@_1DG@IGOBAPBB@?$AAs?$AAp?$AAa?$AAn?$AAi?$AAs?$AAh?$AA?9?$AAd?$AAo?$AAm?$AAi?$AAn?$AAi?$AAc?$AAa?$AAn?$AA?5?$AAr?$AAe?$AAp?$AAu?$AAb?$AAl?$AAi?$AAc?$AA?$AA@ 0000000180056fe8     libucrt:get_qualified_locale.obj
 0002:00007020       ??_C@_1CA@JHAPGEGI@?$AAs?$AAp?$AAa?$AAn?$AAi?$AAs?$AAh?$AA?9?$AAe?$AAc?$AAu?$AAa?$AAd?$AAo?$AAr?$AA?$AA@ 0000000180057020     libucrt:get_qualified_locale.obj
 0002:00007040       ??_C@_1CI@LAPALJPP@?$AAs?$AAp?$AAa?$AAn?$AAi?$AAs?$AAh?$AA?9?$AAe?$AAl?$AA?5?$AAs?$AAa?$AAl?$AAv?$AAa?$AAd?$AAo?$AAr?$AA?$AA@ 0000000180057040     libucrt:get_qualified_locale.obj
 0002:00007068       ??_C@_1CE@PDGBOFOM@?$AAs?$AAp?$AAa?$AAn?$AAi?$AAs?$AAh?$AA?9?$AAg?$AAu?$AAa?$AAt?$AAe?$AAm?$AAa?$AAl?$AAa?$AA?$AA@ 0000000180057068     libucrt:get_qualified_locale.obj
 0002:00007090       ??_C@_1CC@NBEBAODI@?$AAs?$AAp?$AAa?$AAn?$AAi?$AAs?$AAh?$AA?9?$AAh?$AAo?$AAn?$AAd?$AAu?$AAr?$AAa?$AAs?$AA?$AA@ 0000000180057090     libucrt:get_qualified_locale.obj
 0002:000070b8       ??_C@_1CA@LLKGHBMF@?$AAs?$AAp?$AAa?$AAn?$AAi?$AAs?$AAh?$AA?9?$AAm?$AAe?$AAx?$AAi?$AAc?$AAa?$AAn?$AA?$AA@ 00000001800570b8     libucrt:get_qualified_locale.obj
 0002:000070d8       ??_C@_1BO@LKNDOIGD@?$AAs?$AAp?$AAa?$AAn?$AAi?$AAs?$AAh?$AA?9?$AAm?$AAo?$AAd?$AAe?$AAr?$AAn?$AA?$AA@ 00000001800570d8     libucrt:get_qualified_locale.obj
 0002:000070f8       ??_C@_1CE@NMDMOEEB@?$AAs?$AAp?$AAa?$AAn?$AAi?$AAs?$AAh?$AA?9?$AAn?$AAi?$AAc?$AAa?$AAr?$AAa?$AAg?$AAu?$AAa?$AA?$AA@ 00000001800570f8     libucrt:get_qualified_locale.obj
 0002:00007120       ??_C@_1BO@LLCBEJGB@?$AAs?$AAp?$AAa?$AAn?$AAi?$AAs?$AAh?$AA?9?$AAp?$AAa?$AAn?$AAa?$AAm?$AAa?$AA?$AA@ 0000000180057120     libucrt:get_qualified_locale.obj
 0002:00007140       ??_C@_1CC@FKPGGIHO@?$AAs?$AAp?$AAa?$AAn?$AAi?$AAs?$AAh?$AA?9?$AAp?$AAa?$AAr?$AAa?$AAg?$AAu?$AAa?$AAy?$AA?$AA@ 0000000180057140     libucrt:get_qualified_locale.obj
 0002:00007168       ??_C@_1BK@CDEIHOOP@?$AAs?$AAp?$AAa?$AAn?$AAi?$AAs?$AAh?$AA?9?$AAp?$AAe?$AAr?$AAu?$AA?$AA@ 0000000180057168     libucrt:get_qualified_locale.obj
 0002:00007188       ??_C@_1CI@GAHAKKGP@?$AAs?$AAp?$AAa?$AAn?$AAi?$AAs?$AAh?$AA?9?$AAp?$AAu?$AAe?$AAr?$AAt?$AAo?$AA?5?$AAr?$AAi?$AAc?$AAo?$AA?$AA@ 0000000180057188     libucrt:get_qualified_locale.obj
 0002:000071b0       ??_C@_1CA@NKJBCAGP@?$AAs?$AAp?$AAa?$AAn?$AAi?$AAs?$AAh?$AA?9?$AAu?$AAr?$AAu?$AAg?$AAu?$AAa?$AAy?$AA?$AA@ 00000001800571b0     libucrt:get_qualified_locale.obj
 0002:000071d0       ??_C@_1CE@ODILCONM@?$AAs?$AAp?$AAa?$AAn?$AAi?$AAs?$AAh?$AA?9?$AAv?$AAe?$AAn?$AAe?$AAz?$AAu?$AAe?$AAl?$AAa?$AA?$AA@ 00000001800571d0     libucrt:get_qualified_locale.obj
 0002:000071f8       ??_C@_1CA@OBNMCGFO@?$AAs?$AAw?$AAe?$AAd?$AAi?$AAs?$AAh?$AA?9?$AAf?$AAi?$AAn?$AAl?$AAa?$AAn?$AAd?$AA?$AA@ 00000001800571f8     libucrt:get_qualified_locale.obj
 0002:00007218       ??_C@_1M@PIPDDPPI@?$AAs?$AAw?$AAi?$AAs?$AAs?$AA?$AA@ 0000000180057218     libucrt:get_qualified_locale.obj
 0002:00007224       ??_C@_15GMFIMNFM@?$AAu?$AAs?$AA?$AA@ 0000000180057224     libucrt:get_qualified_locale.obj
 0002:00007230       ??_C@_17HAEBFAGL@?$AAu?$AAs?$AAa?$AA?$AA@ 0000000180057230     libucrt:get_qualified_locale.obj
 0002:00007238       ??_C@_1BA@DPFJEPHB@?$AAa?$AAm?$AAe?$AAr?$AAi?$AAc?$AAa?$AA?$AA@ 0000000180057238     libucrt:get_qualified_locale.obj
 0002:00007248       ??_C@_1BA@ELOGGFK@?$AAb?$AAr?$AAi?$AAt?$AAa?$AAi?$AAn?$AA?$AA@ 0000000180057248     libucrt:get_qualified_locale.obj
 0002:00007258       ??_C@_1M@GHBGIGDA@?$AAc?$AAh?$AAi?$AAn?$AAa?$AA?$AA@ 0000000180057258     libucrt:get_qualified_locale.obj
 0002:00007268       ??_C@_1M@NCHEJOPO@?$AAc?$AAz?$AAe?$AAc?$AAh?$AA?$AA@ 0000000180057268     libucrt:get_qualified_locale.obj
 0002:00007278       ??_C@_1BA@BKPAPBLA@?$AAe?$AAn?$AAg?$AAl?$AAa?$AAn?$AAd?$AA?$AA@ 0000000180057278     libucrt:get_qualified_locale.obj
 0002:00007288       ??_C@_1BM@HKBCKIPC@?$AAg?$AAr?$AAe?$AAa?$AAt?$AA?5?$AAb?$AAr?$AAi?$AAt?$AAa?$AAi?$AAn?$AA?$AA@ 0000000180057288     libucrt:get_qualified_locale.obj
 0002:000072a8       ??_C@_1BA@PPCHPGJB@?$AAh?$AAo?$AAl?$AAl?$AAa?$AAn?$AAd?$AA?$AA@ 00000001800572a8     libucrt:get_qualified_locale.obj
 0002:000072b8       ??_C@_1BE@JBMPEGDG@?$AAh?$AAo?$AAn?$AAg?$AA?9?$AAk?$AAo?$AAn?$AAg?$AA?$AA@ 00000001800572b8     libucrt:get_qualified_locale.obj
 0002:000072d0       ??_C@_1BI@KOELBBPJ@?$AAn?$AAe?$AAw?$AA?9?$AAz?$AAe?$AAa?$AAl?$AAa?$AAn?$AAd?$AA?$AA@ 00000001800572d0     libucrt:get_qualified_locale.obj
 0002:000072e8       ??_C@_15HIEBHAIO@?$AAn?$AAz?$AA?$AA@ 00000001800572e8     libucrt:get_qualified_locale.obj
 0002:000072f0       ??_C@_1BC@CHBCPFPI@?$AAp?$AAr?$AA?5?$AAc?$AAh?$AAi?$AAn?$AAa?$AA?$AA@ 00000001800572f0     libucrt:get_qualified_locale.obj
 0002:00007308       ??_C@_1BC@JAOIIFKD@?$AAp?$AAr?$AA?9?$AAc?$AAh?$AAi?$AAn?$AAa?$AA?$AA@ 0000000180057308     libucrt:get_qualified_locale.obj
 0002:00007320       ??_C@_1BI@BEHPPHKC@?$AAp?$AAu?$AAe?$AAr?$AAt?$AAo?$AA?9?$AAr?$AAi?$AAc?$AAo?$AA?$AA@ 0000000180057320     libucrt:get_qualified_locale.obj
 0002:00007338       ??_C@_1O@PAEOFKDI@?$AAs?$AAl?$AAo?$AAv?$AAa?$AAk?$AA?$AA@ 0000000180057338     libucrt:get_qualified_locale.obj
 0002:00007348       ??_C@_1BK@FIHMCKAM@?$AAs?$AAo?$AAu?$AAt?$AAh?$AA?5?$AAa?$AAf?$AAr?$AAi?$AAc?$AAa?$AA?$AA@ 0000000180057348     libucrt:get_qualified_locale.obj
 0002:00007368       ??_C@_1BI@NAEOODKB@?$AAs?$AAo?$AAu?$AAt?$AAh?$AA?5?$AAk?$AAo?$AAr?$AAe?$AAa?$AA?$AA@ 0000000180057368     libucrt:get_qualified_locale.obj
 0002:00007380       ??_C@_1BK@FBDGGIFF@?$AAs?$AAo?$AAu?$AAt?$AAh?$AA?9?$AAa?$AAf?$AAr?$AAi?$AAc?$AAa?$AA?$AA@ 0000000180057380     libucrt:get_qualified_locale.obj
 0002:000073a0       ??_C@_1BI@GHLEJDPK@?$AAs?$AAo?$AAu?$AAt?$AAh?$AA?9?$AAk?$AAo?$AAr?$AAe?$AAa?$AA?$AA@ 00000001800573a0     libucrt:get_qualified_locale.obj
 0002:000073b8       ??_C@_1CE@PLHLOMJF@?$AAt?$AAr?$AAi?$AAn?$AAi?$AAd?$AAa?$AAd?$AA?5?$AA?$CG?$AA?5?$AAt?$AAo?$AAb?$AAa?$AAg?$AAo?$AA?$AA@ 00000001800573b8     libucrt:get_qualified_locale.obj
 0002:000073e0       ??_C@_1BO@MODIMHHI@?$AAu?$AAn?$AAi?$AAt?$AAe?$AAd?$AA?9?$AAk?$AAi?$AAn?$AAg?$AAd?$AAo?$AAm?$AA?$AA@ 00000001800573e0     libucrt:get_qualified_locale.obj
 0002:00007400       ??_C@_1BM@FFHJONBJ@?$AAu?$AAn?$AAi?$AAt?$AAe?$AAd?$AA?9?$AAs?$AAt?$AAa?$AAt?$AAe?$AAs?$AA?$AA@ 0000000180057400     libucrt:get_qualified_locale.obj
 0002:00007420       ??_C@_17DNCLJFIF@?$AAA?$AAC?$AAP?$AA?$AA@ 0000000180057420     libucrt:get_qualified_locale.obj
 0002:00007428       ??_C@_17CIKBIHLH@?$AAO?$AAC?$AAP?$AA?$AA@ 0000000180057428     libucrt:get_qualified_locale.obj
 0002:00007430       __rglangidNotDefault       0000000180057430     libucrt:getqloc_downlevel.obj
 0002:00007450       ?large_power_data@?1??multiply_by_power_of_ten@__crt_strtox@@YA_NAEAUbig_integer@2@I@Z@4QBIB 0000000180057450     libucrt:cfout.obj
 0002:00007d60       ?large_power_indices@?1??multiply_by_power_of_ten@__crt_strtox@@YA_NAEAUbig_integer@2@I@Z@4QBUunpack_index@?1??12@YA_N0I@Z@B 0000000180057d60     libucrt:cfout.obj
 0002:00007df8       ?small_powers_of_ten@?1??multiply_by_power_of_ten@__crt_strtox@@YA_NAEAUbig_integer@2@I@Z@4QBIB 0000000180057df8     libucrt:cfout.obj
 0002:00007e1c       ??_C@_01GBGANLPD@0?$AA@    0000000180057e1c     libucrt:cfout.obj
 0002:00007e20       ??_C@_05DNEBIAHO@1?$CDINF?$AA@ 0000000180057e20     libucrt:cfout.obj
 0002:00007e28       ??_C@_06IMKFLFPG@1?$CDQNAN?$AA@ 0000000180057e28     libucrt:cfout.obj
 0002:00007e30       ??_C@_06PGGFOGJG@1?$CDSNAN?$AA@ 0000000180057e30     libucrt:cfout.obj
 0002:00007e38       ??_C@_05PHHOCPM@1?$CDIND?$AA@ 0000000180057e38     libucrt:cfout.obj
 0002:00008090       ??_C@_1BA@BALFACEM@?$AAC?$AAO?$AAN?$AAO?$AAU?$AAT?$AA$?$AA?$AA@ 0000000180058090     libucrt:initcon.obj
 0002:000080a0       __log10_256_lead           00000001800580a0     libucrt:log10_256_lead_tail_table.obj
 0002:000088b0       __log10_256_tail           00000001800588b0     libucrt:log10_256_lead_tail_table.obj
 0002:000090c0       __log_F_inv_qword          00000001800590c0     libucrt:log_f_inv_qword_table.obj
 0002:000098d0       ??_C@_05HGHHAHAP@log10?$AA@ 00000001800598d0     libucrt:log_special.obj
 0002:000098f0       ??_C@_1BK@DBDEIDLH@?$AAK?$AAE?$AAR?$AAN?$AAE?$AAL?$AA3?$AA2?$AA?4?$AAD?$AAL?$AAL@ 00000001800598f0     DelayImp:delayhlp.obj
 0002:00009910       ??_C@_0BI@OMNLIJDB@AcquireSRWLockExclusive@ 0000000180059910     DelayImp:delayhlp.obj
 0002:00009928       ??_C@_0BI@HMIEPCNJ@ReleaseSRWLockExclusive@ 0000000180059928     DelayImp:delayhlp.obj
 0002:00009940       __pfnDliFailureHook2       0000000180059940     DelayImp:delayhk1.obj
 0002:00009950       _load_config_used          0000000180059950     LIBCMT:loadcfg.obj
 0002:00009a50       ??_C@_1CO@EGNPJLKI@?$AAp?$AAe?$AAr?$AAs?$AAi?$AAs?$AAt?$AAe?$AAn?$AAt?$AA?$CI?$AA?$CJ?$AA?4?$AAI?$AAs@ 0000000180059a50     main.obj
 0002:00009a80       ??_C@_1DA@FBGAEOIO@?$AA?$CB?$AAp?$AAe?$AAr?$AAs?$AAi?$AAs?$AAt?$AAe?$AAn?$AAt?$AA?$CI?$AA?$CJ?$AA?4?$AAI@ 0000000180059a80     main.obj
 0002:00009ab0       ??_C@_1CO@JCKLEFMA@?$AA?$CB?$AAp?$AAe?$AAr?$AAs?$AAi?$AAs?$AAt?$AAe?$AAn?$AAt?$AA?$CI?$AA?$CJ?$AA?4?$AAI@ 0000000180059ab0     main.obj
 0002:00009ae0       ??_C@_1BE@GMLLOIPJ@?$AAr?$AAe?$AAf?$AAs?$AA_?$AA?5?$AA?$DO?$AA?5?$AA0@ 0000000180059ae0     main.obj
 0002:00009af8       ??_C@_1CC@GBFLAAPF@?$AAw?$AAr?$AAa?$AAp?$AA?9?$AA?$DO?$AAr?$AAe?$AAf?$AAs?$AA_?$AA?5?$AA?$DN?$AA?$DN?$AA?5@ 0000000180059af8     main.obj
 0002:00009b20       ??_C@_0BA@JFNIOLAK@string?5too?5long@ 0000000180059b20     main.obj
 0002:00009b30       ??_C@_1HE@EDOFPLIK@?$AAc?$AA?3?$AA?2?$AAu?$AAs?$AAe?$AAr?$AAs?$AA?2?$AAe?$AAl?$AAa?$AAd?$AA?2?$AAd@ 0000000180059b30     main.obj
 0002:00009ba8       ??_C@_1BO@OPFMAOCA@?$AAl?$AAe?$AAn?$AA?5?$AA?$DM?$AA?$DN?$AA?5?$AAI?$AAN?$AAT?$AA_?$AAM?$AAA?$AAX@ 0000000180059ba8     main.obj
 0002:00009bc8       ??_C@_1BE@CKDJNAPC@?$AAs?$AAt?$AAr?$AA_?$AA?5?$AA?$CB?$AA?$DN?$AA?5?$AA0@ 0000000180059bc8     main.obj
 0002:00009be0       ??_C@_1IM@NDKBIIFD@?$AAc?$AA?3?$AA?2?$AAu?$AAs?$AAe?$AAr?$AAs?$AA?2?$AAe?$AAl?$AAa?$AAd?$AA?2?$AAd@ 0000000180059be0     main.obj
 0002:00009c70       ??_C@_1EC@MGGLMBLC@?$AAo?$AAb?$AAj?$AAe?$AAc?$AAt?$AA?9?$AA?$DO?$AAI?$AAn?$AAt?$AAe?$AAr?$AAn?$AAa@ 0000000180059c70     main.obj
 0002:00009cb4       ??_C@_03JBJLGPFL@end@      0000000180059cb4     main.obj
 0002:00009cb8       ??_C@_0BL@CABBGDHE@Bad?5argument?3?5missing?5mode@ 0000000180059cb8     main.obj
 0002:00009ce0       ??_C@_0FB@BFEGJNKC@Cannot?5call?5SetSpellcheckerType@ 0000000180059ce0     main.obj
 0002:00009d40       ??_C@_0EK@HCEDCLFI@Bad?5argument?3?5SetSpellcheckerTy@ 0000000180059d40     main.obj
 0002:00009d90       ??_C@_0O@BNJLDCBM@Bad?5arguments@ 0000000180059d90     main.obj
 0002:00009da0       ??_C@_01LFCBOECM@?4@       0000000180059da0     main.obj
 0002:00009da8       ??_C@_0N@OFCOFIJG@Bad?5argument@ 0000000180059da8     main.obj
 0002:00009db8       ??_C@_05FAGFPHJG@start@    0000000180059db8     main.obj
 0002:00009dc0       ??_C@_0N@OPCKJLBB@Spellchecker@ 0000000180059dc0     main.obj
 0002:00009dd0       ??_C@_0BE@OAHFANIP@setSpellcheckerType@ 0000000180059dd0     main.obj
 0002:00009de8       ??_C@_0O@GBNBDHMO@setDictionary@ 0000000180059de8     main.obj
 0002:00009df8       ??_C@_0BJ@DHBHFHDL@getAvailableDictionaries@ 0000000180059df8     main.obj
 0002:00009e18       ??_C@_0BN@KAEFFPMB@getCorrectionsForMisspelling@ 0000000180059e18     main.obj
 0002:00009e38       ??_C@_0N@CHAIBDKD@isMisspelled@ 0000000180059e38     main.obj
 0002:00009e48       ??_C@_0O@OJOGEIJA@checkSpelling@ 0000000180059e48     main.obj
 0002:00009e58       ??_C@_0BD@MNKNMBPL@checkSpellingAsync@ 0000000180059e58     main.obj
 0002:00009e6c       ??_C@_03BDGOHNNK@add@      0000000180059e6c     main.obj
 0002:00009e70       ??_C@_06LEMKAMD@remove@    0000000180059e70     main.obj
 0002:00009e80       ??_C@_0EJ@NKMGNCNO@c?3?2users?2elad?2desktop?2spellchec@ 0000000180059e80     main.obj
 0002:00009ed0       ??_C@_0N@FMFENAOE@spellchecker@ 0000000180059ed0     main.obj
 0002:00009ee0       ??_C@_0BD@OLBABOEK@vector?$DMT?$DO?5too?5long@ 0000000180059ee0     main.obj
 0002:00009ef8       ??_C@_1CE@LNAGEONJ@?$AA?$CB?$AAo?$AAb?$AAj?$AAe?$AAc?$AAt?$AA?4?$AAI?$AAs?$AAE?$AAm?$AAp?$AAt?$AAy@ 0000000180059ef8     main.obj
 0002:00009f20       ??_7ObjectWrap@Nan@@6B@    0000000180059f20     main.obj
 0002:00009f50       ??_C@_0BC@EBHDFLHM@nan?3Callback?3Call@ 0000000180059f50     worker.obj
 0002:00009f68       ??_C@_0BA@KEENCHNI@nan?3AsyncWorker@ 0000000180059f68     worker.obj
 0002:00009f78       ??_7AsyncWorker@Nan@@6B@   0000000180059f78     worker.obj
 0002:00009fa8       ??_7CheckSpellingWorker@@6B@ 0000000180059fa8     worker.obj
 0002:00009fd8       ??_C@_04LLELHCFC@?4aff@    0000000180059fd8     spellchecker_hunspell.obj
 0002:00009fe0       ??_C@_01KMDKNFGN@?1@       0000000180059fe0     spellchecker_hunspell.obj
 0002:00009fe4       ??_C@_04PKLODBBI@?4dic@    0000000180059fe4     spellchecker_hunspell.obj
 0002:00009fec       ??_C@_01KDCPPGHE@r@        0000000180059fec     spellchecker_hunspell.obj
 0002:00009ff0       ??_C@_05EGJIMALK@UTF?98@   0000000180059ff0     spellchecker_hunspell.obj
 0002:00009ff8       ??_C@_04OOMJJNCF@UTF8@     0000000180059ff8     spellchecker_hunspell.obj
 0002:0000a000       ??_C@_0M@KCNGOEI@en_US?4UTF?98@ 000000018005a000     spellchecker_hunspell.obj
 0002:0000a010       ??_7HunspellSpellchecker@spellchecker@@6B@ 000000018005a010     spellchecker_hunspell.obj
 0002:0000a058       ??_7SpellcheckerImplementation@spellchecker@@6B@ 000000018005a058     spellchecker_hunspell.obj
 0002:0000a0a0       ??_7SpellcheckerThreadView@spellchecker@@6B@ 000000018005a0a0     spellchecker_hunspell.obj
 0002:0000a0b0       ??_C@_0BN@BAIIPJJD@SPELLCHECKER_PREFER_HUNSPELL@ 000000018005a0b0     spellchecker_win.obj
 0002:0000a0d0       CLSID_SpellCheckerFactory  000000018005a0d0     spellchecker_win.obj
 0002:0000a0e0       IID_ISpellCheckerFactory   000000018005a0e0     spellchecker_win.obj
 0002:0000a0f0       _GUID_b6fd0b71_e2bc_4653_8d05_f197e412770b 000000018005a0f0     spellchecker_win.obj
 0002:0000a100       ??_7WindowsSpellcheckerThreadView@spellchecker@@6B@ 000000018005a100     spellchecker_win.obj
 0002:0000a110       ??_7WindowsSpellchecker@spellchecker@@6B@ 000000018005a110     spellchecker_win.obj
 0002:0000a158       ??_C@_04LHHHFLPP@utf8@     000000018005a158     transcoder_win.obj
 0002:0000a160       ??_C@_08OFHNNBGI@iso88591@ 000000018005a160     transcoder_win.obj
 0002:0000a170       ??_C@_08MOFAICKL@iso88592@ 000000018005a170     transcoder_win.obj
 0002:0000a180       ??_C@_08NHELLDOK@iso88593@ 000000018005a180     transcoder_win.obj
 0002:0000a190       ??_C@_08JIAKCFCN@iso88594@ 000000018005a190     transcoder_win.obj
 0002:0000a1a0       ??_C@_08IBBBBEGM@iso88595@ 000000018005a1a0     transcoder_win.obj
 0002:0000a1b0       ??_C@_08KKDMEHKP@iso88596@ 000000018005a1b0     transcoder_win.obj
 0002:0000a1c0       ??_C@_08LDCHHGOO@iso88597@ 000000018005a1c0     transcoder_win.obj
 0002:0000a1d0       ??_C@_08DELPGKCB@iso88598@ 000000018005a1d0     transcoder_win.obj
 0002:0000a1e0       ??_C@_08CNKEFLGA@iso88599@ 000000018005a1e0     transcoder_win.obj
 0002:0000a1f0       ??_C@_09JMMKKCEI@iso885910@ 000000018005a1f0     transcoder_win.obj
 0002:0000a200       ??_C@_09IFNBJDAJ@iso885911@ 000000018005a200     transcoder_win.obj
 0002:0000a20c       ??_C@_06MGNELAEE@tis620@   000000018005a20c     transcoder_win.obj
 0002:0000a218       ??_C@_09LHOHPBIL@iso885913@ 000000018005a218     transcoder_win.obj
 0002:0000a228       ??_C@_09PIKGGHEM@iso885914@ 000000018005a228     transcoder_win.obj
 0002:0000a238       ??_C@_09OBLNFGAN@iso885915@ 000000018005a238     transcoder_win.obj
 0002:0000a244       ??_C@_05EGDDFGIM@koi8r@    000000018005a244     transcoder_win.obj
 0002:0000a24c       ??_C@_05JHCMAEL@koi8u@     000000018005a24c     transcoder_win.obj
 0002:0000a254       ??_C@_06PBHBPKON@cp1251@   000000018005a254     transcoder_win.obj
 0002:0000a260       ??_C@_0BA@LEHMGPJL@microsoftcp1251@ 000000018005a260     transcoder_win.obj
 0002:0000a270       ??_C@_08ELJBNHOF@xisciide@ 000000018005a270     transcoder_win.obj
 0002:0000a280       ??_C@_08FBMCKANJ@xisciias@ 000000018005a280     transcoder_win.obj
 0002:0000a290       ??_C@_0P@FHAPPGNI@isciidevangari@ 000000018005a290     transcoder_win.obj
 0002:0000a2a0       ??_C@_08HCOMDCCD@iojs?4exe@ 000000018005a2a0     win_delay_load_hook.obj
 0002:0000a2b0       ??_C@_08JDDNMFDB@node?4exe@ 000000018005a2b0     win_delay_load_hook.obj
 0002:0000a2c0       __pfnDliNotifyHook2        000000018005a2c0     win_delay_load_hook.obj
 0002:0000a2cc       ??_C@_02FCBLNKNB@ss@       000000018005a2cc     hunspell:hunspell.obj
 0002:0000a2d0       ??_C@_07IPEFHOCE@?$DM?$DPxml?$DP?$DO@ 000000018005a2d0     hunspell:hunspell.obj
 0002:0000a2d8       ??_C@_02PPNCLIJD@SS@       000000018005a2d8     hunspell:hunspell.obj
 0002:0000a2dc       ??_C@_02GFIOJICB@?C?$JP@   000000018005a2dc     hunspell:hunspell.obj
 0002:0000a2e0       ??_C@_01JOAMLHOP@?9@       000000018005a2e0     hunspell:hunspell.obj
 0002:0000a2e4       ??_C@_01LIIGDENA@?$NP@     000000018005a2e4     hunspell:hunspell.obj
 0002:0000a2e8       ??_C@_03NJDIPPBB@pa?3@     000000018005a2e8     hunspell:hunspell.obj
 0002:0000a2ec       ??_C@_03LGOGDKEL@?5?$HM?5@ 000000018005a2ec     hunspell:hunspell.obj
 0002:0000a2f0       ??_C@_03BJOBEIMH@ds?3@     000000018005a2f0     hunspell:hunspell.obj
 0002:0000a2f4       ??_C@_03OLILJABK@is?3@     000000018005a2f4     hunspell:hunspell.obj
 0002:0000a2f8       ??_C@_06DLEJEKHG@?$CFc?$CFs?$CFs@ 000000018005a2f8     hunspell:hunspell.obj
 0002:0000a300       ??_C@_04CDPLFOEF@?$CFc?$CFs@ 000000018005a300     hunspell:hunspell.obj
 0002:0000a308       ??_C@_03NGGJJJLI@sp?3@     000000018005a308     hunspell:hunspell.obj
 0002:0000a30c       ??_C@_03NBGADBGE@st?3@     000000018005a30c     hunspell:hunspell.obj
 0002:0000a310       ??_C@_01EEMJAFIK@?6@       000000018005a310     hunspell:hunspell.obj
 0002:0000a314       ??_C@_01MIFGBAGJ@?$CL@     000000018005a314     hunspell:hunspell.obj
 0002:0000a318       ??_C@_02CIKBGMLM@?9e@      000000018005a318     hunspell:hunspell.obj
 0002:0000a31c       ??_C@_01MNNFJEPP@?$DM@     000000018005a31c     hunspell:hunspell.obj
 0002:0000a320       ??_C@_04GJOGLFEJ@?$CGlt?$DL@ 000000018005a320     hunspell:hunspell.obj
 0002:0000a328       ??_C@_01HNPIGOCE@?$CG@     000000018005a328     hunspell:hunspell.obj
 0002:0000a32c       ??_C@_05JKJFEODM@?$CGamp?$DL@ 000000018005a32c     hunspell:hunspell.obj
 0002:0000a334       ??_C@_06FJGMCHMM@?$DMquery@ 000000018005a334     hunspell:hunspell.obj
 0002:0000a33c       ??_C@_05EDNGFAJN@?$DMword@ 000000018005a33c     hunspell:hunspell.obj
 0002:0000a348       ??_C@_07JFKEGMMK@analyze@  000000018005a348     hunspell:hunspell.obj
 0002:0000a350       ??_C@_05GFIHHCNM@type?$DN@ 000000018005a350     hunspell:hunspell.obj
 0002:0000a358       ??_C@_06CDMPAACN@?$DMcode?$DO@ 000000018005a358     hunspell:hunspell.obj
 0002:0000a360       ??_C@_03GMJGNNJA@?$DMa?$DO@ 000000018005a360     hunspell:hunspell.obj
 0002:0000a364       ??_C@_01CLKCMJKC@?5@       000000018005a364     hunspell:hunspell.obj
 0002:0000a368       ??_C@_01GPOEFGEJ@?7@       000000018005a368     hunspell:hunspell.obj
 0002:0000a36c       ??_C@_04KNINFIGH@?$DM?1a?$DO@ 000000018005a36c     hunspell:hunspell.obj
 0002:0000a378       ??_C@_07FPNFMAFL@?$DM?1code?$DO@ 000000018005a378     hunspell:hunspell.obj
 0002:0000a380       ??_C@_04PNLNLJBH@stem@     000000018005a380     hunspell:hunspell.obj
 0002:0000a388       ??_C@_08HBLFHMBF@generate@ 000000018005a388     hunspell:hunspell.obj
 0002:0000a394       ??_C@_05NHAGIPFM@?$DMcode@ 000000018005a394     hunspell:hunspell.obj
 0002:0000a3a0       ??_C@_0FD@EEPPDLMD@UTF?98?5encoding?5error?4?5Unexpecte@ 000000018005a3a0     hunspell:csutil.obj
 0002:0000a400       ??_C@_0FA@FLAHNLML@UTF?98?5encoding?5error?4?5Missing?5c@ 000000018005a400     hunspell:csutil.obj
 0002:0000a450       ??_C@_0DB@DOKALABA@This?5UTF?98?5encoding?5can?8t?5conve@ 000000018005a450     hunspell:csutil.obj
 0002:0000a484       ??_C@_02HAOIJKIC@?$CFc@    000000018005a484     hunspell:csutil.obj
 0002:0000a488       ??_C@_04HDOCAJNK@?$CFs?$CFs@ 000000018005a488     hunspell:csutil.obj
 0002:0000a490       ??_C@_03EJPIBPFI@ts?3@     000000018005a490     hunspell:csutil.obj
 0002:0000a498       ??_C@_0L@IICJILGI@tis6202533@ 000000018005a498     hunspell:csutil.obj
 0002:0000a4a8       ??_C@_0BA@DHKGCHKD@isciidevanagari@ 000000018005a4a8     hunspell:csutil.obj
 0002:0000a4b8       ??_C@_0DC@GDCCJAFK@error?3?5unknown?5encoding?5?$CFs?3?5usi@ 000000018005a4b8     hunspell:csutil.obj
 0002:0000a4ec       ??_C@_02FEKCJMIO@ar@       000000018005a4ec     hunspell:csutil.obj
 0002:0000a4f0       ??_C@_02JMHLBGIG@az@       000000018005a4f0     hunspell:csutil.obj
 0002:0000a4f4       ??_C@_05JMJFDHBA@az_AZ@    000000018005a4f4     hunspell:csutil.obj
 0002:0000a4fc       ??_C@_02GBFBMEMD@bg@       000000018005a4fc     hunspell:csutil.obj
 0002:0000a500       ??_C@_02DGMJAJHC@ca@       000000018005a500     hunspell:csutil.obj
 0002:0000a504       ??_C@_02EODNHJKB@cs@       000000018005a504     hunspell:csutil.obj
 0002:0000a508       ??_C@_02DDIGBPPH@da@       000000018005a508     hunspell:csutil.obj
 0002:0000a50c       ??_C@_02FHOKNKPD@de@       000000018005a50c     hunspell:csutil.obj
 0002:0000a510       ??_C@_02IHOKALIN@el@       000000018005a510     hunspell:csutil.obj
 0002:0000a514       ??_C@_02LFNMGJAP@en@       000000018005a514     hunspell:csutil.obj
 0002:0000a518       ??_C@_02EKLAAFBD@es@       000000018005a518     hunspell:csutil.obj
 0002:0000a51c       ??_C@_02BMOKKCJF@eu@       000000018005a51c     hunspell:csutil.obj
 0002:0000a520       ??_C@_02IEGONPOD@gl@       000000018005a520     hunspell:csutil.obj
 0002:0000a524       ??_C@_02FBONIKAL@fr@       000000018005a524     hunspell:csutil.obj
 0002:0000a528       ??_C@_02FLHDKHAB@hr@       000000018005a528     hunspell:csutil.obj
 0002:0000a52c       ??_C@_02BEDCDBMG@hu@       000000018005a52c     hunspell:csutil.obj
 0002:0000a530       ??_C@_05LBIDNGEJ@hu_HU@    000000018005a530     hunspell:csutil.obj
 0002:0000a538       ??_C@_02MOLGKLA@it@        000000018005a538     hunspell:csutil.obj
 0002:0000a53c       ??_C@_02DNJFEOEP@la@       000000018005a53c     hunspell:csutil.obj
 0002:0000a540       ??_C@_02DIBGMKNJ@lv@       000000018005a540     hunspell:csutil.obj
 0002:0000a544       ??_C@_02ILLPOEGM@nl@       000000018005a544     hunspell:csutil.obj
 0002:0000a548       ??_C@_02JNAHGKBG@pl@       000000018005a548     hunspell:csutil.obj
 0002:0000a54c       ??_C@_02BPBMPCEP@pt@       000000018005a54c     hunspell:csutil.obj
 0002:0000a550       ??_C@_02CPGMCOJE@sv@       000000018005a550     hunspell:csutil.obj
 0002:0000a554       ??_C@_02EOEPPNBF@tr@       000000018005a554     hunspell:csutil.obj
 0002:0000a558       ??_C@_05CNMKAEGK@tr_TR@    000000018005a558     hunspell:csutil.obj
 0002:0000a560       ??_C@_02FIDBHGA@ru@        000000018005a560     hunspell:csutil.obj
 0002:0000a564       ??_C@_02NEINDODK@uk@       000000018005a564     hunspell:csutil.obj
 0002:0000a568       ??_C@_03NGOJMEJO@ph?3@     000000018005a568     hunspell:hashmgr.obj
 0002:0000a56c       ??_C@_03PKPBNCAL@?o?$LL?$LP@ 000000018005a56c     hunspell:hashmgr.obj
 0002:0000a570       ??_C@_06LHGEHABH@?$CINULL?$CJ@ 000000018005a570     hunspell:hashmgr.obj
 0002:0000a578       ??_C@_02DPKJAMEF@?$CFd@    000000018005a578     hunspell:hashmgr.obj
 0002:0000a580       ??_C@_0DC@GBGBFMCI@Error?5?9?5could?5not?5open?5affix?5de@ 000000018005a580     hunspell:hashmgr.obj
 0002:0000a5b4       ??_C@_04PBMMHMLL@FLAG@     000000018005a5b4     hunspell:hashmgr.obj
 0002:0000a5bc       ??_C@_04GOKPGOLB@long@     000000018005a5bc     hunspell:hashmgr.obj
 0002:0000a5c4       ??_C@_03IHCLBPIC@num@      000000018005a5c4     hunspell:hashmgr.obj
 0002:0000a5c8       ??_C@_0O@IOKILCIH@FORBIDDENWORD@ 000000018005a5c8     hunspell:hashmgr.obj
 0002:0000a5d8       ??_C@_03KPIFFHNE@SET@      000000018005a5d8     hunspell:hashmgr.obj
 0002:0000a5dc       ??_C@_04ECEKPLPK@LANG@     000000018005a5dc     hunspell:hashmgr.obj
 0002:0000a5e4       ??_C@_06GHNPMFCC@IGNORE@   000000018005a5e4     hunspell:hashmgr.obj
 0002:0000a5ec       ??_C@_02NHMFCJJJ@AF@       000000018005a5ec     hunspell:hashmgr.obj
 0002:0000a5f0       ??_C@_02DEDBPAFC@AM@       000000018005a5f0     hunspell:hashmgr.obj
 0002:0000a5f8       ??_C@_0BA@FLADCNFC@COMPLEXPREFIXES@ 000000018005a5f8     hunspell:hashmgr.obj
 0002:0000a608       ??_C@_03BHGKGIB@SFX@       000000018005a608     hunspell:hashmgr.obj
 0002:0000a60c       ??_C@_03BDMDAJGP@PFX@      000000018005a60c     hunspell:hashmgr.obj
 0002:0000a610       ??_C@_09KEDHCKDI@ISO8859?91@ 000000018005a610     hunspell:hashmgr.obj
 0002:0000a61c       ??_C@_01IDAFKMJL@_@        000000018005a61c     hunspell:replist.obj
 0002:0000a61e       ??_C@_00CNPNBAHC@@         000000018005a61e     hunspell:suggestmgr.obj
 0002:0000a620       ??_C@_03DJEFFMLI@al?3@     000000018005a620     hunspell:suggestmgr.obj
 0002:0000a628       ??_C@_0BN@NNBJIGA@Failure?5loading?5aff?5file?5?$CFs?6@ 000000018005a628     hunspell:affixmgr.obj
 0002:0000a648       ??_C@_0DB@PNJHIABK@error?3?5could?5not?5open?5affix?5des@ 000000018005a648     hunspell:affixmgr.obj
 0002:0000a67c       ??_C@_03IPIGFGOJ@KEY@      000000018005a67c     hunspell:affixmgr.obj
 0002:0000a680       ??_C@_03JOJFKENF@TRY@      000000018005a680     hunspell:affixmgr.obj
 0002:0000a688       ??_C@_0N@ECPCLNEK@COMPOUNDFLAG@ 000000018005a688     hunspell:affixmgr.obj
 0002:0000a698       ??_C@_0O@EBMFGKAJ@COMPOUNDBEGIN@ 000000018005a698     hunspell:affixmgr.obj
 0002:0000a6a8       ??_C@_0P@MDFHAAHP@COMPOUNDMIDDLE@ 000000018005a6a8     hunspell:affixmgr.obj
 0002:0000a6b8       ??_C@_0M@MENLHNNP@COMPOUNDEND@ 000000018005a6b8     hunspell:affixmgr.obj
 0002:0000a6c8       ??_C@_0BA@FGIKNKBH@COMPOUNDWORDMAX@ 000000018005a6c8     hunspell:affixmgr.obj
 0002:0000a6d8       ??_C@_0N@KOFGEPHO@COMPOUNDROOT@ 000000018005a6d8     hunspell:affixmgr.obj
 0002:0000a6e8       ??_C@_0BD@CJKDCLAB@COMPOUNDPERMITFLAG@ 000000018005a6e8     hunspell:affixmgr.obj
 0002:0000a700       ??_C@_0BD@KCDEKFHH@COMPOUNDFORBIDFLAG@ 000000018005a700     hunspell:affixmgr.obj
 0002:0000a718       ??_C@_0BB@DNNBNILN@CHECKCOMPOUNDDUP@ 000000018005a718     hunspell:affixmgr.obj
 0002:0000a730       ??_C@_0BB@FEIFHDIO@CHECKCOMPOUNDREP@ 000000018005a730     hunspell:affixmgr.obj
 0002:0000a748       ??_C@_0BE@FNBLFJOI@CHECKCOMPOUNDTRIPLE@ 000000018005a748     hunspell:affixmgr.obj
 0002:0000a760       ??_C@_0BB@NOKHNNAJ@SIMPLIFIEDTRIPLE@ 000000018005a760     hunspell:affixmgr.obj
 0002:0000a778       ??_C@_0BC@FHPOAHCI@CHECKCOMPOUNDCASE@ 000000018005a778     hunspell:affixmgr.obj
 0002:0000a790       ??_C@_09NDAAEAEC@NOSUGGEST@ 000000018005a790     hunspell:affixmgr.obj
 0002:0000a7a0       ??_C@_0P@CLEDNPFG@NONGRAMSUGGEST@ 000000018005a7a0     hunspell:affixmgr.obj
 0002:0000a7b0       ??_C@_0O@EDHKHHJK@LEMMA_PRESENT@ 000000018005a7b0     hunspell:affixmgr.obj
 0002:0000a7c0       ??_C@_09DGFPGGGH@CIRCUMFIX@ 000000018005a7c0     hunspell:affixmgr.obj
 0002:0000a7d0       ??_C@_0P@GBHPFHDD@ONLYINCOMPOUND@ 000000018005a7d0     hunspell:affixmgr.obj
 0002:0000a7e0       ??_C@_0L@FNNJHKCI@PSEUDOROOT@ 000000018005a7e0     hunspell:affixmgr.obj
 0002:0000a7f0       ??_C@_09HJNLGJOD@NEEDAFFIX@ 000000018005a7f0     hunspell:affixmgr.obj
 0002:0000a800       ??_C@_0M@POMPKLDP@COMPOUNDMIN@ 000000018005a800     hunspell:affixmgr.obj
 0002:0000a810       ??_C@_0BB@POGLPBEA@COMPOUNDSYLLABLE@ 000000018005a810     hunspell:affixmgr.obj
 0002:0000a828       ??_C@_0M@PKFNAMOA@SYLLABLENUM@ 000000018005a828     hunspell:affixmgr.obj
 0002:0000a838       ??_C@_08OACGLEJC@CHECKNUM@ 000000018005a838     hunspell:affixmgr.obj
 0002:0000a848       ??_C@_09NNJIMDOE@WORDCHARS@ 000000018005a848     hunspell:affixmgr.obj
 0002:0000a854       ??_C@_03HDFFPFLF@REP@      000000018005a854     hunspell:affixmgr.obj
 0002:0000a858       ??_C@_05CMKLDFBC@ICONV@    000000018005a858     hunspell:affixmgr.obj
 0002:0000a860       ??_C@_05PKPCNGAP@OCONV@    000000018005a860     hunspell:affixmgr.obj
 0002:0000a868       ??_C@_05BOENBGMC@PHONE@    000000018005a868     hunspell:affixmgr.obj
 0002:0000a870       ??_C@_0BF@DMKDNGML@CHECKCOMPOUNDPATTERN@ 000000018005a870     hunspell:affixmgr.obj
 0002:0000a888       ??_C@_0N@MAGNGFMM@COMPOUNDRULE@ 000000018005a888     hunspell:affixmgr.obj
 0002:0000a898       ??_C@_03HMCGBKKA@MAP@      000000018005a898     hunspell:affixmgr.obj
 0002:0000a89c       ??_C@_05IAGBLAKG@BREAK@    000000018005a89c     hunspell:affixmgr.obj
 0002:0000a8a8       ??_C@_07NCHCCDCP@VERSION@  000000018005a8a8     hunspell:affixmgr.obj
 0002:0000a8b0       ??_C@_0N@HIILJKBG@MAXNGRAMSUGS@ 000000018005a8b0     hunspell:affixmgr.obj
 0002:0000a8c0       ??_C@_0M@DBPGOAFP@ONLYMAXDIFF@ 000000018005a8c0     hunspell:affixmgr.obj
 0002:0000a8d0       ??_C@_07LDLPPDDC@MAXDIFF@  000000018005a8d0     hunspell:affixmgr.obj
 0002:0000a8d8       ??_C@_0L@EGHLCOJB@MAXCPDSUGS@ 000000018005a8d8     hunspell:affixmgr.obj
 0002:0000a8e8       ??_C@_0M@GHCELONK@NOSPLITSUGS@ 000000018005a8e8     hunspell:affixmgr.obj
 0002:0000a8f8       ??_C@_09KJPABDJI@FULLSTRIP@ 000000018005a8f8     hunspell:affixmgr.obj
 0002:0000a908       ??_C@_0N@MNBEHADM@SUGSWITHDOTS@ 000000018005a908     hunspell:affixmgr.obj
 0002:0000a918       ??_C@_08OBPONOED@KEEPCASE@ 000000018005a918     hunspell:affixmgr.obj
 0002:0000a928       ??_C@_0L@KLPNJIJO@FORCEUCASE@ 000000018005a928     hunspell:affixmgr.obj
 0002:0000a934       ??_C@_04JBIELMDE@WARN@     000000018005a934     hunspell:affixmgr.obj
 0002:0000a940       ??_C@_0L@BPCLKBPE@FORBIDWARN@ 000000018005a940     hunspell:affixmgr.obj
 0002:0000a950       ??_C@_0M@GEACDDMH@SUBSTANDARD@ 000000018005a950     hunspell:affixmgr.obj
 0002:0000a960       ??_C@_0M@EMKMGEHL@CHECKSHARPS@ 000000018005a960     hunspell:affixmgr.obj
 0002:0000a96c       ??_C@_02EGLGHPLI@?$FO?9@   000000018005a96c     hunspell:affixmgr.obj
 0002:0000a970       ??_C@_02MBMDBCPI@?9$@      000000018005a970     hunspell:affixmgr.obj
 0002:0000a974       ??_C@_03KEJCGEAB@fl?3@     000000018005a974     hunspell:affixmgr.obj
 0002:0000a978       ??_C@_08NFPIODIJ@?$CFc?$CFs?$CFs?$CFs@ 000000018005a978     hunspell:affixmgr.obj
 0002:0000a988       ??_C@_0BN@DPANBNIL@qwertyuiop?$HMasdfghjkl?$HMzxcvbnm@ 000000018005a988     hunspell:affixmgr.obj
 0002:0000a9a8       ??_C@_0L@HLLGMIBA@aeiouAEIOU@ 000000018005a9a8     hunspell:affixmgr.obj
 0002:0000a9b8       ??_C@_0CF@OAPHLBEI@error?3?5line?5?$CFd?3?5affix?5?$CFs?5is?5cor@ 000000018005a9b8     hunspell:affixmgr.obj
 0002:0000a9e0       ??_C@_01GBGANLPD@0@        000000018005a9e0     hunspell:affixmgr.obj
 0002:0000a9e8       ??_C@_0CD@MHBOHPNC@error?3?5bad?5affix?5flag?5alias?3?5?$CC?$CF@ 000000018005a9e8     hunspell:affixmgr.obj
 0002:0000aa10       ??_C@_0CM@HCAAOIMI@error?3?5line?5?$CFd?3?5missing?5?$FN?5in?5co@ 000000018005aa10     hunspell:affixmgr.obj
 0002:0000aa40       ??_C@_0CN@JOKFNJDA@error?3?5line?3?5?$CFd?3?5missing?5?$FN?5in?5c@ 000000018005aa40     hunspell:affixmgr.obj
 0002:0000aa70       ??_C@_03NECPDAK@?4hz@      000000018005aa70     hunspell:filemgr.obj
 0002:0000aa78       ??_C@_0BI@CKHBECJD@error?3?5?$CFs?3?5cannot?5open?6@ 000000018005aa78     hunspell:filemgr.obj
 0002:0000aa90       ??_C@_05LBKEJHLH@?$CI?9?$DM?$FO$@ 000000018005aa90     hunspell:phonet.obj
 0002:0000aa98       ??_C@_02ECKEFFIN@?$FO?$FO@ 000000018005aa98     hunspell:phonet.obj
 0002:0000aa9c       ??_C@_02JDPG@rb@           000000018005aa9c     hunspell:hunzip.obj
 0002:0000aaa0       ??_C@_03KGAJCEHK@hz0@      000000018005aaa0     hunspell:hunzip.obj
 0002:0000aaa4       ??_C@_03LPBCBFDL@hz1@      000000018005aaa4     hunspell:hunzip.obj
 0002:0000aaa8       ??_C@_0BP@DAEACJGO@error?3?5?$CFs?3?5not?5in?5hzip?5format?6@ 000000018005aaa8     hunspell:hunzip.obj
 0002:0000aac8       ??_C@_0CE@NCPPEKPN@error?3?5?$CFs?3?5missing?5or?5bad?5passw@ 000000018005aac8     hunspell:hunzip.obj
 0002:0000aaf0       ??_C@_0BL@FJFIEOJK@error?3?5?$CFs?3?5missing?5memory?6@ 000000018005aaf0     hunspell:hunzip.obj
 0002:0000ab10       __real@3ff0000000000000    000000018005ab10     hunspell:suggestmgr.obj
 0002:0000ab18       __real@4014000000000000    000000018005ab18     hunspell:suggestmgr.obj
 0002:0000ab20       __real@4024000000000000    000000018005ab20     hunspell:suggestmgr.obj
 0002:0000ab28       __real@bff0000000000000    000000018005ab28     worker.obj
 0002:0000ab30       __xmm@00000000000000070000000000000000 000000018005ab30     spellchecker_win.obj
 0002:0000ab40       __xmm@000000000000000f0000000000000000 000000018005ab40     spellchecker_win.obj
 0002:0000ab50       __xmm@00000003000000020000000100000000 000000018005ab50     hunspell:suggestmgr.obj
 0002:0000ab60       __xmm@ffffff9cffffff9cffffff9cffffff9c 000000018005ab60     hunspell:suggestmgr.obj
 0002:0000abe0       ??_R4exception@std@@6B@    000000018005abe0     libcpmt:xthrow.obj
 0002:0000ac08       ??_R3exception@std@@8      000000018005ac08     libcpmt:xthrow.obj
 0002:0000ac20       ??_R2exception@std@@8      000000018005ac20     libcpmt:xthrow.obj
 0002:0000ac30       ??_R1A@?0A@EA@exception@std@@8 000000018005ac30     libcpmt:xthrow.obj
 0002:0000ac58       ??_R4bad_alloc@std@@6B@    000000018005ac58     libcpmt:xthrow.obj
 0002:0000ac80       ??_R3bad_alloc@std@@8      000000018005ac80     libcpmt:xthrow.obj
 0002:0000ac98       ??_R2bad_alloc@std@@8      000000018005ac98     libcpmt:xthrow.obj
 0002:0000acb0       ??_R1A@?0A@EA@bad_alloc@std@@8 000000018005acb0     libcpmt:xthrow.obj
 0002:0000acd8       ??_R4logic_error@std@@6B@  000000018005acd8     libcpmt:xthrow.obj
 0002:0000ad00       ??_R3logic_error@std@@8    000000018005ad00     libcpmt:xthrow.obj
 0002:0000ad18       ??_R2logic_error@std@@8    000000018005ad18     libcpmt:xthrow.obj
 0002:0000ad30       ??_R1A@?0A@EA@logic_error@std@@8 000000018005ad30     libcpmt:xthrow.obj
 0002:0000ad58       ??_R4length_error@std@@6B@ 000000018005ad58     libcpmt:xthrow.obj
 0002:0000ad80       ??_R3length_error@std@@8   000000018005ad80     libcpmt:xthrow.obj
 0002:0000ad98       ??_R2length_error@std@@8   000000018005ad98     libcpmt:xthrow.obj
 0002:0000adb8       ??_R1A@?0A@EA@length_error@std@@8 000000018005adb8     libcpmt:xthrow.obj
 0002:0000ade0       ??_R4type_info@@6B@        000000018005ade0     LIBCMT:std_type_info_static.obj
 0002:0000ae08       ??_R3type_info@@8          000000018005ae08     LIBCMT:std_type_info_static.obj
 0002:0000ae20       ??_R2type_info@@8          000000018005ae20     LIBCMT:std_type_info_static.obj
 0002:0000ae30       ??_R1A@?0A@EA@type_info@@8 000000018005ae30     LIBCMT:std_type_info_static.obj
 0002:0000ae58       ??_R4bad_array_new_length@std@@6B@ 000000018005ae58     LIBCMT:throw_bad_alloc.obj
 0002:0000ae80       ??_R3bad_array_new_length@std@@8 000000018005ae80     LIBCMT:throw_bad_alloc.obj
 0002:0000ae98       ??_R2bad_array_new_length@std@@8 000000018005ae98     LIBCMT:throw_bad_alloc.obj
 0002:0000aeb8       ??_R1A@?0A@EA@bad_array_new_length@std@@8 000000018005aeb8     LIBCMT:throw_bad_alloc.obj
 0002:0000aee0       ??_R4bad_exception@std@@6B@ 000000018005aee0     libvcruntime:frame.obj
 0002:0000af08       ??_R3bad_exception@std@@8  000000018005af08     libvcruntime:frame.obj
 0002:0000af20       ??_R2bad_exception@std@@8  000000018005af20     libvcruntime:frame.obj
 0002:0000af38       ??_R1A@?0A@EA@bad_exception@std@@8 000000018005af38     libvcruntime:frame.obj
 0002:0000b328       __rtc_iaa                  000000018005b328     LIBCMT:initsect.obj
 0002:0000b330       __rtc_izz                  000000018005b330     LIBCMT:initsect.obj
 0002:0000b338       __rtc_taa                  000000018005b338     LIBCMT:initsect.obj
 0002:0000b340       __rtc_tzz                  000000018005b340     LIBCMT:initsect.obj
 0002:0000ec88       _TI2?AVbad_alloc@std@@     000000018005ec88     libcpmt:xthrow.obj
 0002:0000eca8       _CTA2?AVbad_alloc@std@@    000000018005eca8     libcpmt:xthrow.obj
 0002:0000ecc0       _CT??_R0?AVbad_alloc@std@@@8??0bad_alloc@std@@QEAA@AEBV01@@Z24 000000018005ecc0     libcpmt:xthrow.obj
 0002:0000ece8       _CT??_R0?AVexception@std@@@8??0exception@std@@QEAA@AEBV01@@Z24 000000018005ece8     libcpmt:xthrow.obj
 0002:0000ed10       _CT??_R0?AVlogic_error@std@@@8??0logic_error@std@@QEAA@AEBV01@@Z24 000000018005ed10     libcpmt:xthrow.obj
 0002:0000ed38       _TI3?AVlength_error@std@@  000000018005ed38     libcpmt:xthrow.obj
 0002:0000ed58       _CTA3?AVlength_error@std@@ 000000018005ed58     libcpmt:xthrow.obj
 0002:0000ed78       _CT??_R0?AVlength_error@std@@@8??0length_error@std@@QEAA@AEBV01@@Z24 000000018005ed78     libcpmt:xthrow.obj
 0002:0000eda0       _TI3?AVbad_array_new_length@std@@ 000000018005eda0     LIBCMT:throw_bad_alloc.obj
 0002:0000edc0       _CTA3?AVbad_array_new_length@std@@ 000000018005edc0     LIBCMT:throw_bad_alloc.obj
 0002:0000ede0       _CT??_R0?AVbad_array_new_length@std@@@8??0bad_array_new_length@std@@QEAA@AEBV01@@Z24 000000018005ede0     LIBCMT:throw_bad_alloc.obj
 0002:0000ee08       _TI2?AVbad_exception@std@@ 000000018005ee08     libvcruntime:frame.obj
 0002:0000ee28       _CTA2?AVbad_exception@std@@ 000000018005ee28     libvcruntime:frame.obj
 0002:0000ee40       _CT??_R0?AVbad_exception@std@@@8??0bad_exception@std@@QEAA@AEBV01@@Z24 000000018005ee40     libvcruntime:frame.obj
 0002:0000ee64       __DELAY_IMPORT_DESCRIPTOR_node_exe 000000018005ee64     node:node.exe
 0002:0000ee84       __NULL_DELAY_IMPORT_DESCRIPTOR 000000018005ee84     node:node.exe
 0002:0000f070       \177node_NULL_THUNK_DATA_DLN 000000018005f070     node:node.exe
 0002:0000ff68       \177node_NULL_THUNK_DATA_DLB 000000018005ff68     node:node.exe
 0002:0001018c       __IMPORT_DESCRIPTOR_KERNEL32 000000018006018c     kernel32:KERNEL32.dll
 0002:000101a0       __IMPORT_DESCRIPTOR_ole32  00000001800601a0     ole32:ole32.dll
 0002:000101b4       __NULL_IMPORT_DESCRIPTOR   00000001800601b4     kernel32:KERNEL32.dll
 0003:00000000       __security_cookie_complement 0000000180061000     LIBCMT:gs_cookie.obj
 0003:00000008       __security_cookie          0000000180061008     LIBCMT:gs_cookie.obj
 0003:00000010       __scrt_native_dllmain_reason 0000000180061010     LIBCMT:utility.obj
 0003:00000018       __isa_available            0000000180061018     LIBCMT:cpu_disp.obj
 0003:0000001c       __isa_enabled              000000018006101c     LIBCMT:cpu_disp.obj
 0003:00000020       __memcpy_nt_iters          0000000180061020     LIBCMT:cpu_disp.obj
 0003:00000040       _iob                       0000000180061040     libucrt:_file.obj
 0003:00000148       __abort_behavior           0000000180061148     libucrt:abort.obj
 0003:00000160       __globallocalestatus       0000000180061160     libucrt:glstatus.obj
 0003:00000164       __mb_cur_max               0000000180061164     libucrt:nlsdata.obj
 0003:00000170       __acrt_initial_locale_data 0000000180061170     libucrt:nlsdata.obj
 0003:000002c8       __acrt_initial_locale_pointers 00000001800612c8     libucrt:nlsdata.obj
 0003:000002d8       __acrt_wide_c_locale_string 00000001800612d8     libucrt:nlsdata.obj
 0003:000002e0       __badioinfo                00000001800612e0     libucrt:ioinit.obj
 0003:00000328       _pctype                    0000000180061328     libucrt:ctype.obj
 0003:00000330       _pwctype                   0000000180061330     libucrt:ctype.obj
 0003:00000340       _lookuptrailbytes          0000000180061340     libucrt:read.obj
 0003:00000750       __acrt_initial_multibyte_data 0000000180061750     libucrt:mbctype.obj
 0003:00000980       __acrt_lconv_c             0000000180061980     libucrt:localeconv.obj
 0003:00000a18       __acrt_lconv               0000000180061a18     libucrt:localeconv.obj
 0003:00000a20       __acrt_lconv_static_decimal 0000000180061a20     libucrt:localeconv.obj
 0003:00000a24       __acrt_lconv_static_W_decimal 0000000180061a24     libucrt:localeconv.obj
 0003:00000a50       _fltused                   0000000180061a50     LIBCMT:fltused.obj
 0003:000210d0       ??_R0?AVbad_alloc@std@@@8  00000001800820d0     libcpmt:xthrow.obj
 0003:000210f8       ??_R0?AVexception@std@@@8  00000001800820f8     libcpmt:xthrow.obj
 0003:00021120       ??_R0?AVlogic_error@std@@@8 0000000180082120     libcpmt:xthrow.obj
 0003:00021148       ??_R0?AVlength_error@std@@@8 0000000180082148     libcpmt:xthrow.obj
 0003:00021170       ??_R0?AVtype_info@@@8      0000000180082170     LIBCMT:std_type_info_static.obj
 0003:00021190       ??_R0?AVbad_array_new_length@std@@@8 0000000180082190     LIBCMT:throw_bad_alloc.obj
 0003:000211c0       ??_R0?AVbad_exception@std@@@8 00000001800821c0     libvcruntime:frame.obj
 0003:000211e8       __imp_uv_queue_work        00000001800821e8     node:node.exe
 0003:000211f0       __imp_uv_mutex_destroy     00000001800821f0     node:node.exe
 0003:000211f8       __imp_?Value@External@v8@@QEBAPEAXXZ 00000001800821f8     node:node.exe
 0003:00021200       __imp_?New@External@v8@@SA?AV?$Local@VExternal@v8@@@2@PEAVIsolate@2@PEAX@Z 0000000180082200     node:node.exe
 0003:00021208       __imp_?NewFromUnsigned@Integer@v8@@SA?AV?$Local@VInteger@v8@@@2@PEAVIsolate@2@I@Z 0000000180082208     node:node.exe
 0003:00021210       __imp_?New@Signature@v8@@SA?AV?$Local@VSignature@v8@@@2@PEAVIsolate@2@V?$Local@VFunctionTemplate@v8@@@2@@Z 0000000180082210     node:node.exe
 0003:00021218       __imp_?ThrowException@Isolate@v8@@QEAA?AV?$Local@VValue@v8@@@2@V32@@Z 0000000180082218     node:node.exe
 0003:00021220       __imp_?GetCurrentContext@Isolate@v8@@QEAA?AV?$Local@VContext@v8@@@2@XZ 0000000180082220     node:node.exe
 0003:00021228       __imp_?GetCurrent@Isolate@v8@@SAPEAV12@XZ 0000000180082228     node:node.exe
 0003:00021230       __imp_?CreateHandle@HandleScope@v8@@KAPEAPEAVObject@internal@2@PEAVIsolate@42@PEAV342@@Z 0000000180082230     node:node.exe
 0003:00021238       __imp_?CreateHandle@HandleScope@v8@@CAPEAPEAVObject@internal@2@PEAVHeapObject@42@PEAV342@@Z 0000000180082238     node:node.exe
 0003:00021240       __imp_??1HandleScope@v8@@QEAA@XZ 0000000180082240     node:node.exe
 0003:00021248       __imp_??0HandleScope@v8@@QEAA@PEAVIsolate@1@@Z 0000000180082248     node:node.exe
 0003:00021250       __imp_?Set@Template@v8@@QEAAXV?$Local@VName@v8@@@2@V?$Local@VData@v8@@@2@W4PropertyAttribute@2@@Z 0000000180082250     node:node.exe
 0003:00021258       __imp_?Error@Exception@v8@@SA?AV?$Local@VValue@v8@@@2@V?$Local@VString@v8@@@2@@Z 0000000180082258     node:node.exe
 0003:00021260       __imp_?New@Array@v8@@SA?AV?$Local@VArray@v8@@@2@PEAVIsolate@2@H@Z 0000000180082260     node:node.exe
 0003:00021268       __imp_?SetClassName@FunctionTemplate@v8@@QEAAXV?$Local@VString@v8@@@2@@Z 0000000180082268     node:node.exe
 0003:00021270       __imp_?PrototypeTemplate@FunctionTemplate@v8@@QEAA?AV?$Local@VObjectTemplate@v8@@@2@XZ 0000000180082270     node:node.exe
 0003:00021278       __imp_?InstanceTemplate@FunctionTemplate@v8@@QEAA?AV?$Local@VObjectTemplate@v8@@@2@XZ 0000000180082278     node:node.exe
 0003:00021280       __imp_?GetFunction@FunctionTemplate@v8@@QEAA?AV?$MaybeLocal@VFunction@v8@@@2@V?$Local@VContext@v8@@@2@@Z 0000000180082280     node:node.exe
 0003:00021288       __imp_?New@FunctionTemplate@v8@@SA?AV?$Local@VFunctionTemplate@v8@@@2@PEAVIsolate@2@P6AXAEBV?$FunctionCallbackInfo@VValue@v8@@@2@@ZV?$Local@VValue@v8@@@2@V?$Local@VSignature@v8@@@2@HW4ConstructorBehavior@2@W4SideEffectType@2@@Z 0000000180082288     node:node.exe
 0003:00021290       __imp_?ToLocalEmpty@V8@v8@@CAXXZ 0000000180082290     node:node.exe
 0003:00021298       __imp_?FromJustIsNothing@V8@v8@@CAXXZ 0000000180082298     node:node.exe
 0003:000212a0       __imp_?ClearWeak@V8@v8@@CAPEAXPEAPEAVObject@internal@2@@Z 00000001800822a0     node:node.exe
 0003:000212a8       __imp_?MakeWeak@V8@v8@@CAXPEAPEAVObject@internal@2@PEAXP6AXAEBV?$WeakCallbackInfo@X@2@@ZW4WeakCallbackType@2@@Z 00000001800822a8     node:node.exe
 0003:000212b0       __imp_?DisposeGlobal@V8@v8@@CAXPEAPEAVObject@internal@2@@Z 00000001800822b0     node:node.exe
 0003:000212b8       __imp_?GlobalizeReference@V8@v8@@CAPEAPEAVObject@internal@2@PEAVIsolate@42@PEAPEAV342@@Z 00000001800822b8     node:node.exe
 0003:000212c0       __imp_?Int32Value@Value@v8@@QEBA?AV?$Maybe@H@2@V?$Local@VContext@v8@@@2@@Z 00000001800822c0     node:node.exe
 0003:000212c8       __imp_?ToInteger@Value@v8@@QEBA?AV?$MaybeLocal@VInteger@v8@@@2@V?$Local@VContext@v8@@@2@@Z 00000001800822c8     node:node.exe
 0003:000212d0       __imp_?ToString@Value@v8@@QEBA?AV?$MaybeLocal@VString@v8@@@2@V?$Local@VContext@v8@@@2@@Z 00000001800822d0     node:node.exe
 0003:000212d8       __imp_?Escape@EscapableHandleScope@v8@@AEAAPEAPEAVObject@internal@2@PEAPEAV342@@Z 00000001800822d8     node:node.exe
 0003:000212e0       __imp_??0EscapableHandleScope@v8@@QEAA@PEAVIsolate@1@@Z 00000001800822e0     node:node.exe
 0003:000212e8       __imp_?NewFromUtf8@String@v8@@SA?AV?$MaybeLocal@VString@v8@@@2@PEAVIsolate@2@PEBDW4NewStringType@2@H@Z 00000001800822e8     node:node.exe
 0003:000212f0       __imp_?WriteUtf8@String@v8@@QEBAHPEADHPEAHH@Z 00000001800822f0     node:node.exe
 0003:000212f8       __imp_?Write@String@v8@@QEBAHPEAGHHH@Z 00000001800822f8     node:node.exe
 0003:00021300       __imp_?Length@String@v8@@QEBAHXZ 0000000180082300     node:node.exe
 0003:00021308       __imp_?SlowGetAlignedPointerFromInternalField@Object@v8@@AEAAPEAXH@Z 0000000180082308     node:node.exe
 0003:00021310       __imp_?SlowGetInternalField@Object@v8@@AEAA?AV?$Local@VValue@v8@@@2@H@Z 0000000180082310     node:node.exe
 0003:00021318       __imp_?New@Object@v8@@SA?AV?$Local@VObject@v8@@@2@PEAVIsolate@2@@Z 0000000180082318     node:node.exe
 0003:00021320       __imp_?GetIsolate@Object@v8@@QEAAPEAVIsolate@2@XZ 0000000180082320     node:node.exe
 0003:00021328       __imp_?SetAlignedPointerInInternalField@Object@v8@@QEAAXHPEAX@Z 0000000180082328     node:node.exe
 0003:00021330       __imp_?SetInternalField@Object@v8@@QEAAXHV?$Local@VValue@v8@@@2@@Z 0000000180082330     node:node.exe
 0003:00021338       __imp_?InternalFieldCount@Object@v8@@QEAAHXZ 0000000180082338     node:node.exe
 0003:00021340       __imp_?Set@Object@v8@@QEAA_NV?$Local@VValue@v8@@@2@0@Z 0000000180082340     node:node.exe
 0003:00021348       __imp_?Set@Object@v8@@QEAA_NIV?$Local@VValue@v8@@@2@@Z 0000000180082348     node:node.exe
 0003:00021350       __imp_?SetInternalFieldCount@ObjectTemplate@v8@@QEAAXH@Z 0000000180082350     node:node.exe
 0003:00021358       __imp_?NewInstance@ObjectTemplate@v8@@QEAA?AV?$MaybeLocal@VObject@v8@@@2@V?$Local@VContext@v8@@@2@@Z 0000000180082358     node:node.exe
 0003:00021360       __imp_?New@ObjectTemplate@v8@@SA?AV?$Local@VObjectTemplate@v8@@@2@PEAVIsolate@2@V?$Local@VFunctionTemplate@v8@@@2@@Z 0000000180082360     node:node.exe
 0003:00021368       __imp_node_module_register 0000000180082368     node:node.exe
 0003:00021370       __imp_?GetCurrentEventLoop@node@@YAPEAUuv_loop_s@@PEAVIsolate@v8@@@Z 0000000180082370     node:node.exe
 0003:00021378       __imp_?Global@Context@v8@@QEAA?AV?$Local@VObject@v8@@@2@XZ 0000000180082378     node:node.exe
 0003:00021380       __imp_?EmitAsyncDestroy@node@@YAXPEAVIsolate@v8@@Uasync_context@1@@Z 0000000180082380     node:node.exe
 0003:00021388       __imp_?MakeCallback@node@@YA?AV?$MaybeLocal@VValue@v8@@@v8@@PEAVIsolate@3@V?$Local@VObject@v8@@@3@V?$Local@VFunction@v8@@@3@HPEAV?$Local@VValue@v8@@@3@Uasync_context@1@@Z 0000000180082388     node:node.exe
 0003:00021390       __imp_?EmitAsyncInit@node@@YA?AUasync_context@1@PEAVIsolate@v8@@V?$Local@VObject@v8@@@4@V?$Local@VString@v8@@@4@N@Z 0000000180082390     node:node.exe
 0003:00021398       __imp_uv_mutex_unlock      0000000180082398     node:node.exe
 0003:000213a0       __imp_uv_mutex_lock        00000001800823a0     node:node.exe
 0003:000213a8       __imp_uv_mutex_init        00000001800823a8     node:node.exe
 0003:000213b0       \177node_NULL_THUNK_DATA_DLA 00000001800823b0     node:node.exe
 0003:000213c0       __hmod__node_exe           00000001800823c0     node:node.exe
 0003:00021940       ?__type_info_root_node@@3U__type_info_node@@A 0000000180082940     LIBCMT:tncleanup.obj
 0003:00021950       ?_OptionsStorage@?1??__local_stdio_scanf_options@@9@4_KA 0000000180082950     LIBCMT:default_local_stdio_options.obj
 0003:00021958       __scrt_current_native_startup_state 0000000180082958     LIBCMT:utility.obj
 0003:00021960       __scrt_native_startup_lock 0000000180082960     LIBCMT:utility.obj
 0003:000219a0       __scrt_debugger_hook_flag  00000001800829a0     LIBCMT:utility_desktop.obj
 0003:000219a4       __favor                    00000001800829a4     LIBCMT:cpu_disp.obj
 0003:000219a8       __pPurecall                00000001800829a8     libvcruntime:purevirt_data.obj
 0003:000219b0       ?__WinRTOutOfMemoryExceptionCallback@@3P6APEAXXZEA 00000001800829b0     libvcruntime:ehhelpers.obj
 0003:000219b8       ?pArgList@UnDecorator@@0PEAVReplicator@@EA 00000001800829b8     libvcruntime:undname.obj
 0003:000219c0       ?pZNameList@UnDecorator@@0PEAVReplicator@@EA 00000001800829c0     libvcruntime:undname.obj
 0003:000219c8       ?pTemplateArgList@UnDecorator@@0PEAVReplicator@@EA 00000001800829c8     libvcruntime:undname.obj
 0003:000219d0       ?gName@UnDecorator@@0PEBDEB 00000001800829d0     libvcruntime:undname.obj
 0003:000219d8       ?name@UnDecorator@@0PEBDEB 00000001800829d8     libvcruntime:undname.obj
 0003:000219e0       ?disableFlags@UnDecorator@@0KA 00000001800829e0     libvcruntime:undname.obj
 0003:000219e4       ?fExplicitTemplateParams@UnDecorator@@0_NA 00000001800829e4     libvcruntime:undname.obj
 0003:000219e5       ?fGetTemplateArgumentList@UnDecorator@@0_NA 00000001800829e5     libvcruntime:undname.obj
 0003:000219e8       ?m_pGetParameter@UnDecorator@@0P6APEADJ@ZEA 00000001800829e8     libvcruntime:undname.obj
 0003:000219f0       ?m_CHPENameOffset@UnDecorator@@0KA 00000001800829f0     libvcruntime:undname.obj
 0003:000219f4       ?m_recursionLevel@UnDecorator@@0KA 00000001800829f4     libvcruntime:undname.obj
 0003:00021b28       _nstream                   0000000180082b28     libucrt:_file.obj
 0003:00021b30       __piob                     0000000180082b30     libucrt:_file.obj
 0003:00021b38       _cflush                    0000000180082b38     libucrt:_file.obj
 0003:00021b68       ?c_exit_complete@?1???R<lambda_6e4b09c48022b2350581041d5f6b0c4c>@@QEBA@XZ@4_NA 0000000180082b68     libucrt:exit.obj
 0003:00021c78       _environ_table             0000000180082c78     libucrt:environment_initialization.obj
 0003:00021c80       _wenviron_table            0000000180082c80     libucrt:environment_initialization.obj
 0003:00021c88       __dcrt_initial_wide_environment 0000000180082c88     libucrt:environment_initialization.obj
 0003:00021c90       __dcrt_initial_narrow_environment 0000000180082c90     libucrt:environment_initialization.obj
 0003:00021c98       __acrt_atexit_table        0000000180082c98     libucrt:onexit.obj
 0003:00021cb0       __acrt_at_quick_exit_table 0000000180082cb0     libucrt:onexit.obj
 0003:000220e8       __acrt_locale_changed_data 00000001800830e8     libucrt:wsetlocale.obj
 0003:000220f0       __acrt_current_locale_data 00000001800830f0     libucrt:nlsdata.obj
 0003:00022108       __acrt_stdout_buffer       0000000180083108     libucrt:_sftbuf.obj
 0003:00022110       __acrt_stderr_buffer       0000000180083110     libucrt:_sftbuf.obj
 0003:00022120       __pioinfo                  0000000180083120     libucrt:ioinit.obj
 0003:00022520       _nhandle                   0000000180083520     libucrt:ioinit.obj
 0003:00022530       _mbctype                   0000000180083530     libucrt:mbctype.obj
 0003:00022538       _mbcasemap                 0000000180083538     libucrt:mbctype.obj
 0003:00022540       __acrt_current_multibyte_data 0000000180083540     libucrt:mbctype.obj
 0003:00022550       _pgmptr                    0000000180083550     libucrt:argv_data.obj
 0003:00022558       __argc                     0000000180083558     libucrt:argv_data.obj
 0003:00022560       __argv                     0000000180083560     libucrt:argv_data.obj
 0003:00022568       __wargv                    0000000180083568     libucrt:argv_data.obj
 0003:00022570       _acmdln                    0000000180083570     libucrt:argv_data.obj
 0003:00022578       _wcmdln                    0000000180083578     libucrt:argv_data.obj
 0003:00022580       __acrt_heap                0000000180083580     libucrt:heap_handle.obj
 0003:00022594       __acrt_lconv_static_null   0000000180083594     libucrt:localeconv.obj
 0003:00022598       __acrt_lconv_static_W_null 0000000180083598     libucrt:localeconv.obj
 0003:0002259c       _commode                   000000018008359c     libucrt:ncommode.obj
 0003:000225b0       _umaskval                  00000001800835b0     libucrt:umask.obj
 0003:000225b4       _fmode                     00000001800835b4     libucrt:txtmode.obj
 0003:000225b8       __fma3_is_available        00000001800835b8     libucrt:fma3_available.obj
 0003:000225bc       __use_fma3_lib             00000001800835bc     libucrt:fma3_available.obj
 0003:000225c0       ?DloadKernel32@@3PEAUHINSTANCE__@@EA 00000001800835c0     DelayImp:delayhlp.obj
 0003:000225c8       ?DloadAcquireSRWLockExclusive@@3P6AXPEA_K@ZEA 00000001800835c8     DelayImp:delayhlp.obj
 0003:000225d0       ?DloadReleaseSRWLockExclusive@@3P6AXPEA_K@ZEA 00000001800835d0     DelayImp:delayhlp.obj
 0003:000225d8       ?DloadSrwLock@@3_KA        00000001800835d8     DelayImp:delayhlp.obj
 0003:000225e0       ?DloadSectionLockCount@@3KA 00000001800835e0     DelayImp:delayhlp.obj
 0003:000225e4       ?DloadSectionOldProtection@@3KA 00000001800835e4     DelayImp:delayhlp.obj
 0003:000225e8       ?DloadSectionCommitPermanent@@3KA 00000001800835e8     DelayImp:delayhlp.obj
 0003:000225f0       ?g_COMRefcount@spellchecker@@3JA 00000001800835f0     spellchecker_win.obj
 0003:000225f4       ?g_COMFailed@spellchecker@@3_NA 00000001800835f4     spellchecker_win.obj
 0003:00022608       ?_OptionsStorage@?1??__local_stdio_printf_options@@9@4_KA 0000000180083608     hunspell:hunspell.obj
 0003:00022610       __scrt_ucrt_dll_is_in_use  0000000180083610     <common>
 0003:00022618       __dyn_tls_init_callback    0000000180083618     <common>

 entry point at        0001:0002e9c0

 Static symbols

 0000:fff76000       .debug$S                   0000000180000000     kernel32:KERNEL32.dll
 0000:fff76000       .debug$S                   0000000180000000     kernel32:KERNEL32.dll
 0000:fff76000       .debug$S                   0000000180000000     kernel32:KERNEL32.dll
 0000:fff76000       .debug$S                   0000000180000000     ole32:ole32.dll
 0000:fff76000       .debug$S                   0000000180000000     ole32:ole32.dll
 0000:fff76000       .debug$S                   0000000180000000     ole32:ole32.dll
 0000:fff76000       .debug$S                   0000000180000000     ole32:ole32.dll
 0000:fff76000       .debug$S                   0000000180000000     node:node.exe
 0000:fff76000       .debug$S                   0000000180000000     node:node.exe
 0000:fff76000       .debug$S                   0000000180000000     node:node.exe
 0000:fff76000       .debug$S                   0000000180000000     node:node.exe
 0000:fff76000       .debug$S                   0000000180000000     node:node.exe
 0000:fff76000       .debug$S                   0000000180000000     node:node.exe
 0000:fff76000       .debug$S                   0000000180000000     node:node.exe
 0000:fff76000       .debug$S                   0000000180000000     node:node.exe
 0000:fff76000       .debug$S                   0000000180000000     node:node.exe
 0000:fff76000       .debug$S                   0000000180000000     node:node.exe
 0000:fff76000       .debug$S                   0000000180000000     node:node.exe
 0000:fff76000       .debug$S                   0000000180000000     node:node.exe
 0000:fff76000       .debug$S                   0000000180000000     node:node.exe
 0000:fff76000       .debug$S                   0000000180000000     node:node.exe
 0000:fff76000       .debug$S                   0000000180000000     node:node.exe
 0000:fff76000       .debug$S                   0000000180000000     node:node.exe
 0000:fff76000       .debug$S                   0000000180000000     node:node.exe
 0000:fff76000       .debug$S                   0000000180000000     node:node.exe
 0000:fff76000       .debug$S                   0000000180000000     node:node.exe
 0000:fff76000       .debug$S                   0000000180000000     node:node.exe
 0000:fff76000       .debug$S                   0000000180000000     node:node.exe
 0000:fff76000       .debug$S                   0000000180000000     node:node.exe
 0000:fff76000       .debug$S                   0000000180000000     node:node.exe
 0000:fff76000       .debug$S                   0000000180000000     node:node.exe
 0000:fff76000       .debug$S                   0000000180000000     node:node.exe
 0000:fff76000       .debug$S                   0000000180000000     node:node.exe
 0000:fff76000       .debug$S                   0000000180000000     node:node.exe
 0000:fff76000       .debug$S                   0000000180000000     node:node.exe
 0000:fff76000       .debug$S                   0000000180000000     node:node.exe
 0000:fff76000       .debug$S                   0000000180000000     node:node.exe
 0000:fff76000       .debug$S                   0000000180000000     node:node.exe
 0000:fff76000       .debug$S                   0000000180000000     node:node.exe
 0000:fff76000       .debug$S                   0000000180000000     node:node.exe
 0000:fff76000       .debug$S                   0000000180000000     node:node.exe
 0000:fff76000       .debug$S                   0000000180000000     node:node.exe
 0000:fff76000       .debug$S                   0000000180000000     node:node.exe
 0000:fff76000       .debug$S                   0000000180000000     node:node.exe
 0000:fff76000       .debug$S                   0000000180000000     node:node.exe
 0000:fff76000       .debug$S                   0000000180000000     node:node.exe
 0000:fff76000       .debug$S                   0000000180000000     node:node.exe
 0000:fff76000       .debug$S                   0000000180000000     node:node.exe
 0000:fff76000       .debug$S                   0000000180000000     node:node.exe
 0000:fff76000       .debug$S                   0000000180000000     node:node.exe
 0000:fff76000       .debug$S                   0000000180000000     node:node.exe
 0000:fff76000       .debug$S                   0000000180000000     node:node.exe
 0000:fff76000       .debug$S                   0000000180000000     node:node.exe
 0000:fff76000       .debug$S                   0000000180000000     node:node.exe
 0000:fff76000       .debug$S                   0000000180000000     node:node.exe
 0000:fff76000       .debug$S                   0000000180000000     node:node.exe
 0000:fff76000       .debug$S                   0000000180000000     node:node.exe
 0000:fff76000       .debug$S                   0000000180000000     node:node.exe
 0000:fff76000       .debug$S                   0000000180000000     node:node.exe
 0000:fff76000       .debug$S                   0000000180000000     node:node.exe
 0000:fff76000       .debug$S                   0000000180000000     node:node.exe
 0000:fff76000       .debug$S                   0000000180000000     node:node.exe
 0000:fff76000       .debug$S                   0000000180000000     node:node.exe
 0000:fff76000       .debug$S                   0000000180000000     node:node.exe
 0000:fff76000       .debug$S                   0000000180000000     node:node.exe
 0000:fff76000       .debug$S                   0000000180000000     node:node.exe
 0000:fff76000       .debug$S                   0000000180000000     node:node.exe
 0000:fff76000       .debug$S                   0000000180000000     node:node.exe
 0000:fff76000       .debug$S                   0000000180000000     node:node.exe
 0000:fff76000       .debug$S                   0000000180000000     node:node.exe
 0000:fff76000       .debug$S                   0000000180000000     node:node.exe
 0000:fff76000       .debug$S                   0000000180000000     node:node.exe
 0000:fff76000       .debug$S                   0000000180000000     node:node.exe
 0000:fff76000       .debug$S                   0000000180000000     node:node.exe
 0000:fff76000       .debug$S                   0000000180000000     kernel32:KERNEL32.dll
 0000:fff76000       .debug$S                   0000000180000000     kernel32:KERNEL32.dll
 0000:fff76000       .debug$S                   0000000180000000     kernel32:KERNEL32.dll
 0000:fff76000       .debug$S                   0000000180000000     kernel32:KERNEL32.dll
 0000:fff76000       .debug$S                   0000000180000000     kernel32:KERNEL32.dll
 0000:fff76000       .debug$S                   0000000180000000     kernel32:KERNEL32.dll
 0000:fff76000       .debug$S                   0000000180000000     kernel32:KERNEL32.dll
 0000:fff76000       .debug$S                   0000000180000000     kernel32:KERNEL32.dll
 0000:fff76000       .debug$S                   0000000180000000     kernel32:KERNEL32.dll
 0000:fff76000       .debug$S                   0000000180000000     kernel32:KERNEL32.dll
 0000:fff76000       .debug$S                   0000000180000000     kernel32:KERNEL32.dll
 0000:fff76000       .debug$S                   0000000180000000     kernel32:KERNEL32.dll
 0000:fff76000       .debug$S                   0000000180000000     kernel32:KERNEL32.dll
 0000:fff76000       .debug$S                   0000000180000000     kernel32:KERNEL32.dll
 0000:fff76000       .debug$S                   0000000180000000     kernel32:KERNEL32.dll
 0000:fff76000       .debug$S                   0000000180000000     kernel32:KERNEL32.dll
 0000:fff76000       .debug$S                   0000000180000000     kernel32:KERNEL32.dll
 0000:fff76000       .debug$S                   0000000180000000     kernel32:KERNEL32.dll
 0000:fff76000       .debug$S                   0000000180000000     spellchecker.exp
 0000:fff76000       .debug$S                   0000000180000000     kernel32:KERNEL32.dll
 0000:fff76000       .debug$S                   0000000180000000     kernel32:KERNEL32.dll
 0000:fff76000       .debug$S                   0000000180000000     kernel32:KERNEL32.dll
 0000:fff76000       .debug$S                   0000000180000000     kernel32:KERNEL32.dll
 0000:fff76000       .debug$S                   0000000180000000     kernel32:KERNEL32.dll
 0000:fff76000       .debug$S                   0000000180000000     kernel32:KERNEL32.dll
 0000:fff76000       .debug$S                   0000000180000000     kernel32:KERNEL32.dll
 0000:fff76000       .debug$S                   0000000180000000     kernel32:KERNEL32.dll
 0000:fff76000       .debug$S                   0000000180000000     kernel32:KERNEL32.dll
 0000:fff76000       .debug$S                   0000000180000000     kernel32:KERNEL32.dll
 0000:fff76000       .debug$S                   0000000180000000     kernel32:KERNEL32.dll
 0000:fff76000       .debug$S                   0000000180000000     kernel32:KERNEL32.dll
 0000:fff76000       .debug$S                   0000000180000000     kernel32:KERNEL32.dll
 0000:fff76000       .debug$S                   0000000180000000     kernel32:KERNEL32.dll
 0000:fff76000       .debug$S                   0000000180000000     kernel32:KERNEL32.dll
 0000:fff76000       .debug$S                   0000000180000000     kernel32:KERNEL32.dll
 0000:fff76000       .debug$S                   0000000180000000     kernel32:KERNEL32.dll
 0000:fff76000       .debug$S                   0000000180000000     kernel32:KERNEL32.dll
 0000:fff76000       .debug$S                   0000000180000000     kernel32:KERNEL32.dll
 0000:fff76000       .debug$S                   0000000180000000     kernel32:KERNEL32.dll
 0000:fff76000       .debug$S                   0000000180000000     kernel32:KERNEL32.dll
 0000:fff76000       .debug$S                   0000000180000000     kernel32:KERNEL32.dll
 0000:fff76000       .debug$S                   0000000180000000     kernel32:KERNEL32.dll
 0000:fff76000       .debug$S                   0000000180000000     kernel32:KERNEL32.dll
 0000:fff76000       .debug$S                   0000000180000000     kernel32:KERNEL32.dll
 0000:fff76000       .debug$S                   0000000180000000     kernel32:KERNEL32.dll
 0000:fff76000       .debug$S                   0000000180000000     kernel32:KERNEL32.dll
 0000:fff76000       .debug$S                   0000000180000000     kernel32:KERNEL32.dll
 0000:fff76000       .debug$S                   0000000180000000     kernel32:KERNEL32.dll
 0000:fff76000       .debug$S                   0000000180000000     kernel32:KERNEL32.dll
 0000:fff76000       .debug$S                   0000000180000000     kernel32:KERNEL32.dll
 0000:fff76000       .debug$S                   0000000180000000     kernel32:KERNEL32.dll
 0000:fff76000       .debug$S                   0000000180000000     kernel32:KERNEL32.dll
 0000:fff76000       .debug$S                   0000000180000000     kernel32:KERNEL32.dll
 0000:fff76000       .debug$S                   0000000180000000     kernel32:KERNEL32.dll
 0000:fff76000       .debug$S                   0000000180000000     kernel32:KERNEL32.dll
 0000:fff76000       .debug$S                   0000000180000000     kernel32:KERNEL32.dll
 0000:fff76000       .debug$S                   0000000180000000     kernel32:KERNEL32.dll
 0000:fff76000       .debug$S                   0000000180000000     kernel32:KERNEL32.dll
 0000:fff76000       .debug$S                   0000000180000000     kernel32:KERNEL32.dll
 0000:fff76000       .debug$S                   0000000180000000     kernel32:KERNEL32.dll
 0000:fff76000       .debug$S                   0000000180000000     kernel32:KERNEL32.dll
 0000:fff76000       .debug$S                   0000000180000000     kernel32:KERNEL32.dll
 0000:fff76000       .debug$S                   0000000180000000     kernel32:KERNEL32.dll
 0000:fff76000       .debug$S                   0000000180000000     kernel32:KERNEL32.dll
 0000:fff76000       .debug$S                   0000000180000000     kernel32:KERNEL32.dll
 0000:fff76000       .debug$S                   0000000180000000     kernel32:KERNEL32.dll
 0000:fff76000       .debug$S                   0000000180000000     kernel32:KERNEL32.dll
 0000:fff76000       .debug$S                   0000000180000000     kernel32:KERNEL32.dll
 0000:fff76000       .debug$S                   0000000180000000     kernel32:KERNEL32.dll
 0000:fff76000       .debug$S                   0000000180000000     kernel32:KERNEL32.dll
 0000:fff76000       .debug$S                   0000000180000000     kernel32:KERNEL32.dll
 0000:fff76000       .debug$S                   0000000180000000     kernel32:KERNEL32.dll
 0000:fff76000       .debug$S                   0000000180000000     kernel32:KERNEL32.dll
 0000:fff76000       .debug$S                   0000000180000000     kernel32:KERNEL32.dll
 0000:fff76000       .debug$S                   0000000180000000     kernel32:KERNEL32.dll
 0000:fff76000       .debug$S                   0000000180000000     kernel32:KERNEL32.dll
 0000:fff76000       .debug$S                   0000000180000000     kernel32:KERNEL32.dll
 0000:fff76000       .debug$S                   0000000180000000     kernel32:KERNEL32.dll
 0000:fff76000       .debug$S                   0000000180000000     kernel32:KERNEL32.dll
 0000:fff76000       .debug$S                   0000000180000000     kernel32:KERNEL32.dll
 0000:fff76000       .debug$S                   0000000180000000     kernel32:KERNEL32.dll
 0000:fff76000       .debug$S                   0000000180000000     kernel32:KERNEL32.dll
 0000:fff76000       .debug$S                   0000000180000000     kernel32:KERNEL32.dll
 0000:fff76000       .debug$S                   0000000180000000     kernel32:KERNEL32.dll
 0000:fff76000       .debug$S                   0000000180000000     kernel32:KERNEL32.dll
 0000:fff76000       .debug$S                   0000000180000000     kernel32:KERNEL32.dll
 0000:fff76000       .debug$S                   0000000180000000     kernel32:KERNEL32.dll
 0000:fff76000       .debug$S                   0000000180000000     kernel32:KERNEL32.dll
 0000:fff76000       .debug$S                   0000000180000000     kernel32:KERNEL32.dll
 0001:00000000       ?FunctionCallbackWrapper@imp@Nan@@YAXAEBV?$FunctionCallbackInfo@VValue@v8@@@v8@@@Z 0000000180001000 f   main.obj
 0001:00000740       ?New@Spellchecker@?A0x27193ba4@@CAXAEBV?$FunctionCallbackInfo@VValue@v8@@@Nan@@@Z 0000000180001740 f   main.obj
 0001:00000890       ?SetSpellcheckerType@Spellchecker@?A0x27193ba4@@CAXAEBV?$FunctionCallbackInfo@VValue@v8@@@Nan@@@Z 0000000180001890 f   main.obj
 0001:00000990       ?SetDictionary@Spellchecker@?A0x27193ba4@@CAXAEBV?$FunctionCallbackInfo@VValue@v8@@@Nan@@@Z 0000000180001990 f   main.obj
 0001:00000be0       ?IsMisspelled@Spellchecker@?A0x27193ba4@@CAXAEBV?$FunctionCallbackInfo@VValue@v8@@@Nan@@@Z 0000000180001be0 f   main.obj
 0001:00000d70       ?CheckSpelling@Spellchecker@?A0x27193ba4@@CAXAEBV?$FunctionCallbackInfo@VValue@v8@@@Nan@@@Z 0000000180001d70 f   main.obj
 0001:00001170       ?CheckSpellingAsync@Spellchecker@?A0x27193ba4@@CAXAEBV?$FunctionCallbackInfo@VValue@v8@@@Nan@@@Z 0000000180002170 f   main.obj
 0001:000014c0       ?Add@Spellchecker@?A0x27193ba4@@CAXAEBV?$FunctionCallbackInfo@VValue@v8@@@Nan@@@Z 00000001800024c0 f   main.obj
 0001:00001620       ?Remove@Spellchecker@?A0x27193ba4@@CAXAEBV?$FunctionCallbackInfo@VValue@v8@@@Nan@@@Z 0000000180002620 f   main.obj
 0001:00001780       ?GetAvailableDictionaries@Spellchecker@?A0x27193ba4@@CAXAEBV?$FunctionCallbackInfo@VValue@v8@@@Nan@@@Z 0000000180002780 f   main.obj
 0001:00001a70       ?GetCorrectionsForMisspelling@Spellchecker@?A0x27193ba4@@CAXAEBV?$FunctionCallbackInfo@VValue@v8@@@Nan@@@Z 0000000180002a70 f   main.obj
 0001:00001d40       ?Init@Spellchecker@?A0x27193ba4@@SAXV?$Local@VObject@v8@@@v8@@@Z 0000000180002d40 f   main.obj
 0001:00001fc0       ??_GSpellchecker@?A0x27193ba4@@EEAAPEAXI@Z 0000000180002fc0 f   main.obj
 0001:00002040       ?Init@?A0x27193ba4@@YAXV?$Local@VObject@v8@@@v8@@0@Z 0000000180003040 f   main.obj
 0001:00002050       _register_spellchecker     0000000180003050 f   main.obj
 0001:00002240       ??$Unwrap@VSpellchecker@?A0x27193ba4@@@ObjectWrap@Nan@@SAPEAVSpellchecker@?A0x27193ba4@@V?$Local@VObject@v8@@@v8@@@Z 0000000180003240 f   main.obj
 0001:00005fb0       ?load_exe_hook@@YAP6A_JXZIPEAUDelayLoadInfo@@@Z 0000000180006fb0 f   win_delay_load_hook.obj
 0001:0000d1a0       ?HUNSPELL_WARNING@@YAXPEAU_iobuf@@PEBDZZ 000000018000e1a0 f   hunspell:csutil.obj
 0001:0000d1a0       ?HUNSPELL_WARNING@@YAXPEAU_iobuf@@PEBDZZ 000000018000e1a0 f   hunspell:hashmgr.obj
 0001:0000d1a0       ?HUNSPELL_WARNING@@YAXPEAU_iobuf@@PEBDZZ 000000018000e1a0 f   hunspell:affixmgr.obj
 0001:0000d474       $LN23                      000000018000e474     hunspell:csutil.obj
 0001:0000d48c       $LN22                      000000018000e48c     hunspell:csutil.obj
 0001:0002a480       $LN1652                    000000018002b480     hunspell:affixmgr.obj
 0001:0002e610       $$000000                   000000018002f610     LIBCMT:amdsecgs.obj
 0001:0002e690       ?dllmain_crt_dispatch@@YAHQEAUHINSTANCE__@@KQEAX@Z 000000018002f690 f   LIBCMT:dll_dllmain.obj
 0001:0002e6e0       ?dllmain_crt_process_attach@@YAHQEAUHINSTANCE__@@QEAX@Z 000000018002f6e0 f   LIBCMT:dll_dllmain.obj
 0001:0002e7fc       ?dllmain_crt_process_detach@@YAH_N@Z 000000018002f7fc f   LIBCMT:dll_dllmain.obj
 0001:0002e88c       ?dllmain_dispatch@@YAHQEAUHINSTANCE__@@KQEAX@Z 000000018002f88c f   LIBCMT:dll_dllmain.obj
 0001:0002ebb8       capture_current_context    000000018002fbb8 f   LIBCMT:gs_report.obj
 0001:0002ec28       capture_previous_context   000000018002fc28 f   LIBCMT:gs_report.obj
 0001:0002fc60       $$000000                   0000000180030c60     libvcruntime:memset.obj
 0001:0002fd5c       MsetTab                    0000000180030d5c     libvcruntime:memset.obj
 0001:0002fe30       $$000000                   0000000180030e30     libvcruntime:notify.obj
 0001:00030214       ?try_get_function@@YAPEAXW4function_id@?A0x14c33c87@@QEBDQEBW4module_id@2@2@Z 0000000180031214 f   libvcruntime:winapi_downlevel.obj
 0001:00030be0       $$000000                   0000000180031be0     libvcruntime:memcpy.obj
 0001:00030c97       MoveSmall                  0000000180031c97     libvcruntime:memcpy.obj
 0001:00031144       ??$BuildCatchObjectHelperInternal@V__FrameHandler3@@@@YAHPEAUEHExceptionRecord@@PEAXPEBU_s_HandlerType@@PEBU_s_CatchableType@@@Z 0000000180032144 f   libvcruntime:frame.obj
 0001:00031344       ??$BuildCatchObjectInternal@V__FrameHandler3@@@@YAXPEAUEHExceptionRecord@@PEAXPEBU_s_HandlerType@@PEBU_s_CatchableType@@@Z 0000000180032344 f   libvcruntime:frame.obj
 0001:00031404       ??$CatchIt@V__FrameHandler3@@@@YAXPEAUEHExceptionRecord@@PEA_KPEAU_CONTEXT@@PEAU_xDISPATCHER_CONTEXT@@PEBU_s_FuncInfo@@PEBU_s_HandlerType@@PEBU_s_CatchableType@@PEBU_s_TryBlockMapEntry@@H1EE@Z 0000000180032404 f   libvcruntime:frame.obj
 0001:000314d4       ??$FindHandler@V__FrameHandler3@@@@YAXPEAUEHExceptionRecord@@PEA_KPEAU_CONTEXT@@PEAU_xDISPATCHER_CONTEXT@@PEBU_s_FuncInfo@@EH1@Z 00000001800324d4 f   libvcruntime:frame.obj
 0001:00031938       ??$FindHandlerForForeignException@V__FrameHandler3@@@@YAXPEAUEHExceptionRecord@@PEA_KPEAU_CONTEXT@@PEAU_xDISPATCHER_CONTEXT@@PEBU_s_FuncInfo@@HH1@Z 0000000180032938 f   libvcruntime:frame.obj
 0001:00032140       ?ExFilterRethrow@@YAHPEAU_EXCEPTION_POINTERS@@PEAUEHExceptionRecord@@PEAH@Z 0000000180033140 f   libvcruntime:frame.obj
 0001:000323f4       ?IsInExceptionSpec@@YAEPEAUEHExceptionRecord@@PEBU_s_ESTypeList@@@Z 00000001800333f4 f   libvcruntime:frame.obj
 0001:000324cc       ?Is_bad_exception_allowed@@YAEPEBU_s_ESTypeList@@@Z 00000001800334cc f   libvcruntime:frame.obj
 0001:00032580       $$000000                   0000000180033580     libvcruntime:handlers.obj
 0001:0003263c       ??$common_assert_to_message_box@_W@@YAXQEB_W0IQEAX@Z 000000018003363c f   libucrt:assert.obj
 0001:00032700       ??$common_assert_to_message_box_build_string@_W@@YAXQEA_W_KQEB_W2IQEAX@Z 0000000180033700 f   libucrt:assert.obj
 0001:00032c04       ??$common_assert_to_stderr@_W@@YAXQEB_W0I@Z 0000000180033c04 f   libucrt:assert.obj
 0001:00032d74       ?get_assert_format@@YAPEB_W_W@Z 0000000180033d74 f   libucrt:assert.obj
 0001:0003313c       ??$?RV<lambda_9bd929c17696992ce54f1d748594fc62>@@AEAV<lambda_082c17da81b0962e08c0587ee0fac50c>@@V<lambda_9c08ac857f4975304d44e9f601d9b878>@@@?$__crt_seh_guarded_call@PEAD@@QEAAPEAD$$QEAV<lambda_9bd929c17696992ce54f1d748594fc62>@@AEAV<lambda_082c17da81b0962e08c0587ee0fac50c>@@$$QEAV<lambda_9c08ac857f4975304d44e9f601d9b878>@@@Z 000000018003413c f   libucrt:setlocale.obj
 0001:0003317c       ??R<lambda_082c17da81b0962e08c0587ee0fac50c>@@QEBAPEADXZ 000000018003417c f   libucrt:setlocale.obj
 0001:00033468       ??$common_fsopen@D@@YAPEAU_iobuf@@QEBD0H@Z 0000000180034468 f   libucrt:fopen.obj
 0001:00033738       ??$common_getenv@D@@YAPEADQEBD@Z 0000000180034738 f   libucrt:getenv.obj
 0001:00033798       ??$common_getenv_nolock@D@@YAPEADQEBD@Z 0000000180034798 f   libucrt:getenv.obj
 0001:00033970       $$000000                   0000000180034970     libucrt:strncpy.obj
 0001:00033af0       $$000000                   0000000180034af0     libucrt:strncmp.obj
 0001:00033b80       ??$?RV<lambda_0d412022a4b28cc8a401ea49574e8ae6>@@AEAV<lambda_a775ed57af18ba8e4d5dc780aa9068fe>@@V<lambda_975a71a6baa488a08f4e15f6b0339b9e>@@@?$__crt_seh_guarded_call@H@@QEAAH$$QEAV<lambda_0d412022a4b28cc8a401ea49574e8ae6>@@AEAV<lambda_a775ed57af18ba8e4d5dc780aa9068fe>@@$$QEAV<lambda_975a71a6baa488a08f4e15f6b0339b9e>@@@Z 0000000180034b80 f   libucrt:output.obj
 0001:00033bc0       ??$?RV<lambda_a62c933ada0517137acf5807a1eeac1f>@@AEAV<lambda_a31071773b9a94e445cbd5d04ef99106>@@V<lambda_56065050dbf3ada7e59a83db45153de3>@@@?$__crt_seh_guarded_call@H@@QEAAH$$QEAV<lambda_a62c933ada0517137acf5807a1eeac1f>@@AEAV<lambda_a31071773b9a94e445cbd5d04ef99106>@@$$QEAV<lambda_56065050dbf3ada7e59a83db45153de3>@@@Z 0000000180034bc0 f   libucrt:output.obj
 0001:00033c00       ??$common_vsprintf@Vstandard_base@__crt_stdio_output@@D@@YAH_KQEAD0QEBDQEAU__crt_locale_pointers@@1@Z 0000000180034c00 f   libucrt:output.obj
 0001:00033dcc       ??$common_vsprintf@Vstandard_base@__crt_stdio_output@@_W@@YAH_KQEA_W0QEB_WQEAU__crt_locale_pointers@@QEAD@Z 0000000180034dcc f   libucrt:output.obj
 0001:000345b4       ??R<lambda_a31071773b9a94e445cbd5d04ef99106>@@QEBAHXZ 00000001800355b4 f   libucrt:output.obj
 0001:000346e4       ??R<lambda_a775ed57af18ba8e4d5dc780aa9068fe>@@QEBAHXZ 00000001800356e4 f   libucrt:output.obj
 0001:00038968       ??$common_fgets@D@@YAPEADQEADHV__crt_stdio_stream@@@Z 0000000180039968 f   libucrt:fgets.obj
 0001:0003903c       ??$?RV<lambda_d80eeec6fff315bfe5c115232f3240e3>@@AEAV<lambda_6e4b09c48022b2350581041d5f6b0c4c>@@V<lambda_2358e3775559c9db80273638284d5e45>@@@?$__crt_seh_guarded_call@X@@QEAAX$$QEAV<lambda_d80eeec6fff315bfe5c115232f3240e3>@@AEAV<lambda_6e4b09c48022b2350581041d5f6b0c4c>@@$$QEAV<lambda_2358e3775559c9db80273638284d5e45>@@@Z 000000018003a03c f   libucrt:exit.obj
 0001:00039074       ??R<lambda_6e4b09c48022b2350581041d5f6b0c4c>@@QEBA@XZ 000000018003a074 f   libucrt:exit.obj
 0001:00039138       ?atexit_exception_filter@@YAHK@Z 000000018003a138 f   libucrt:exit.obj
 0001:00039144       ?common_exit@@YAXHW4_crt_exit_cleanup_mode@@W4_crt_exit_return_mode@@@Z 000000018003a144 f   libucrt:exit.obj
 0001:00039200       ?exit_or_terminate_process@@YAXI@Z 000000018003a200 f   libucrt:exit.obj
 0001:0003924c       ?try_cor_exit_process@@YAXI@Z 000000018003a24c f   libucrt:exit.obj
 0001:000392d4       ??$parse_command_line@D@@YAXPEADPEAPEAD0PEA_K2@Z 000000018003a2d4 f   libucrt:argv_parsing.obj
 0001:00039680       ??$common_initialize_environment_nolock@D@@YAHXZ 000000018003a680 f   libucrt:environment_initialization.obj
 0001:000396ec       ??$create_environment@D@@YAQEAPEADQEAD@Z 000000018003a6ec f   libucrt:environment_initialization.obj
 0001:000397f4       ??$free_environment@D@@YAXQEAPEAD@Z 000000018003a7f4 f   libucrt:environment_initialization.obj
 0001:000397f4       ??$free_environment@_W@@YAXQEAPEA_W@Z 000000018003a7f4 f   libucrt:environment_initialization.obj
 0001:00039838       ??$initialize_environment_by_cloning_nolock@D@@YAHXZ 000000018003a838 f   libucrt:environment_initialization.obj
 0001:0003990c       ??$uninitialize_environment_internal@D@@YAXAEAPEAPEAD@Z 000000018003a90c f   libucrt:environment_initialization.obj
 0001:00039928       ??$uninitialize_environment_internal@_W@@YAXAEAPEAPEA_W@Z 000000018003a928 f   libucrt:environment_initialization.obj
 0001:000399c0       ??$?RV<lambda_7777bce6b2f8c936911f934f8298dc43>@@AEAV<lambda_f03950bc5685219e0bcd2087efbe011e>@@V<lambda_3883c3dff614d5e0c5f61bb1ac94921c>@@@?$__crt_seh_guarded_call@H@@QEAAH$$QEAV<lambda_7777bce6b2f8c936911f934f8298dc43>@@AEAV<lambda_f03950bc5685219e0bcd2087efbe011e>@@$$QEAV<lambda_3883c3dff614d5e0c5f61bb1ac94921c>@@@Z 000000018003a9c0 f   libucrt:onexit.obj
 0001:000399fc       ??R<lambda_f03950bc5685219e0bcd2087efbe011e>@@QEBAHXZ 000000018003a9fc f   libucrt:onexit.obj
 0001:00039b78       initialize_global_variables 000000018003ab78 f   libucrt:initialization.obj
 0001:00039b8c       initialize_c               000000018003ab8c f   libucrt:initialization.obj
 0001:00039bb0       uninitialize_c             000000018003abb0 f   libucrt:initialization.obj
 0001:00039bb0       initialize_environment     000000018003abb0 f   libucrt:initialization.obj
 0001:00039bb0       uninitialize_global_state_isolation 000000018003abb0 f   libucrt:initialization.obj
 0001:00039bb0       initialize_global_state_isolation 000000018003abb0 f   libucrt:initialization.obj
 0001:00039bb0       report_memory_leaks        000000018003abb0 f   libucrt:initialization.obj
 0001:00039bb4       uninitialize_environment   000000018003abb4 f   libucrt:initialization.obj
 0001:00039bc4       initialize_pointers        000000018003abc4 f   libucrt:initialization.obj
 0001:00039c04       uninitialize_vcruntime     000000018003ac04 f   libucrt:initialization.obj
 0001:00039c0c       uninitialize_allocated_memory 000000018003ac0c f   libucrt:initialization.obj
 0001:00039c4c       uninitialize_allocated_io_buffers 000000018003ac4c f   libucrt:initialization.obj
 0001:00039f4c       ??$common_xtox@K_W@@YAHKQEA_W_KI_N@Z 000000018003af4c f   libucrt:xtoa.obj
 0001:0003a020       ??$common_xtox_s@K_W@@YAHKQEA_W_KI_N@Z 000000018003b020 f   libucrt:xtoa.obj
 0001:0003a5ac       ??$?RV<lambda_842d9ff0dc9ef11c61343bbaebe7f885>@@AEAV<lambda_c5860995281e5c4ce005b3de8f5874ee>@@V<lambda_d90129c13df834fdcbf8d2b88dafcf2d>@@@?$__crt_seh_guarded_call@X@@QEAAX$$QEAV<lambda_842d9ff0dc9ef11c61343bbaebe7f885>@@AEAV<lambda_c5860995281e5c4ce005b3de8f5874ee>@@$$QEAV<lambda_d90129c13df834fdcbf8d2b88dafcf2d>@@@Z 000000018003b5ac f   libucrt:fflush.obj
 0001:0003a648       ??$?RV<lambda_886d6c58226a84441f68b9f2b8217b83>@@AEAV<lambda_ab61a845afdef5b7c387490eaf3616ee>@@V<lambda_f7f22ab5edc0698d5f6905b0d3f44752>@@@?$__crt_seh_guarded_call@X@@QEAAX$$QEAV<lambda_886d6c58226a84441f68b9f2b8217b83>@@AEAV<lambda_ab61a845afdef5b7c387490eaf3616ee>@@$$QEAV<lambda_f7f22ab5edc0698d5f6905b0d3f44752>@@@Z 000000018003b648 f   libucrt:fflush.obj
 0001:0003a728       ??$?RV<lambda_c376a267cfb53b6959b3b692ec76b120>@@AEAV<lambda_9a32fed5bf61b6b509b2d3f6003082a1>@@V<lambda_572fbb9fa0ab338edf41edfd4b5fcc8d>@@@?$__crt_seh_guarded_call@H@@QEAAH$$QEAV<lambda_c376a267cfb53b6959b3b692ec76b120>@@AEAV<lambda_9a32fed5bf61b6b509b2d3f6003082a1>@@$$QEAV<lambda_572fbb9fa0ab338edf41edfd4b5fcc8d>@@@Z 000000018003b728 f   libucrt:fflush.obj
 0001:0003a768       ?common_flush_all@@YAH_N@Z 000000018003b768 f   libucrt:fflush.obj
 0001:0003a900       ??$?RV<lambda_84ec643ea9557e2f7dc01bb0e9624395>@@AEAV<lambda_ca71763b3c0644891230e4f79ea54fa6>@@V<lambda_439a761618c59b0600e24586724d733b>@@@?$__crt_seh_guarded_call@H@@QEAAH$$QEAV<lambda_84ec643ea9557e2f7dc01bb0e9624395>@@AEAV<lambda_ca71763b3c0644891230e4f79ea54fa6>@@$$QEAV<lambda_439a761618c59b0600e24586724d733b>@@@Z 000000018003b900 f   libucrt:setvbuf.obj
 0001:0003a940       ??R<lambda_ca71763b3c0644891230e4f79ea54fa6>@@QEBAHXZ 000000018003b940 f   libucrt:setvbuf.obj
 0001:0003aabc       ??$?RV<lambda_450d765d439847d4c735a33c368b5fc0>@@AEAV<lambda_44731a7d0e6d81c3e6aa82d741081786>@@V<lambda_601a2a7da3b7a96e9554ac7215c4b07c>@@@?$__crt_seh_guarded_call@P6AXH@Z@@QEAAP6AXH@Z$$QEAV<lambda_450d765d439847d4c735a33c368b5fc0>@@AEAV<lambda_44731a7d0e6d81c3e6aa82d741081786>@@$$QEAV<lambda_601a2a7da3b7a96e9554ac7215c4b07c>@@@Z 000000018003babc f   libucrt:signal.obj
 0001:0003adc0       ??$?RV<lambda_0ae27a3a962d80f24befdcbee591983d>@@AEAV<lambda_8d0ee55de4b1038c4002e0adecdf1839>@@V<lambda_dc504788e8f1664fe9b84e20bfb512f2>@@@?$__crt_seh_guarded_call@X@@QEAAX$$QEAV<lambda_0ae27a3a962d80f24befdcbee591983d>@@AEAV<lambda_8d0ee55de4b1038c4002e0adecdf1839>@@$$QEAV<lambda_dc504788e8f1664fe9b84e20bfb512f2>@@@Z 000000018003bdc0 f   libucrt:per_thread_data.obj
 0001:0003ae00       ??$?RV<lambda_2d41944a1d46af3157314b8a01080d33>@@AEAV<lambda_8f455de75cd7d7f24b4096f044d8b9e6>@@V<lambda_aa500f224e6afead328df44964fe2772>@@@?$__crt_seh_guarded_call@X@@QEAAX$$QEAV<lambda_2d41944a1d46af3157314b8a01080d33>@@AEAV<lambda_8f455de75cd7d7f24b4096f044d8b9e6>@@$$QEAV<lambda_aa500f224e6afead328df44964fe2772>@@@Z 000000018003be00 f   libucrt:per_thread_data.obj
 0001:0003ae40       ??$?RV<lambda_aa87e3671a710a21b5dc78c0bdf72e11>@@AEAV<lambda_92619d2358a28f41a33ba319515a20b9>@@V<lambda_6992ecaafeb10aed2b74cb1fae11a551>@@@?$__crt_seh_guarded_call@X@@QEAAX$$QEAV<lambda_aa87e3671a710a21b5dc78c0bdf72e11>@@AEAV<lambda_92619d2358a28f41a33ba319515a20b9>@@$$QEAV<lambda_6992ecaafeb10aed2b74cb1fae11a551>@@@Z 000000018003be40 f   libucrt:per_thread_data.obj
 0001:0003ae88       ??$?RV<lambda_f2e299630e499de9f9a165e60fcd3db5>@@AEAV<lambda_2ae9d31cdba2644fcbeaf08da7c24588>@@V<lambda_40d01ff24d0e7b3814fdbdcee8eab3c7>@@@?$__crt_seh_guarded_call@X@@QEAAX$$QEAV<lambda_f2e299630e499de9f9a165e60fcd3db5>@@AEAV<lambda_2ae9d31cdba2644fcbeaf08da7c24588>@@$$QEAV<lambda_40d01ff24d0e7b3814fdbdcee8eab3c7>@@@Z 000000018003be88 f   libucrt:per_thread_data.obj
 0001:0003aee8       ?construct_ptd_array@@YAXQEAU__acrt_ptd@@@Z 000000018003bee8 f   libucrt:per_thread_data.obj
 0001:0003afb8       ?destroy_fls@@YAXPEAX@Z    000000018003bfb8 f   libucrt:per_thread_data.obj
 0001:0003afd8       ?destroy_ptd_array@@YAXQEAU__acrt_ptd@@@Z 000000018003bfd8 f   libucrt:per_thread_data.obj
 0001:0003b0d0       ?replace_current_thread_locale_nolock@@YAXQEAU__acrt_ptd@@QEAU__crt_locale_data@@@Z 000000018003c0d0 f   libucrt:per_thread_data.obj
 0001:0003b4fc       ?_mbstowcs_l_helper@@YA_KPEA_WPEBD_KPEAU__crt_locale_pointers@@@Z 000000018003c4fc f   libucrt:mbstowcs.obj
 0001:0003b854       ?_wcstombs_l_helper@@YA_KPEADPEB_W_KPEAU__crt_locale_pointers@@@Z 000000018003c854 f   libucrt:wcstombs.obj
 0001:0003bd60       ?<lambda_invoker_cdecl>@<lambda_795c6bd18aed400428efeb9a5f0e1479>@@CAHPEA_W@Z 000000018003cd60 f   libucrt:winapi_thunks.obj
 0001:0003bd88       ??$?RV<lambda_bd00b5aa228bd7e7e5b2b5db5fd2933b>@@AEAV<lambda_777d11615145f89ee95b9466d285deeb>@@V<lambda_6e5e48fbd24f9f8f81b203eb3d877683>@@@?$__crt_seh_guarded_call@H@@QEAAH$$QEAV<lambda_bd00b5aa228bd7e7e5b2b5db5fd2933b>@@AEAV<lambda_777d11615145f89ee95b9466d285deeb>@@$$QEAV<lambda_6e5e48fbd24f9f8f81b203eb3d877683>@@@Z 000000018003cd88 f   libucrt:winapi_thunks.obj
 0001:0003be04       ?try_get_function@@YAPEAXW4function_id@?A0x391cf84c@@QEBDQEBW4module_id@2@2@Z 000000018003ce04 f   libucrt:winapi_thunks.obj
 0001:0003cb10       no_op_initialize           000000018003db10 f   libucrt:wsetlocale.obj
 0001:0003cb14       ??$?RV<lambda_1d892b297fdedeee07ed8124eeb2f2fa>@@AEAV<lambda_ffc046909424fd52df0ac47e64813305>@@V<lambda_01a7098693036236037e7cdb9bca3d73>@@@?$__crt_seh_guarded_call@X@@QEAAX$$QEAV<lambda_1d892b297fdedeee07ed8124eeb2f2fa>@@AEAV<lambda_ffc046909424fd52df0ac47e64813305>@@$$QEAV<lambda_01a7098693036236037e7cdb9bca3d73>@@@Z 000000018003db14 f   libucrt:wsetlocale.obj
 0001:0003cc50       ??$?RV<lambda_410d79af7f07d98d83a3f525b3859a53>@@AEAV<lambda_3e16ef9562a7dcce91392c22ab16ea36>@@V<lambda_38119f0e861e05405d8a144b9b982f0a>@@@?$__crt_seh_guarded_call@X@@QEAAX$$QEAV<lambda_410d79af7f07d98d83a3f525b3859a53>@@AEAV<lambda_3e16ef9562a7dcce91392c22ab16ea36>@@$$QEAV<lambda_38119f0e861e05405d8a144b9b982f0a>@@@Z 000000018003dc50 f   libucrt:wsetlocale.obj
 0001:0003ccc0       ??$?RV<lambda_7f2adfce497ff2baa965cd4f576ecfd1>@@AEAV<lambda_2a444430fde8c29194d880d93eed5e8f>@@AEAV<lambda_8dff2cf36a5417162780cd64fa2883ef>@@@?$__crt_seh_guarded_call@X@@QEAAX$$QEAV<lambda_7f2adfce497ff2baa965cd4f576ecfd1>@@AEAV<lambda_2a444430fde8c29194d880d93eed5e8f>@@AEAV<lambda_8dff2cf36a5417162780cd64fa2883ef>@@@Z 000000018003dcc0 f   libucrt:wsetlocale.obj
 0001:0003ccec       ??R<lambda_2a444430fde8c29194d880d93eed5e8f>@@QEBA@XZ 000000018003dcec f   libucrt:wsetlocale.obj
 0001:0003d05c       _copytlocinfo_nolock       000000018003e05c f   libucrt:wsetlocale.obj
 0001:0003d60c       _wsetlocale_get_all        000000018003e60c f   libucrt:wsetlocale.obj
 0001:0003d7f8       _wsetlocale_nolock         000000018003e7f8 f   libucrt:wsetlocale.obj
 0001:0003da8c       _wsetlocale_set_cat        000000018003ea8c f   libucrt:wsetlocale.obj
 0001:0003de54       ?find_or_allocate_unused_stream_nolock@@YA?AV__crt_stdio_stream@@XZ 000000018003ee54 f   libucrt:stream.obj
 0001:0003e2a0       ??$?RV<lambda_751a882b2c74d4b022dec766aa51a29a>@@AEAV<lambda_628dfdc04ba53c8bfc02c9951375f3f5>@@V<lambda_f6c7be5f7998530c34de24c7437d6b54>@@@?$__crt_seh_guarded_call@H@@QEAAH$$QEAV<lambda_751a882b2c74d4b022dec766aa51a29a>@@AEAV<lambda_628dfdc04ba53c8bfc02c9951375f3f5>@@$$QEAV<lambda_f6c7be5f7998530c34de24c7437d6b54>@@@Z 000000018003f2a0 f   libucrt:close.obj
 0001:0003e9f8       ?internal_isupper_l@@YA_NHQEAU__crt_locale_pointers@@@Z 000000018003f9f8 f   libucrt:tolower_toupper.obj
 0001:0003efd0       ?fp_format_a@@YAHQEBNPEAD_KQEAD2H_NIQEAU__crt_locale_pointers@@@Z 000000018003ffd0 f   libucrt:cvt.obj
 0001:0003f340       ?fp_format_e@@YAHQEBNQEAD_K12H_NIQEAU__crt_locale_pointers@@@Z 0000000180040340 f   libucrt:cvt.obj
 0001:0003f41c       ?fp_format_e_internal@@YAHQEAD_KH_NIQEAU_strflt@@2QEAU__crt_locale_pointers@@@Z 000000018004041c f   libucrt:cvt.obj
 0001:0003f5f0       ?fp_format_f_internal@@YAHQEAD_KHQEAU_strflt@@_NQEAU__crt_locale_pointers@@@Z 00000001800405f0 f   libucrt:cvt.obj
 0001:0003f734       ?fp_format_g@@YAHQEBNQEAD_K12H_NIQEAU__crt_locale_pointers@@@Z 0000000180040734 f   libucrt:cvt.obj
 0001:0003f868       ?fp_format_nan_or_infinity@@YAHW4__acrt_fp_class@@_NPEAD_K1@Z 0000000180040868 f   libucrt:cvt.obj
 0001:0003fee4       ?initialize_inherited_file_handles_nolock@@YAXXZ 0000000180040ee4 f   libucrt:ioinit.obj
 0001:0003ffd4       ?initialize_stdio_handles_nolock@@YAXXZ 0000000180040fd4 f   libucrt:ioinit.obj
 0001:0004039c       ??$translate_text_mode_nolock@D@@YAHHQEAD_K@Z 000000018004139c f   libucrt:read.obj
 0001:00040568       ??$translate_text_mode_nolock@_W@@YAHHQEA_W_K@Z 0000000180041568 f   libucrt:read.obj
 0001:000407d4       ?translate_ansi_or_utf8_nolock@@YAHHQEAD_KQEA_W1@Z 00000001800417d4 f   libucrt:read.obj
 0001:0004114c       ?<lambda_invoker_cdecl>@<lambda_c2303d2482d7c3675ea2e24c4cfb6115>@@CAHPEBX0@Z 000000018004214c f   libucrt:argv_wildcards.obj
 0001:00041464       ??$common_expand_argv_wildcards@D@@YAHQEAPEADQEAPEAPEAD@Z 0000000180042464 f   libucrt:argv_wildcards.obj
 0001:00041670       ??$copy_and_add_argument_to_buffer@D@@YAHQEBD0_KAEAV?$argument_list@D@?A0x5f5c8891@@@Z 0000000180042670 f   libucrt:argv_wildcards.obj
 0001:000417f8       ??$expand_argument_wildcards@D@@YAHQEAD0AEAV?$argument_list@D@?A0x5f5c8891@@@Z 00000001800427f8 f   libucrt:argv_wildcards.obj
 0001:00041b10       ??$?RV<lambda_efdfa57d1f175319df784efa44bb7b81>@@AEAV<lambda_5f0a4c1567f8adc6734073e5d1e1b35c>@@V<lambda_2e8a7d3640ea6ccb4c2413664c2db6fd>@@@?$__crt_seh_guarded_call@X@@QEAAX$$QEAV<lambda_efdfa57d1f175319df784efa44bb7b81>@@AEAV<lambda_5f0a4c1567f8adc6734073e5d1e1b35c>@@$$QEAV<lambda_2e8a7d3640ea6ccb4c2413664c2db6fd>@@@Z 0000000180042b10 f   libucrt:mbctype.obj
 0001:00041ccc       ?getSystemCP@@YAHH@Z       0000000180042ccc f   libucrt:mbctype.obj
 0001:00041d4c       ?setSBCS@@YAXPEAU__crt_multibyte_data@@@Z 0000000180042d4c f   libucrt:mbctype.obj
 0001:00041ddc       ?setSBUpLow@@YAXPEAU__crt_multibyte_data@@@Z 0000000180042ddc f   libucrt:mbctype.obj
 0001:00041fc0       ?setmbcp_internal@@YAHH_NQEAU__acrt_ptd@@QEAPEAU__crt_multibyte_data@@@Z 0000000180042fc0 f   libucrt:mbctype.obj
 0001:00042184       ?update_thread_multibyte_data_internal@@YAPEAU__crt_multibyte_data@@QEAU__acrt_ptd@@QEAPEAU1@@Z 0000000180043184 f   libucrt:mbctype.obj
 0001:00042574       ?x_ismbbtype_l@@YAHPEAU__crt_locale_pointers@@IHH@Z 0000000180043574 f   libucrt:ismbbyte.obj
 0001:00042820       ??$common_set_variable_in_environment_nolock@D@@YAHQEADH@Z 0000000180043820 f   libucrt:setenv.obj
 0001:00042b40       ??$copy_environment@D@@YAPEAPEADQEAPEAD@Z 0000000180043b40 f   libucrt:setenv.obj
 0001:00042ee8       ??$?RV<lambda_a37b2b86f63e897a80ea819b0eb08c01>@@AEAV<lambda_38ce7e780aa69e748d6df282ebc68efe>@@V<lambda_99fb1378e971ab6e7edea83e3a7a83a2>@@@?$__crt_seh_guarded_call@H@@QEAAH$$QEAV<lambda_a37b2b86f63e897a80ea819b0eb08c01>@@AEAV<lambda_38ce7e780aa69e748d6df282ebc68efe>@@$$QEAV<lambda_99fb1378e971ab6e7edea83e3a7a83a2>@@@Z 0000000180043ee8 f   libucrt:commit.obj
 0001:00043008       ?write_double_translated_ansi_nolock@@YA?AUwrite_result@?A0x17268360@@HQEBDI@Z 0000000180044008 f   libucrt:write.obj
 0001:000434e4       ?write_text_ansi_nolock@@YA?AUwrite_result@?A0x17268360@@HQEBDI@Z 00000001800444e4 f   libucrt:write.obj
 0001:000435e8       ?write_text_utf16le_nolock@@YA?AUwrite_result@?A0x17268360@@HQEBDI@Z 00000001800445e8 f   libucrt:write.obj
 0001:00043704       ?write_text_utf8_nolock@@YA?AUwrite_result@?A0x17268360@@HQEBDI@Z 0000000180044704 f   libucrt:write.obj
 0001:00044320       ?GetTableIndexFromLocaleName@@YAHPEB_W@Z 0000000180045320 f   libucrt:lcidtoname_downlevel.obj
 0001:00045514       ?free_crt_array_internal@@YAXQEAPEBX_K@Z 0000000180046514 f   libucrt:inittime.obj
 0001:0004556c       ?initialize_lc_time@@YA_NQEAU__crt_lc_time_data@@QEAU__crt_locale_data@@@Z 000000018004656c f   libucrt:inittime.obj
 0001:00045dec       GetLocaleNameFromDefault   0000000180046dec f   libucrt:get_qualified_locale.obj
 0001:00045e94       GetLocaleNameFromLangCountry 0000000180046e94 f   libucrt:get_qualified_locale.obj
 0001:00045f64       GetLocaleNameFromLanguage  0000000180046f64 f   libucrt:get_qualified_locale.obj
 0001:00045ffc       LangCountryEnumProcEx      0000000180046ffc f   libucrt:get_qualified_locale.obj
 0001:000462e8       LanguageEnumProcEx         00000001800472e8 f   libucrt:get_qualified_locale.obj
 0001:000463d4       ProcessCodePage            00000001800473d4 f   libucrt:get_qualified_locale.obj
 0001:000464a0       TestDefaultCountry         00000001800474a0 f   libucrt:get_qualified_locale.obj
 0001:00046504       TranslateName              0000000180047504 f   libucrt:get_qualified_locale.obj
 0001:00046804       CountryEnumProc            0000000180047804 f   libucrt:getqloc_downlevel.obj
 0001:000468ec       GetLcidFromLangCountry     00000001800478ec f   libucrt:getqloc_downlevel.obj
 0001:000469bc       GetLcidFromLanguage        00000001800479bc f   libucrt:getqloc_downlevel.obj
 0001:00046a54       LangCountryEnumProc        0000000180047a54 f   libucrt:getqloc_downlevel.obj
 0001:00046ca0       LanguageEnumProc           0000000180047ca0 f   libucrt:getqloc_downlevel.obj
 0001:00046da8       LcidFromHexString          0000000180047da8 f   libucrt:getqloc_downlevel.obj
 0001:00046df8       ProcessCodePage            0000000180047df8 f   libucrt:getqloc_downlevel.obj
 0001:00046ea8       TestDefaultLanguage        0000000180047ea8 f   libucrt:getqloc_downlevel.obj
 0001:00046f54       TranslateName              0000000180047f54 f   libucrt:getqloc_downlevel.obj
 0001:000475b0       ??$common_sopen_dispatch@D@@YAHQEBDHHHQEAHH@Z 00000001800485b0 f   libucrt:open.obj
 0001:00047674       ?configure_text_mode@@YAHHUfile_options@?A0xa9d50aae@@HAEAW4__crt_lowio_text_mode@@@Z 0000000180048674 f   libucrt:open.obj
 0001:00047908       ?decode_options@@YA?AUfile_options@?A0xa9d50aae@@HHH@Z 0000000180048908 f   libucrt:open.obj
 0001:00047b14       ?truncate_ctrl_z_if_present@@YAHH@Z 0000000180048b14 f   libucrt:open.obj
 0001:00048638       ?InternalCompareStringA@@YAHPEAU__crt_locale_pointers@@PEB_WKPEBDH2HH@Z 0000000180049638 f   libucrt:comparestringa.obj
 0001:00048a24       ?__acrt_LCMapStringA_stat@@YAHPEAU__crt_locale_pointers@@PEB_WKPEBDHPEADHHH@Z 0000000180049a24 f   libucrt:lcmapstringa.obj
 0001:0004a5e0       memcpy_s                   000000018004b5e0 f   libucrt:cfout.obj
 0001:0004a668       ??$write_buffer_nolock@D@@YA_NDV__crt_stdio_stream@@@Z 000000018004b668 f   libucrt:_flsbuf.obj
 0001:0004a74c       ??$write_buffer_nolock@_W@@YA_N_WV__crt_stdio_stream@@@Z 000000018004b74c f   libucrt:_flsbuf.obj
 0001:0004a834       ?stream_is_at_end_of_file_nolock@@YA_NV__crt_stdio_stream@@@Z 000000018004b834 f   libucrt:_flsbuf.obj
 0001:0004aae4       ??$common_lseek@_J@@YA_JH_JH@Z 000000018004bae4 f   libucrt:lseek.obj
 0001:0004abd4       ??$common_lseek_nolock@_J@@YA_JH_JH@Z 000000018004bbd4 f   libucrt:lseek.obj
 0001:0004b184       fallbackMethod             000000018004c184 f   libucrt:strpbrk.obj
 0001:0004b554       $LN78                      000000018004c554     libucrt:strpbrk.obj
 0001:0004b590       $LN77                      000000018004c590     libucrt:strpbrk.obj
 0001:0004b5d0       $LN76                      000000018004c5d0     libucrt:strpbrk.obj
 0001:0004b6ac       ?initialize_multibyte@@YAHXZ 000000018004c6ac f   libucrt:multibyte_initializer.obj
 0001:0004bb58       ?InternalGetLocaleInfoA@@YAHQEAU__crt_locale_pointers@@QEB_WKQEADH@Z 000000018004cb58 f   libucrt:getlocaleinfoa.obj
 0001:0004c3b0       $$000000                   000000018004d3b0     libucrt:log10.obj
 0001:0004ce98       _call_matherr              000000018004de98 f   libucrt:libm_error.obj
 0001:0004cf00       _exception_enabled         000000018004df00 f   libucrt:libm_error.obj
 0001:0004d190       _log_special_common        000000018004e190 f   libucrt:log_special.obj
 0001:0004d230       $$000000                   000000018004e230     libucrt:fpsr.obj
 0001:0004df00       $$000000                   000000018004ef00     LIBCMT:chkstk.obj
 0001:0004df70       $$000000                   000000018004ef70     libvcruntime:memcmp.obj
 0001:0004e230       $$000000                   000000018004f230     LIBCMT:guard_dispatch.obj
 0001:0004e250       ?fin$0@?0??dllmain_crt_process_attach@@YAHQEAUHINSTANCE__@@QEAX@Z@4HA 000000018004f250 f   LIBCMT:dll_dllmain.obj
 0001:0004e267       ?fin$0@?0??dllmain_crt_process_detach@@YAH_N@Z@4HA 000000018004f267 f   LIBCMT:dll_dllmain.obj
 0001:0004e283       ?filt$0@?0??dllmain_dispatch@@YAHQEAUHINSTANCE__@@KQEAX@Z@4HA 000000018004f283 f   LIBCMT:dll_dllmain.obj
 0001:0004e2b9       __scrt_is_nonwritable_in_current_image$filt$0 000000018004f2b9 f   LIBCMT:utility.obj
 0001:0004e2d1       __DestructExceptionObject$filt$0 000000018004f2d1 f   libvcruntime:ehhelpers.obj
 0001:0004e2e9       ?filt$0@?0???$_CallSETranslator@V__FrameHandler3@@@@YAHPEAUEHExceptionRecord@@PEA_KPEAU_CONTEXT@@PEAU_xDISPATCHER_CONTEXT@@PEBU_s_FuncInfo@@K1@Z@4HA 000000018004f2e9 f   libvcruntime:risctrnsctrl.obj
 0001:0004e37a       ?filt$0@?0??CxxCallCatchBlock@__FrameHandler3@@SAPEAXPEAU_EXCEPTION_RECORD@@@Z@4HA 000000018004f37a f   libvcruntime:frame.obj
 0001:0004e39f       ?fin$1@?0??CxxCallCatchBlock@__FrameHandler3@@SAPEAXPEAU_EXCEPTION_RECORD@@@Z@4HA 000000018004f39f f   libvcruntime:frame.obj
 0001:0004e417       ?filt$0@?0??FrameUnwindToState@__FrameHandler3@@SAXPEA_KPEAU_xDISPATCHER_CONTEXT@@PEBU_s_FuncInfo@@H@Z@4HA 000000018004f417 f   libvcruntime:frame.obj
 0001:0004e42d       ?fin$1@?0??FrameUnwindToState@__FrameHandler3@@SAXPEA_KPEAU_xDISPATCHER_CONTEXT@@PEBU_s_FuncInfo@@H@Z@4HA 000000018004f42d f   libvcruntime:frame.obj
 0001:0004e450       ?fin$0@?0???$?RV<lambda_7777bce6b2f8c936911f934f8298dc43>@@AEAV<lambda_f03950bc5685219e0bcd2087efbe011e>@@V<lambda_3883c3dff614d5e0c5f61bb1ac94921c>@@@?$__crt_seh_guarded_call@H@@QEAAH$$QEAV<lambda_7777bce6b2f8c936911f934f8298dc43>@@AEAV<lambda_f03950bc5685219e0bcd2087efbe011e>@@$$QEAV<lambda_3883c3dff614d5e0c5f61bb1ac94921c>@@@Z@4HA 000000018004f450 f   libucrt:onexit.obj
 0001:0004e450       ?fin$0@?0???$?RV<lambda_0ae27a3a962d80f24befdcbee591983d>@@AEAV<lambda_8d0ee55de4b1038c4002e0adecdf1839>@@V<lambda_dc504788e8f1664fe9b84e20bfb512f2>@@@?$__crt_seh_guarded_call@X@@QEAAX$$QEAV<lambda_0ae27a3a962d80f24befdcbee591983d>@@AEAV<lambda_8d0ee55de4b1038c4002e0adecdf1839>@@$$QEAV<lambda_dc504788e8f1664fe9b84e20bfb512f2>@@@Z@4HA 000000018004f450 f   libucrt:per_thread_data.obj
 0001:0004e450       ?fin$0@?0???$?RV<lambda_d80eeec6fff315bfe5c115232f3240e3>@@AEAV<lambda_6e4b09c48022b2350581041d5f6b0c4c>@@V<lambda_2358e3775559c9db80273638284d5e45>@@@?$__crt_seh_guarded_call@X@@QEAAX$$QEAV<lambda_d80eeec6fff315bfe5c115232f3240e3>@@AEAV<lambda_6e4b09c48022b2350581041d5f6b0c4c>@@$$QEAV<lambda_2358e3775559c9db80273638284d5e45>@@@Z@4HA 000000018004f450 f   libucrt:exit.obj
 0001:0004e450       ?fin$0@?0???$?RV<lambda_aa87e3671a710a21b5dc78c0bdf72e11>@@AEAV<lambda_92619d2358a28f41a33ba319515a20b9>@@V<lambda_6992ecaafeb10aed2b74cb1fae11a551>@@@?$__crt_seh_guarded_call@X@@QEAAX$$QEAV<lambda_aa87e3671a710a21b5dc78c0bdf72e11>@@AEAV<lambda_92619d2358a28f41a33ba319515a20b9>@@$$QEAV<lambda_6992ecaafeb10aed2b74cb1fae11a551>@@@Z@4HA 000000018004f450 f   libucrt:per_thread_data.obj
 0001:0004e450       ?fin$0@?0???$?RV<lambda_450d765d439847d4c735a33c368b5fc0>@@AEAV<lambda_44731a7d0e6d81c3e6aa82d741081786>@@V<lambda_601a2a7da3b7a96e9554ac7215c4b07c>@@@?$__crt_seh_guarded_call@P6AXH@Z@@QEAAP6AXH@Z$$QEAV<lambda_450d765d439847d4c735a33c368b5fc0>@@AEAV<lambda_44731a7d0e6d81c3e6aa82d741081786>@@$$QEAV<lambda_601a2a7da3b7a96e9554ac7215c4b07c>@@@Z@4HA 000000018004f450 f   libucrt:signal.obj
 0001:0004e450       ?fin$0@?0???$?RV<lambda_9bd929c17696992ce54f1d748594fc62>@@AEAV<lambda_082c17da81b0962e08c0587ee0fac50c>@@V<lambda_9c08ac857f4975304d44e9f601d9b878>@@@?$__crt_seh_guarded_call@PEAD@@QEAAPEAD$$QEAV<lambda_9bd929c17696992ce54f1d748594fc62>@@AEAV<lambda_082c17da81b0962e08c0587ee0fac50c>@@$$QEAV<lambda_9c08ac857f4975304d44e9f601d9b878>@@@Z@4HA 000000018004f450 f   libucrt:setlocale.obj
 0001:0004e450       ?fin$0@?0???$?RV<lambda_1d892b297fdedeee07ed8124eeb2f2fa>@@AEAV<lambda_ffc046909424fd52df0ac47e64813305>@@V<lambda_01a7098693036236037e7cdb9bca3d73>@@@?$__crt_seh_guarded_call@X@@QEAAX$$QEAV<lambda_1d892b297fdedeee07ed8124eeb2f2fa>@@AEAV<lambda_ffc046909424fd52df0ac47e64813305>@@$$QEAV<lambda_01a7098693036236037e7cdb9bca3d73>@@@Z@4HA 000000018004f450 f   libucrt:wsetlocale.obj
 0001:0004e450       ?fin$0@?0???$?RV<lambda_efdfa57d1f175319df784efa44bb7b81>@@AEAV<lambda_5f0a4c1567f8adc6734073e5d1e1b35c>@@V<lambda_2e8a7d3640ea6ccb4c2413664c2db6fd>@@@?$__crt_seh_guarded_call@X@@QEAAX$$QEAV<lambda_efdfa57d1f175319df784efa44bb7b81>@@AEAV<lambda_5f0a4c1567f8adc6734073e5d1e1b35c>@@$$QEAV<lambda_2e8a7d3640ea6ccb4c2413664c2db6fd>@@@Z@4HA 000000018004f450 f   libucrt:mbctype.obj
 0001:0004e450       ?fin$0@?0???$?RV<lambda_2d41944a1d46af3157314b8a01080d33>@@AEAV<lambda_8f455de75cd7d7f24b4096f044d8b9e6>@@V<lambda_aa500f224e6afead328df44964fe2772>@@@?$__crt_seh_guarded_call@X@@QEAAX$$QEAV<lambda_2d41944a1d46af3157314b8a01080d33>@@AEAV<lambda_8f455de75cd7d7f24b4096f044d8b9e6>@@$$QEAV<lambda_aa500f224e6afead328df44964fe2772>@@@Z@4HA 000000018004f450 f   libucrt:per_thread_data.obj
 0001:0004e450       ?fin$0@?0???$?RV<lambda_bd00b5aa228bd7e7e5b2b5db5fd2933b>@@AEAV<lambda_777d11615145f89ee95b9466d285deeb>@@V<lambda_6e5e48fbd24f9f8f81b203eb3d877683>@@@?$__crt_seh_guarded_call@H@@QEAAH$$QEAV<lambda_bd00b5aa228bd7e7e5b2b5db5fd2933b>@@AEAV<lambda_777d11615145f89ee95b9466d285deeb>@@$$QEAV<lambda_6e5e48fbd24f9f8f81b203eb3d877683>@@@Z@4HA 000000018004f450 f   libucrt:winapi_thunks.obj
 0001:0004e450       ?fin$0@?0???$?RV<lambda_f2e299630e499de9f9a165e60fcd3db5>@@AEAV<lambda_2ae9d31cdba2644fcbeaf08da7c24588>@@V<lambda_40d01ff24d0e7b3814fdbdcee8eab3c7>@@@?$__crt_seh_guarded_call@X@@QEAAX$$QEAV<lambda_f2e299630e499de9f9a165e60fcd3db5>@@AEAV<lambda_2ae9d31cdba2644fcbeaf08da7c24588>@@$$QEAV<lambda_40d01ff24d0e7b3814fdbdcee8eab3c7>@@@Z@4HA 000000018004f450 f   libucrt:per_thread_data.obj
 0001:0004e46a       ?fin$0@?0???$common_fsopen@D@@YAPEAU_iobuf@@QEBD0H@Z@4HA 000000018004f46a f   libucrt:fopen.obj
 0001:0004e495       fclose$fin$0               000000018004f495 f   libucrt:fclose.obj
 0001:0004e4ad       ?fin$0@?0???$common_getenv@D@@YAPEADQEBD@Z@4HA 000000018004f4ad f   libucrt:getenv.obj
 0001:0004e4c6       ?fin$0@?0???$?RV<lambda_c376a267cfb53b6959b3b692ec76b120>@@AEAV<lambda_9a32fed5bf61b6b509b2d3f6003082a1>@@V<lambda_572fbb9fa0ab338edf41edfd4b5fcc8d>@@@?$__crt_seh_guarded_call@H@@QEAAH$$QEAV<lambda_c376a267cfb53b6959b3b692ec76b120>@@AEAV<lambda_9a32fed5bf61b6b509b2d3f6003082a1>@@$$QEAV<lambda_572fbb9fa0ab338edf41edfd4b5fcc8d>@@@Z@4HA 000000018004f4c6 f   libucrt:fflush.obj
 0001:0004e4c6       ?fin$0@?0???$?RV<lambda_a62c933ada0517137acf5807a1eeac1f>@@AEAV<lambda_a31071773b9a94e445cbd5d04ef99106>@@V<lambda_56065050dbf3ada7e59a83db45153de3>@@@?$__crt_seh_guarded_call@H@@QEAAH$$QEAV<lambda_a62c933ada0517137acf5807a1eeac1f>@@AEAV<lambda_a31071773b9a94e445cbd5d04ef99106>@@$$QEAV<lambda_56065050dbf3ada7e59a83db45153de3>@@@Z@4HA 000000018004f4c6 f   libucrt:output.obj
 0001:0004e4c6       ?fin$0@?0???$?RV<lambda_84ec643ea9557e2f7dc01bb0e9624395>@@AEAV<lambda_ca71763b3c0644891230e4f79ea54fa6>@@V<lambda_439a761618c59b0600e24586724d733b>@@@?$__crt_seh_guarded_call@H@@QEAAH$$QEAV<lambda_84ec643ea9557e2f7dc01bb0e9624395>@@AEAV<lambda_ca71763b3c0644891230e4f79ea54fa6>@@$$QEAV<lambda_439a761618c59b0600e24586724d733b>@@@Z@4HA 000000018004f4c6 f   libucrt:setvbuf.obj
 0001:0004e4c6       ?fin$0@?0???$?RV<lambda_842d9ff0dc9ef11c61343bbaebe7f885>@@AEAV<lambda_c5860995281e5c4ce005b3de8f5874ee>@@V<lambda_d90129c13df834fdcbf8d2b88dafcf2d>@@@?$__crt_seh_guarded_call@X@@QEAAX$$QEAV<lambda_842d9ff0dc9ef11c61343bbaebe7f885>@@AEAV<lambda_c5860995281e5c4ce005b3de8f5874ee>@@$$QEAV<lambda_d90129c13df834fdcbf8d2b88dafcf2d>@@@Z@4HA 000000018004f4c6 f   libucrt:fflush.obj
 0001:0004e4c6       ?fin$0@?0???$?RV<lambda_0d412022a4b28cc8a401ea49574e8ae6>@@AEAV<lambda_a775ed57af18ba8e4d5dc780aa9068fe>@@V<lambda_975a71a6baa488a08f4e15f6b0339b9e>@@@?$__crt_seh_guarded_call@H@@QEAAH$$QEAV<lambda_0d412022a4b28cc8a401ea49574e8ae6>@@AEAV<lambda_a775ed57af18ba8e4d5dc780aa9068fe>@@$$QEAV<lambda_975a71a6baa488a08f4e15f6b0339b9e>@@@Z@4HA 000000018004f4c6 f   libucrt:output.obj
 0001:0004e4e1       ?fin$0@?0???$common_fgets@D@@YAPEADQEADHV__crt_stdio_stream@@@Z@4HA 000000018004f4e1 f   libucrt:fgets.obj
 0001:0004e4f9       fread_s$fin$0              000000018004f4f9 f   libucrt:fread.obj
 0001:0004e511       _query_new_handler$fin$0   000000018004f511 f   libucrt:new_handler.obj
 0001:0004e527       ?filt$0@?0???R<lambda_6e4b09c48022b2350581041d5f6b0c4c>@@QEBA@XZ@4HA 000000018004f527 f   libucrt:exit.obj
 0001:0004e542       ?fin$0@?0???$?RV<lambda_886d6c58226a84441f68b9f2b8217b83>@@AEAV<lambda_ab61a845afdef5b7c387490eaf3616ee>@@V<lambda_f7f22ab5edc0698d5f6905b0d3f44752>@@@?$__crt_seh_guarded_call@X@@QEAAX$$QEAV<lambda_886d6c58226a84441f68b9f2b8217b83>@@AEAV<lambda_ab61a845afdef5b7c387490eaf3616ee>@@$$QEAV<lambda_f7f22ab5edc0698d5f6905b0d3f44752>@@@Z@4HA 000000018004f542 f   libucrt:fflush.obj
 0001:0004e55f       raise$fin$0                000000018004f55f f   libucrt:signal.obj
 0001:0004e580       ?dtor$0@?0??_wcstombs_l_helper@@YA_KPEADPEB_W_KPEAU__crt_locale_pointers@@@Z@4HA 000000018004f580 f   libucrt:wcstombs.obj
 0001:0004e58c       ?fin$0@?0???$?RV<lambda_410d79af7f07d98d83a3f525b3859a53>@@AEAV<lambda_3e16ef9562a7dcce91392c22ab16ea36>@@V<lambda_38119f0e861e05405d8a144b9b982f0a>@@@?$__crt_seh_guarded_call@X@@QEAAX$$QEAV<lambda_410d79af7f07d98d83a3f525b3859a53>@@AEAV<lambda_3e16ef9562a7dcce91392c22ab16ea36>@@$$QEAV<lambda_38119f0e861e05405d8a144b9b982f0a>@@@Z@4HA 000000018004f58c f   libucrt:wsetlocale.obj
 0001:0004e5a6       ?fin$0@?0???$?RV<lambda_7f2adfce497ff2baa965cd4f576ecfd1>@@AEAV<lambda_2a444430fde8c29194d880d93eed5e8f>@@AEAV<lambda_8dff2cf36a5417162780cd64fa2883ef>@@@?$__crt_seh_guarded_call@X@@QEAAX$$QEAV<lambda_7f2adfce497ff2baa965cd4f576ecfd1>@@AEAV<lambda_2a444430fde8c29194d880d93eed5e8f>@@AEAV<lambda_8dff2cf36a5417162780cd64fa2883ef>@@@Z@4HA 000000018004f5a6 f   libucrt:wsetlocale.obj
 0001:0004e5c7       _fcloseall$fin$0           000000018004f5c7 f   libucrt:closeall.obj
 0001:0004e5c7       ?fin$0@?0??__acrt_stdio_allocate_stream@@YA?AV__crt_stdio_stream@@XZ@4HA 000000018004f5c7 f   libucrt:stream.obj
 0001:0004e5e0       ?fin$0@?0???$?RV<lambda_a37b2b86f63e897a80ea819b0eb08c01>@@AEAV<lambda_38ce7e780aa69e748d6df282ebc68efe>@@V<lambda_99fb1378e971ab6e7edea83e3a7a83a2>@@@?$__crt_seh_guarded_call@H@@QEAAH$$QEAV<lambda_a37b2b86f63e897a80ea819b0eb08c01>@@AEAV<lambda_38ce7e780aa69e748d6df282ebc68efe>@@$$QEAV<lambda_99fb1378e971ab6e7edea83e3a7a83a2>@@@Z@4HA 000000018004f5e0 f   libucrt:commit.obj
 0001:0004e5e0       ?fin$0@?0???$?RV<lambda_751a882b2c74d4b022dec766aa51a29a>@@AEAV<lambda_628dfdc04ba53c8bfc02c9951375f3f5>@@V<lambda_f6c7be5f7998530c34de24c7437d6b54>@@@?$__crt_seh_guarded_call@H@@QEAAH$$QEAV<lambda_751a882b2c74d4b022dec766aa51a29a>@@AEAV<lambda_628dfdc04ba53c8bfc02c9951375f3f5>@@$$QEAV<lambda_f6c7be5f7998530c34de24c7437d6b54>@@@Z@4HA 000000018004f5e0 f   libucrt:close.obj
 0001:0004e5fa       _alloc_osfhnd$fin$0        000000018004f5fa f   libucrt:osfinfo.obj
 0001:0004e5fa       __acrt_lowio_ensure_fh_exists$fin$0 000000018004f5fa f   libucrt:osfinfo.obj
 0001:0004e5fa       __acrt_initialize_lowio$fin$0 000000018004f5fa f   libucrt:ioinit.obj
 0001:0004e613       _read$fin$0                000000018004f613 f   libucrt:read.obj
 0001:0004e62a       ?fin$0@?0??update_thread_multibyte_data_internal@@YAPEAU__crt_multibyte_data@@QEAU__acrt_ptd@@QEAPEAU1@@Z@4HA 000000018004f62a f   libucrt:mbctype.obj
 0001:0004e643       _write$fin$0               000000018004f643 f   libucrt:write.obj
 0001:0004e643       ?fin$0@?0???$common_lseek@_J@@YA_JH_JH@Z@4HA 000000018004f643 f   libucrt:lseek.obj
 0001:0004e65a       __acrt_update_thread_locale_data$fin$0 000000018004f65a f   libucrt:locale_refcounting.obj
 0001:0004e673       ?fin$0@?0???$common_sopen_dispatch@D@@YAHQEBDHHHQEAHH@Z@4HA 000000018004f673 f   libucrt:open.obj
 0001:0004e6c6       _ctrlfp$filt$0             000000018004f6c6 f   libucrt:fpctrl.obj
 0001:0004e700       _IsNonwritableInCurrentImage$filt$0 000000018004f700 f   LIBCMT:pesect.obj
 0002:00000440       GS_ExceptionPointers       0000000180050440     LIBCMT:gs_report.obj
 0002:00000490       ?ExceptionTemplate@?1??_CxxThrowException@@9@4UEHExceptionRecord@@B 0000000180050490     libvcruntime:throw.obj
 0002:000004e0       ?tokenTable@@3QBQEBDB      00000001800504e0     libvcruntime:undname.obj
 0002:00000560       ?nameTable@@3QBQEBDB       0000000180050560     libvcruntime:undname.obj
 0002:000007f0       ?rttiTable@@3QBQEBDB       00000001800507f0     libvcruntime:undname.obj
 0002:00000e98       ?module_names@?A0x14c33c87@@3QBQEB_WB 0000000180050e98     libvcruntime:winapi_downlevel.obj
 0002:00000f68       ?candidate_modules@?1??try_get_FlsAlloc@@YAP6AKP6AXPEAX@Z@ZXZ@4QBW4module_id@?A0x14c33c87@@B 0000000180050f68     libvcruntime:winapi_downlevel.obj
 0002:00000f80       ?candidate_modules@?1??try_get_FlsFree@@YAP6AHK@ZXZ@4QBW4module_id@?A0x14c33c87@@B 0000000180050f80     libvcruntime:winapi_downlevel.obj
 0002:00000f90       ?candidate_modules@?1??try_get_FlsGetValue@@YAP6APEAXK@ZXZ@4QBW4module_id@?A0x14c33c87@@B 0000000180050f90     libvcruntime:winapi_downlevel.obj
 0002:00000fa8       ?candidate_modules@?1??try_get_FlsSetValue@@YAP6AHKPEAX@ZXZ@4QBW4module_id@?A0x14c33c87@@B 0000000180050fa8     libvcruntime:winapi_downlevel.obj
 0002:00000fc0       ?candidate_modules@?1??try_get_InitializeCriticalSectionEx@@YAP6AHPEAU_RTL_CRITICAL_SECTION@@KK@ZXZ@4QBW4module_id@?A0x14c33c87@@B 0000000180050fc0     libvcruntime:winapi_downlevel.obj
 0002:00000ff0       ?ExceptionTemplate@?1??UnwindNestedFrames@__FrameHandler3@@SAXPEA_KPEAUEHExceptionRecord@@PEAU_CONTEXT@@0PEAXPEBU_s_FuncInfo@@HHPEBU_s_HandlerType@@PEAU_xDISPATCHER_CONTEXT@@E@Z@4U_EXCEPTION_RECORD@@B 0000000180050ff0     libvcruntime:risctrnsctrl.obj
 0002:00001510       __acrt_initializers        0000000180051510     libucrt:initialization.obj
 0002:00001610       ?errtable@@3QBUerrentry@?A0x31fdb9ec@@B 0000000180051610     libucrt:errno.obj
 0002:00001778       $cppxdata$?_wcstombs_l_helper@@YA_KPEADPEB_W_KPEAU__crt_locale_pointers@@@Z 0000000180051778     libucrt:wcstombs.obj
 0002:000017a0       ?module_names@?A0x391cf84c@@3QBQEB_WB 00000001800517a0     libucrt:winapi_thunks.obj
 0002:00001d48       ?candidate_modules@?1??try_get_AreFileApisANSI@@YAP6AHXZXZ@4QBW4module_id@?A0x391cf84c@@B 0000000180051d48     libucrt:winapi_thunks.obj
 0002:00001d60       ?candidate_modules@?1??try_get_CompareStringEx@@YAP6AHPEB_WK0H0HPEAU_nlsversioninfo@@PEAX_J@ZXZ@4QBW4module_id@?A0x391cf84c@@B 0000000180051d60     libucrt:winapi_thunks.obj
 0002:00001d78       ?candidate_modules@?1??try_get_EnumSystemLocalesEx@@YAP6AHP6AHPEA_WK_J@ZK1PEAX@ZXZ@4QBW4module_id@?A0x391cf84c@@B 0000000180051d78     libucrt:winapi_thunks.obj
 0002:00001d98       ?candidate_modules@?1??try_get_FlsAlloc@@YAP6AKP6AXPEAX@Z@ZXZ@4QBW4module_id@?A0x391cf84c@@B 0000000180051d98     libucrt:winapi_thunks.obj
 0002:00001db0       ?candidate_modules@?1??try_get_FlsFree@@YAP6AHK@ZXZ@4QBW4module_id@?A0x391cf84c@@B 0000000180051db0     libucrt:winapi_thunks.obj
 0002:00001dc0       ?candidate_modules@?1??try_get_FlsGetValue@@YAP6APEAXK@ZXZ@4QBW4module_id@?A0x391cf84c@@B 0000000180051dc0     libucrt:winapi_thunks.obj
 0002:00001dd8       ?candidate_modules@?1??try_get_FlsSetValue@@YAP6AHKPEAX@ZXZ@4QBW4module_id@?A0x391cf84c@@B 0000000180051dd8     libucrt:winapi_thunks.obj
 0002:00001df0       ?candidate_modules@?1??try_get_GetActiveWindow@@YAP6APEAUHWND__@@XZXZ@4QBW4module_id@?A0x391cf84c@@B 0000000180051df0     libucrt:winapi_thunks.obj
 0002:00001e08       ?candidate_modules@?1??try_get_GetDateFormatEx@@YAP6AHPEB_WKPEBU_SYSTEMTIME@@0PEA_WH0@ZXZ@4QBW4module_id@?A0x391cf84c@@B 0000000180051e08     libucrt:winapi_thunks.obj
 0002:00001e20       ?candidate_modules@?1??try_get_GetLastActivePopup@@YAP6APEAUHWND__@@PEAU2@@ZXZ@4QBW4module_id@?A0x391cf84c@@B 0000000180051e20     libucrt:winapi_thunks.obj
 0002:00001e40       ?candidate_modules@?1??try_get_GetLocaleInfoEx@@YAP6AHPEB_WKPEA_WH@ZXZ@4QBW4module_id@?A0x391cf84c@@B 0000000180051e40     libucrt:winapi_thunks.obj
 0002:00001e58       ?candidate_modules@?1??try_get_GetProcessWindowStation@@YAP6APEAUHWINSTA__@@XZXZ@4QBW4module_id@?A0x391cf84c@@B 0000000180051e58     libucrt:winapi_thunks.obj
 0002:00001e78       ?candidate_modules@?1??try_get_GetTimeFormatEx@@YAP6AHPEB_WKPEBU_SYSTEMTIME@@0PEA_WH@ZXZ@4QBW4module_id@?A0x391cf84c@@B 0000000180051e78     libucrt:winapi_thunks.obj
 0002:00001e90       ?candidate_modules@?1??try_get_GetUserDefaultLocaleName@@YAP6AHPEA_WH@ZXZ@4QBW4module_id@?A0x391cf84c@@B 0000000180051e90     libucrt:winapi_thunks.obj
 0002:00001eb8       ?candidate_modules@?1??try_get_GetUserObjectInformationW@@YAP6AHPEAXH0KPEAK@ZXZ@4QBW4module_id@?A0x391cf84c@@B 0000000180051eb8     libucrt:winapi_thunks.obj
 0002:00001ee0       ?candidate_modules@?1??try_get_InitializeCriticalSectionEx@@YAP6AHPEAU_RTL_CRITICAL_SECTION@@KK@ZXZ@4QBW4module_id@?A0x391cf84c@@B 0000000180051ee0     libucrt:winapi_thunks.obj
 0002:00001f08       ?candidate_modules@?1??try_get_IsValidLocaleName@@YAP6AHPEB_W@ZXZ@4QBW4module_id@?A0x391cf84c@@B 0000000180051f08     libucrt:winapi_thunks.obj
 0002:00001f28       ?candidate_modules@?1??try_get_LCMapStringEx@@YAP6AHPEB_WK0HPEA_WHPEAU_nlsversioninfo@@PEAX_J@ZXZ@4QBW4module_id@?A0x391cf84c@@B 0000000180051f28     libucrt:winapi_thunks.obj
 0002:00001f40       ?candidate_modules@?1??try_get_LCIDToLocaleName@@YAP6AHKPEA_WHK@ZXZ@4QBW4module_id@?A0x391cf84c@@B 0000000180051f40     libucrt:winapi_thunks.obj
 0002:00001f60       ?candidate_modules@?1??try_get_LocaleNameToLCID@@YAP6AKPEB_WK@ZXZ@4QBW4module_id@?A0x391cf84c@@B 0000000180051f60     libucrt:winapi_thunks.obj
 0002:00001f80       ?candidate_modules@?1??try_get_MessageBoxA@@YAP6AHPEAUHWND__@@PEBD1I@ZXZ@4QBW4module_id@?A0x391cf84c@@B 0000000180051f80     libucrt:winapi_thunks.obj
 0002:00001f98       ?candidate_modules@?1??try_get_MessageBoxW@@YAP6AHPEAUHWND__@@PEB_W1I@ZXZ@4QBW4module_id@?A0x391cf84c@@B 0000000180051f98     libucrt:winapi_thunks.obj
 0002:00001fac       ?candidate_modules@?1??try_get_AppPolicyGetProcessTerminationMethod@@YAP6AJPEAXPEAW4AppPolicyProcessTerminationMethod@@@ZXZ@4QBW4module_id@?A0x391cf84c@@B 0000000180051fac     libucrt:winapi_thunks.obj
 0002:00001fd8       ?candidate_modules@?1??try_get_AppPolicyGetShowDeveloperDiagnostic@@YAP6AJPEAXPEAW4AppPolicyShowDeveloperDiagnostic@@@ZXZ@4QBW4module_id@?A0x391cf84c@@B 0000000180051fd8     libucrt:winapi_thunks.obj
 0002:00002004       ?candidate_modules@?1??try_get_AppPolicyGetWindowingModel@@YAP6AJPEAXPEAW4AppPolicyWindowingModel@@@ZXZ@4QBW4module_id@?A0x391cf84c@@B 0000000180052004     libucrt:winapi_thunks.obj
 0002:00002030       _first_127char             0000000180052030     libucrt:wsetlocale.obj
 0002:00003118       ?_mb_locale_names@@3QBQEB_WB 0000000180053118     libucrt:mbctype.obj
 0002:00003180       ?LcidToLocaleNameTable@?A0x881e4c05@@3QBULcidToLocaleName@1@B 0000000180053180     libucrt:lcidtoname_downlevel.obj
 0002:00004be0       ?LocaleNameToIndexTable@?A0x881e4c05@@3QBULocaleNameIndex@1@B 0000000180054be0     libucrt:lcidtoname_downlevel.obj
 0002:00007e40       __real_ninf                0000000180057e40     libucrt:log10.obj
 0002:00007e50       __real_inf                 0000000180057e50     libucrt:log10.obj
 0002:00007e60       __real_neg_qnan            0000000180057e60     libucrt:log10.obj
 0002:00007e70       __real_qnanbit             0000000180057e70     libucrt:log10.obj
 0002:00007e80       __int_1023                 0000000180057e80     libucrt:log10.obj
 0002:00007e90       __mask_001                 0000000180057e90     libucrt:log10.obj
 0002:00007ea0       __mask_mant                0000000180057ea0     libucrt:log10.obj
 0002:00007eb0       __mask_mant_top8           0000000180057eb0     libucrt:log10.obj
 0002:00007ec0       __mask_mant9               0000000180057ec0     libucrt:log10.obj
 0002:00007ed0       __real_log10_e             0000000180057ed0     libucrt:log10.obj
 0002:00007ee0       __real_log10_e_lead        0000000180057ee0     libucrt:log10.obj
 0002:00007ef0       __real_log10_e_tail        0000000180057ef0     libucrt:log10.obj
 0002:00007f00       __real_log10_2_lead        0000000180057f00     libucrt:log10.obj
 0002:00007f10       __real_log10_2_tail        0000000180057f10     libucrt:log10.obj
 0002:00007f20       __real_two                 0000000180057f20     libucrt:log10.obj
 0002:00007f30       __real_one                 0000000180057f30     libucrt:log10.obj
 0002:00007f40       __real_half                0000000180057f40     libucrt:log10.obj
 0002:00007f50       __mask_100                 0000000180057f50     libucrt:log10.obj
 0002:00007f60       __real_1_over_512          0000000180057f60     libucrt:log10.obj
 0002:00007f70       __real_1_over_2            0000000180057f70     libucrt:log10.obj
 0002:00007f80       __real_1_over_3            0000000180057f80     libucrt:log10.obj
 0002:00007f90       __real_1_over_4            0000000180057f90     libucrt:log10.obj
 0002:00007fa0       __real_1_over_5            0000000180057fa0     libucrt:log10.obj
 0002:00007fb0       __real_1_over_6            0000000180057fb0     libucrt:log10.obj
 0002:00007fc0       __real_neg_1023            0000000180057fc0     libucrt:log10.obj
 0002:00007fd0       __mask_2045                0000000180057fd0     libucrt:log10.obj
 0002:00007fe0       __real_threshold           0000000180057fe0     libucrt:log10.obj
 0002:00007ff0       __real_near_one_lt         0000000180057ff0     libucrt:log10.obj
 0002:00008000       __real_near_one_gt         0000000180058000     libucrt:log10.obj
 0002:00008010       __real_min_norm            0000000180058010     libucrt:log10.obj
 0002:00008020       __real_notsign             0000000180058020     libucrt:log10.obj
 0002:00008030       __real_ca1                 0000000180058030     libucrt:log10.obj
 0002:00008040       __real_ca2                 0000000180058040     libucrt:log10.obj
 0002:00008050       __real_ca3                 0000000180058050     libucrt:log10.obj
 0002:00008060       __real_ca4                 0000000180058060     libucrt:log10.obj
 0002:00008070       __mask_lower               0000000180058070     libucrt:log10.obj
 0002:00008080       __flag_x_zero              0000000180058080     libucrt:log10.obj
 0002:00008084       __flag_x_neg               0000000180058084     libucrt:log10.obj
 0002:00008088       __flag_x_nan               0000000180058088     libucrt:log10.obj
 0002:000098e0       __real@433fffffffffffff    00000001800598e0     libucrt:fpsr.obj
 0002:000098e8       __real@c33fffffffffffff    00000001800598e8     libucrt:fpsr.obj
 0002:00009f38       ??_7Spellchecker@?A0x27193ba4@@6B@ 0000000180059f38     main.obj
 0002:0000a2c8       ?W_VLINE@@3Uw_char@@B      000000018005a2c8     hunspell:suggestmgr.obj
 0002:0000b348       $unwind$?FunctionCallbackWrapper@imp@Nan@@YAXAEBV?$FunctionCallbackInfo@VValue@v8@@@v8@@@Z 000000018005b348     main.obj
 0002:0000b35c       $unwind$?New@?$Factory@VFunctionTemplate@v8@@@imp@Nan@@SA?AV?$Local@VFunctionTemplate@v8@@@v8@@P6AXAEBV?$FunctionCallbackInfo@VValue@v8@@@3@@ZV?$Local@VValue@v8@@@5@V?$Local@VSignature@v8@@@5@@Z 000000018005b35c     main.obj
 0002:0000b370       $chain$0$?New@?$Factory@VFunctionTemplate@v8@@@imp@Nan@@SA?AV?$Local@VFunctionTemplate@v8@@@v8@@P6AXAEBV?$FunctionCallbackInfo@VValue@v8@@@3@@ZV?$Local@VValue@v8@@@5@V?$Local@VSignature@v8@@@5@@Z 000000018005b370     main.obj
 0002:0000b384       $chain$1$?New@?$Factory@VFunctionTemplate@v8@@@imp@Nan@@SA?AV?$Local@VFunctionTemplate@v8@@@v8@@P6AXAEBV?$FunctionCallbackInfo@VValue@v8@@@3@@ZV?$Local@VValue@v8@@@5@V?$Local@VSignature@v8@@@5@@Z 000000018005b384     main.obj
 0002:0000b398       $chain$2$?New@?$Factory@VFunctionTemplate@v8@@@imp@Nan@@SA?AV?$Local@VFunctionTemplate@v8@@@v8@@P6AXAEBV?$FunctionCallbackInfo@VValue@v8@@@3@@ZV?$Local@VValue@v8@@@5@V?$Local@VSignature@v8@@@5@@Z 000000018005b398     main.obj
 0002:0000b3a8       $chain$3$?New@?$Factory@VFunctionTemplate@v8@@@imp@Nan@@SA?AV?$Local@VFunctionTemplate@v8@@@v8@@P6AXAEBV?$FunctionCallbackInfo@VValue@v8@@@3@@ZV?$Local@VValue@v8@@@5@V?$Local@VSignature@v8@@@5@@Z 000000018005b3a8     main.obj
 0002:0000b3b8       $unwind$?ThrowError@Nan@@YAXPEBD@Z 000000018005b3b8     main.obj
 0002:0000b3c0       $unwind$??0Utf8String@Nan@@QEAA@V?$Local@VValue@v8@@@v8@@@Z 000000018005b3c0     main.obj
 0002:0000b3cc       $chain$1$??0Utf8String@Nan@@QEAA@V?$Local@VValue@v8@@@v8@@@Z 000000018005b3cc     main.obj
 0002:0000b3e4       $chain$2$??0Utf8String@Nan@@QEAA@V?$Local@VValue@v8@@@v8@@@Z 000000018005b3e4     main.obj
 0002:0000b3f4       $unwind$__acrt_uninitialize_winapi_thunks 000000018005b3f4     libucrt:winapi_thunks.obj
 0002:0000b3f4       $unwind$??0exception@std@@QEAA@AEBV01@@Z 000000018005b3f4     libcpmt:xthrow.obj
 0002:0000b3f4       $unwind$?CheckSpelling@WindowsSpellchecker@spellchecker@@UEAA?AV?$vector@UMisspelledRange@spellchecker@@V?$allocator@UMisspelledRange@spellchecker@@@std@@@std@@PEBG_K@Z 000000018005b3f4     spellchecker_win.obj
 0002:0000b3f4       $unwind$??0bad_alloc@std@@QEAA@AEBV01@@Z 000000018005b3f4     libcpmt:xthrow.obj
 0002:0000b3f4       $unwind$?load_exe_hook@@YAP6A_JXZIPEAUDelayLoadInfo@@@Z 000000018005b3f4     win_delay_load_hook.obj
 0002:0000b3f4       $unwind$?state_case_normal@?$output_processor@DV?$stream_output_adapter@D@__crt_stdio_output@@V?$standard_base@DV?$stream_output_adapter@D@__crt_stdio_output@@@2@@__crt_stdio_output@@AEAA_NXZ 000000018005b3f4     libucrt:output.obj
 0002:0000b3f4       $unwind$??0logic_error@std@@QEAA@AEBV01@@Z 000000018005b3f4     libcpmt:xthrow.obj
 0002:0000b3f4       $unwind$?state_case_normal_tchar@?$output_processor@DV?$stream_output_adapter@D@__crt_stdio_output@@V?$standard_base@DV?$stream_output_adapter@D@__crt_stdio_output@@@2@@__crt_stdio_output@@AEAA_ND@Z 000000018005b3f4     libucrt:output.obj
 0002:0000b3f4       $unwind$__acrt_AppPolicyGetProcessTerminationMethodInternal 000000018005b3f4     libucrt:winapi_thunks.obj
 0002:0000b3f4       $unwind$??$Unwrap@VSpellchecker@?A0x27193ba4@@@ObjectWrap@Nan@@SAPEAVSpellchecker@?A0x27193ba4@@V?$Local@VObject@v8@@@v8@@@Z 000000018005b3f4     main.obj
 0002:0000b3f4       $unwind$__acrt_uninitialize_stdio 000000018005b3f4     libucrt:_file.obj
 0002:0000b3f4       $unwind$??0length_error@std@@QEAA@AEBV01@@Z 000000018005b3f4     libcpmt:xthrow.obj
 0002:0000b3f4       $unwind$?_Tidy@?$vector@UMisspelledRange@spellchecker@@V?$allocator@UMisspelledRange@spellchecker@@@std@@@std@@AEAAXXZ 000000018005b3f4     main.obj
 0002:0000b3f4       $unwind$wcscat_s           000000018005b3f4     libucrt:wcscat_s.obj
 0002:0000b3f4       $unwind$__scrt_uninitialize_crt 000000018005b3f4     LIBCMT:utility.obj
 0002:0000b3f4       $unwind$__acrt_AppPolicyGetShowDeveloperDiagnosticInternal 000000018005b3f4     libucrt:winapi_thunks.obj
 0002:0000b3f4       $unwind$?get_sfxcount@@YAHPEBD@Z 000000018005b3f4     hunspell:csutil.obj
 0002:0000b3f4       $unwind$_CreateFrameInfo   000000018005b3f4     libvcruntime:risctrnsctrl.obj
 0002:0000b3f4       $unwind$__acrt_AppPolicyGetWindowingModelInternal 000000018005b3f4     libucrt:winapi_thunks.obj
 0002:0000b3f4       $unwind$?type_case_c_tchar@?$output_processor@DV?$stream_output_adapter@D@__crt_stdio_output@@V?$standard_base@DV?$stream_output_adapter@D@__crt_stdio_output@@@2@@__crt_stdio_output@@AEAA_ND@Z 000000018005b3f4     libucrt:output.obj
 0002:0000b3f4       $unwind$__scrt_initialize_crt 000000018005b3f4     LIBCMT:utility.obj
 0002:0000b3f4       $unwind$?type_case_s@?$output_processor@DV?$stream_output_adapter@D@__crt_stdio_output@@V?$standard_base@DV?$stream_output_adapter@D@__crt_stdio_output@@@2@@__crt_stdio_output@@AEAA_NXZ 000000018005b3f4     libucrt:output.obj
 0002:0000b3f4       $unwind$__acrt_IsValidLocaleName 000000018005b3f4     libucrt:winapi_thunks.obj
 0002:0000b3f4       $unwind$_fflush_nolock     000000018005b3f4     libucrt:fflush.obj
 0002:0000b3f4       $unwind$?ExFilterRethrow@@YAHPEAU_EXCEPTION_POINTERS@@PEAUEHExceptionRecord@@PEAH@Z 000000018005b3f4     libvcruntime:frame.obj
 0002:0000b3f4       $unwind$__acrt_FlsAlloc    000000018005b3f4     libucrt:winapi_thunks.obj
 0002:0000b3f4       $unwind$__acrt_get_windowing_model_policy 000000018005b3f4     libucrt:win_policies.obj
 0002:0000b3f4       $unwind$??2@YAPEAX_K@Z     000000018005b3f4     LIBCMT:new_scalar.obj
 0002:0000b3f4       $unwind$__scrt_release_startup_lock 000000018005b3f4     LIBCMT:utility.obj
 0002:0000b3f4       $unwind$?exit_or_terminate_process@@YAXI@Z 000000018005b3f4     libucrt:exit.obj
 0002:0000b3f4       $unwind$__acrt_update_multibyte_info 000000018005b3f4     libucrt:locale_update.obj
 0002:0000b3f4       $unwind$?ExecutionInCatch@__FrameHandler3@@SA_NPEAU_xDISPATCHER_CONTEXT@@PEBU_s_FuncInfo@@@Z 000000018005b3f4     libvcruntime:risctrnsctrl.obj
 0002:0000b3f4       $unwind$__acrt_update_locale_info 000000018005b3f4     libucrt:locale_update.obj
 0002:0000b3f4       $unwind$?try_cor_exit_process@@YAXI@Z 000000018005b3f4     libucrt:exit.obj
 0002:0000b3f4       $unwind$_clrfp             000000018005b3f4     libucrt:fpctrl.obj
 0002:0000b3f4       $unwind$__acrt_stdio_free_buffer_nolock 000000018005b3f4     libucrt:_freebuf.obj
 0002:0000b3f4       $unwind$??_GSpellcheckerThreadView@spellchecker@@UEAAPEAXI@Z 000000018005b3f4     spellchecker_hunspell.obj
 0002:0000b3f4       $unwind$__acrt_uninitialize_locks 000000018005b3f4     libucrt:locks.obj
 0002:0000b3f4       $unwind$__acrt_getptd_head 000000018005b3f4     libucrt:per_thread_data.obj
 0002:0000b3f4       $unwind$?StateFromIp@__FrameHandler3@@SAHPEBU_s_FuncInfo@@PEAU_xDISPATCHER_CONTEXT@@_K@Z 000000018005b3f4     libvcruntime:ehstate.obj
 0002:0000b3f4       $unwind$__acrt_initialize_locks 000000018005b3f4     libucrt:locks.obj
 0002:0000b3f4       $unwind$?WeakCallback@ObjectWrap@Nan@@CAXAEBV?$WeakCallbackInfo@VObjectWrap@Nan@@@v8@@@Z 000000018005b3f4     main.obj
 0002:0000b3f4       $unwind$?Unref@ObjectWrap@Nan@@MEAAXXZ 000000018005b3f4     main.obj
 0002:0000b3f4       $unwind$?Ref@ObjectWrap@Nan@@MEAAXXZ 000000018005b3f4     main.obj
 0002:0000b3f4       $unwind$__std_exception_destroy 000000018005b3f4     libvcruntime:std_exception.obj
 0002:0000b3f4       $unwind$__std_type_info_destroy_list 000000018005b3f4     libvcruntime:std_type_info.obj
 0002:0000b3f4       $unwind$__acrt_freeptd     000000018005b3f4     libucrt:per_thread_data.obj
 0002:0000b3f4       $unwind$_SetImageBase      000000018005b3f4     libvcruntime:risctrnsctrl.obj
 0002:0000b3f4       $unwind$?AsyncExecuteComplete@Nan@@YAXPEAUuv_work_s@@@Z 000000018005b3f4     main.obj
 0002:0000b3f4       $unwind$??_GSpellcheckerImplementation@spellchecker@@UEAAPEAXI@Z 000000018005b3f4     spellchecker_hunspell.obj
 0002:0000b3f4       $unwind$__acrt_get_developer_information_policy 000000018005b3f4     libucrt:win_policies.obj
 0002:0000b3f4       $unwind$?CheckSpelling@WindowsSpellcheckerThreadView@spellchecker@@UEAA?AV?$vector@UMisspelledRange@spellchecker@@V?$allocator@UMisspelledRange@spellchecker@@@std@@@std@@PEBG_K@Z 000000018005b3f4     spellchecker_win.obj
 0002:0000b3f4       $unwind$__acrt_allocate_buffer_for_argv 000000018005b3f4     libucrt:argv_parsing.obj
 0002:0000b3f4       $unwind$__acrt_get_process_end_policy 000000018005b3f4     libucrt:win_policies.obj
 0002:0000b3f4       $unwind$?__c16rtomb_utf8@__crt_mbstring@@YA_KPEAD_SPEAU_Mbstatet@@@Z 000000018005b3f4     libucrt:c16rtomb.obj
 0002:0000b3f4       $unwind$?state_case_normal@?$output_processor@DV?$string_output_adapter@D@__crt_stdio_output@@V?$standard_base@DV?$string_output_adapter@D@__crt_stdio_output@@@2@@__crt_stdio_output@@AEAA_NXZ 000000018005b3f4     libucrt:output.obj
 0002:0000b3f4       $unwind$_set_statfp        000000018005b3f4     libucrt:fpctrl.obj
 0002:0000b3f4       $unwind$?CheckSpelling@SpellcheckerThreadView@spellchecker@@UEAA?AV?$vector@UMisspelledRange@spellchecker@@V?$allocator@UMisspelledRange@spellchecker@@@std@@@std@@PEBG_K@Z 000000018005b3f4     spellchecker_hunspell.obj
 0002:0000b3f4       $unwind$?mkinitcap2@Hunspell@@AEAAHPEADPEAUw_char@@H@Z 000000018005b3f4     hunspell:hunspell.obj
 0002:0000b3f4       $unwind$__acrt_FlsFree     000000018005b3f4     libucrt:winapi_thunks.obj
 0002:0000b3f4       $unwind$wcscpy_s           000000018005b3f4     libucrt:wcscpy_s.obj
 0002:0000b3f4       $unwind$_IsExceptionObjectToBeDestroyed 000000018005b3f4     libvcruntime:ehhelpers.obj
 0002:0000b3f4       $unwind$?DloadAcquireSectionWriteAccess@@YAXXZ 000000018005b3f4     DelayImp:delayhlp.obj
 0002:0000b3f4       $unwind$?stream_is_at_end_of_file_nolock@@YA_NV__crt_stdio_stream@@@Z 000000018005b3f4     libucrt:_flsbuf.obj
 0002:0000b3f4       $unwind$??0bad_exception@std@@QEAA@AEBV01@@Z 000000018005b3f4     libvcruntime:frame.obj
 0002:0000b3f4       $unwind$__acrt_FlsGetValue 000000018005b3f4     libucrt:winapi_thunks.obj
 0002:0000b3f4       $unwind$_SetThrowImageBase 000000018005b3f4     libvcruntime:risctrnsctrl.obj
 0002:0000b3f4       $unwind$?type_case_c_tchar@?$output_processor@DV?$string_output_adapter@D@__crt_stdio_output@@V?$standard_base@DV?$string_output_adapter@D@__crt_stdio_output@@@2@@__crt_stdio_output@@AEAA_ND@Z 000000018005b3f4     libucrt:output.obj
 0002:0000b3f4       $unwind$?type_case_s@?$output_processor@DV?$string_output_adapter@D@__crt_stdio_output@@V?$standard_base@DV?$string_output_adapter@D@__crt_stdio_output@@@2@@__crt_stdio_output@@AEAA_NXZ 000000018005b3f4     libucrt:output.obj
 0002:0000b3f4       $unwind$feholdexcept       000000018005b3f4     libucrt:feholdexcept.obj
 0002:0000b3f4       $unwind$__acrt_get_parent_window 000000018005b3f4     libucrt:winapi_thunks.obj
 0002:0000b3f4       $unwind$_clearfp           000000018005b3f4     libucrt:ieee.obj
 0002:0000b3f4       $unwind$_callnewh          000000018005b3f4     libucrt:new_handler.obj
 0002:0000b3f4       $unwind$?internal_isupper_l@@YA_NHQEAU__crt_locale_pointers@@@Z 000000018005b3f4     libucrt:tolower_toupper.obj
 0002:0000b3f4       $unwind$??0bad_array_new_length@std@@QEAA@AEBV01@@Z 000000018005b3f4     LIBCMT:throw_bad_alloc.obj
 0002:0000b3f4       $unwind$?GetUnwindTryBlock@__FrameHandler3@@SAHPEA_KPEAU_xDISPATCHER_CONTEXT@@PEBU_s_FuncInfo@@@Z 000000018005b3f4     libvcruntime:ehstate.obj
 0002:0000b3f4       $unwind$__vcrt_FlsGetValue 000000018005b3f4     libvcruntime:winapi_downlevel.obj
 0002:0000b3f4       $unwind$uninitialize_allocated_memory 000000018005b3f4     libucrt:initialization.obj
 0002:0000b3f4       $unwind$??_Gtype_info@@UEAAPEAXI@Z 000000018005b3f4     LIBCMT:std_type_info_static.obj
 0002:0000b3f4       $unwind$__vcrt_FlsFree     000000018005b3f4     libvcruntime:winapi_downlevel.obj
 0002:0000b3f4       $unwind$_malloc_base       000000018005b3f4     libucrt:malloc_base.obj
 0002:0000b3f4       $unwind$strcpy_s           000000018005b3f4     libucrt:strcpy_s.obj
 0002:0000b3f4       $unwind$initialize_pointers 000000018005b3f4     libucrt:initialization.obj
 0002:0000b3f4       $unwind$__vcrt_FlsAlloc    000000018005b3f4     libvcruntime:winapi_downlevel.obj
 0002:0000b3f4       $unwind$_calloc_base       000000018005b3f4     libucrt:calloc_base.obj
 0002:0000b3f4       $unwind$?getline@FileMgr@@QEAAPEADXZ 000000018005b3f4     hunspell:filemgr.obj
 0002:0000b3f4       $unwind$__raise_securityfailure 000000018005b3f4     LIBCMT:gs_report.obj
 0002:0000b3f4       $unwind$__vcrt_freeptd     000000018005b3f4     libvcruntime:per_thread_data.obj
 0002:0000b3f4       $unwind$fegetenv           000000018005b3f4     libucrt:fegetenv.obj
 0002:0000b3f4       $unwind$?lookup@HashMgr@@QEBAPEAUhentry@@PEBD@Z 000000018005b3f4     hunspell:hashmgr.obj
 0002:0000b3f4       $unwind$fesetenv           000000018005b3f4     libucrt:fesetenv.obj
 0002:0000b3f4       $unwind$__vcrt_uninitialize_locks 000000018005b3f4     libvcruntime:locks.obj
 0002:0000b3f4       $unwind$__vcrt_initialize_locks 000000018005b3f4     libvcruntime:locks.obj
 0002:0000b3fc       $unwind$?SetPrototypeMethod@Nan@@YAXV?$Local@VFunctionTemplate@v8@@@v8@@PEBDP6AXAEBV?$FunctionCallbackInfo@VValue@v8@@@1@@Z@Z 000000018005b3fc     main.obj
 0002:0000b40c       $unwind$GetLcidFromLanguage 000000018005b40c     libucrt:getqloc_downlevel.obj
 0002:0000b40c       $unwind$__acrt_errno_map_os_error 000000018005b40c     libucrt:errno.obj
 0002:0000b40c       $unwind$??_GWindowsSpellcheckerThreadView@spellchecker@@UEAAPEAXI@Z 000000018005b40c     spellchecker_win.obj
 0002:0000b40c       $unwind$??0AffixMgr@@QEAA@PEBDPEAPEAVHashMgr@@PEAH0@Z 000000018005b40c     hunspell:affixmgr.obj
 0002:0000b40c       $unwind$__vcrt_FlsSetValue 000000018005b40c     libvcruntime:winapi_downlevel.obj
 0002:0000b40c       $unwind$?SetUnwindTryBlock@__FrameHandler3@@SAXPEA_KPEAU_xDISPATCHER_CONTEXT@@PEBU_s_FuncInfo@@H@Z 000000018005b40c     libvcruntime:ehstate.obj
 0002:0000b40c       $unwind$??_GAsyncWorker@Nan@@UEAAPEAXI@Z 000000018005b40c     worker.obj
 0002:0000b40c       $unwind$??_GHunspellSpellchecker@spellchecker@@UEAAPEAXI@Z 000000018005b40c     spellchecker_hunspell.obj
 0002:0000b40c       $unwind$GetLocaleNameFromLanguage 000000018005b40c     libucrt:get_qualified_locale.obj
 0002:0000b40c       $unwind$_initterm_e        000000018005b40c     libucrt:initterm.obj
 0002:0000b40c       $unwind$??_Gbad_array_new_length@std@@UEAAPEAXI@Z 000000018005b40c     LIBCMT:throw_bad_alloc.obj
 0002:0000b40c       $unwind$?replace_current_thread_locale_nolock@@YAXQEAU__acrt_ptd@@QEAU__crt_locale_data@@@Z 000000018005b40c     libucrt:per_thread_data.obj
 0002:0000b40c       $unwind$GetLocaleNameFromLangCountry 000000018005b40c     libucrt:get_qualified_locale.obj
 0002:0000b40c       $unwind$GetLcidFromLangCountry 000000018005b40c     libucrt:getqloc_downlevel.obj
 0002:0000b40c       $unwind$??_GObjectWrap@Nan@@UEAAPEAXI@Z 000000018005b40c     main.obj
 0002:0000b40c       $unwind$?CreateThreadView@SpellcheckerImplementation@spellchecker@@UEAA?AV?$unique_ptr@VSpellcheckerThreadView@spellchecker@@U?$default_delete@VSpellcheckerThreadView@spellchecker@@@std@@@std@@XZ 000000018005b40c     spellchecker_hunspell.obj
 0002:0000b40c       $unwind$_updatetlocinfoEx_nolock 000000018005b40c     libucrt:locale_refcounting.obj
 0002:0000b40c       $unwind$_close_nolock      000000018005b40c     libucrt:close.obj
 0002:0000b40c       $unwind$??$common_initialize_environment_nolock@D@@YAHXZ 000000018005b40c     libucrt:environment_initialization.obj
 0002:0000b40c       $unwind$__acrt_can_show_message_box 000000018005b40c     libucrt:winapi_thunks.obj
 0002:0000b40c       $unwind$??_Glength_error@std@@UEAAPEAXI@Z 000000018005b40c     libcpmt:xthrow.obj
 0002:0000b40c       $unwind$_realloc_base      000000018005b40c     libucrt:realloc_base.obj
 0002:0000b40c       $unwind$strncpy_s          000000018005b40c     libucrt:strncpy_s.obj
 0002:0000b40c       $unwind$??_GSpellchecker@?A0x27193ba4@@EEAAPEAXI@Z 000000018005b40c     main.obj
 0002:0000b40c       $unwind$?process_sfx_in_order@AffixMgr@@AEAAPEAVSfxEntry@@PEAV2@0@Z 000000018005b40c     hunspell:affixmgr.obj
 0002:0000b40c       $unwind$__acrt_fp_strflt_to_string 000000018005b40c     libucrt:_fptostr.obj
 0002:0000b40c       $unwind$?process_pfx_in_order@AffixMgr@@AEAAPEAVPfxEntry@@PEAV2@0@Z 000000018005b40c     hunspell:affixmgr.obj
 0002:0000b40c       $unwind$??_Glogic_error@std@@UEAAPEAXI@Z 000000018005b40c     libcpmt:xthrow.obj
 0002:0000b40c       $unwind$__acrt_stdio_allocate_buffer_nolock 000000018005b40c     libucrt:_getbuf.obj
 0002:0000b40c       $unwind$??_Gbad_alloc@std@@UEAAPEAXI@Z 000000018005b40c     libcpmt:xthrow.obj
 0002:0000b40c       $unwind$??_Gexception@std@@UEAAPEAXI@Z 000000018005b40c     libcpmt:xthrow.obj
 0002:0000b40c       $unwind$?get_encoding@AffixMgr@@QEAAPEADXZ 000000018005b40c     hunspell:affixmgr.obj
 0002:0000b40c       $unwind$??_GFileMgr@@QEAAPEAXI@Z 000000018005b40c     hunspell:hashmgr.obj
 0002:0000b40c       $unwind$__acrt_LocaleNameToLCID 000000018005b40c     libucrt:winapi_thunks.obj
 0002:0000b40c       $unwind$?force_decimal_point@__crt_stdio_output@@YAXPEADQEAU__crt_locale_pointers@@@Z 000000018005b40c     libucrt:output.obj
 0002:0000b40c       $unwind$?DloadGetSRWLockFunctionPointers@@YAEXZ 000000018005b40c     DelayImp:delayhlp.obj
 0002:0000b40c       $unwind$wcsncat_s          000000018005b40c     libucrt:wcsncat_s.obj
 0002:0000b40c       $unwind$_fclose_nolock     000000018005b40c     libucrt:fclose.obj
 0002:0000b40c       $unwind$__acrt_GetUserDefaultLocaleName 000000018005b40c     libucrt:winapi_thunks.obj
 0002:0000b40c       $unwind$__acrt_stdio_begin_temporary_buffering_nolock 000000018005b40c     libucrt:_sftbuf.obj
 0002:0000b40c       $unwind$??_Gbad_exception@std@@UEAAPEAXI@Z 000000018005b40c     libvcruntime:frame.obj
 0002:0000b40c       $unwind$_RTC_Terminate     000000018005b40c     LIBCMT:initsect.obj
 0002:0000b40c       $unwind$?GetCodePage@spellchecker@@YAIPEBD@Z 000000018005b40c     transcoder_win.obj
 0002:0000b40c       $unwind$__acrt_uninitialize_lowio 000000018005b40c     libucrt:ioinit.obj
 0002:0000b40c       $unwind$__acrt_FlsSetValue 000000018005b40c     libucrt:winapi_thunks.obj
 0002:0000b40c       $unwind$__acrt_execute_uninitializers 000000018005b40c     libucrt:shared_initialization.obj
 0002:0000b40c       $unwind$_FindAndUnlinkFrame 000000018005b40c     libvcruntime:risctrnsctrl.obj
 0002:0000b40c       $unwind$wcsncpy_s          000000018005b40c     libucrt:wcsncpy_s.obj
 0002:0000b40c       $unwind$_RTC_Initialize    000000018005b40c     LIBCMT:initsect.obj
 0002:0000b418       $unwind$?New@Spellchecker@?A0x27193ba4@@CAXAEBV?$FunctionCallbackInfo@VValue@v8@@@Nan@@@Z 000000018005b418     main.obj
 0002:0000b430       $unwind$?SetSpellcheckerType@Spellchecker@?A0x27193ba4@@CAXAEBV?$FunctionCallbackInfo@VValue@v8@@@Nan@@@Z 000000018005b430     main.obj
 0002:0000b43c       $unwind$?SetDictionary@Spellchecker@?A0x27193ba4@@CAXAEBV?$FunctionCallbackInfo@VValue@v8@@@Nan@@@Z 000000018005b43c     main.obj
 0002:0000b454       $chain$0$?SetDictionary@Spellchecker@?A0x27193ba4@@CAXAEBV?$FunctionCallbackInfo@VValue@v8@@@Nan@@@Z 000000018005b454     main.obj
 0002:0000b468       $chain$1$?SetDictionary@Spellchecker@?A0x27193ba4@@CAXAEBV?$FunctionCallbackInfo@VValue@v8@@@Nan@@@Z 000000018005b468     main.obj
 0002:0000b478       $unwind$?Remove@Spellchecker@?A0x27193ba4@@CAXAEBV?$FunctionCallbackInfo@VValue@v8@@@Nan@@@Z 000000018005b478     main.obj
 0002:0000b478       $unwind$?IsMisspelled@Spellchecker@?A0x27193ba4@@CAXAEBV?$FunctionCallbackInfo@VValue@v8@@@Nan@@@Z 000000018005b478     main.obj
 0002:0000b478       $unwind$?Add@Spellchecker@?A0x27193ba4@@CAXAEBV?$FunctionCallbackInfo@VValue@v8@@@Nan@@@Z 000000018005b478     main.obj
 0002:0000b48c       $chain$0$?IsMisspelled@Spellchecker@?A0x27193ba4@@CAXAEBV?$FunctionCallbackInfo@VValue@v8@@@Nan@@@Z 000000018005b48c     main.obj
 0002:0000b4a0       $chain$1$?IsMisspelled@Spellchecker@?A0x27193ba4@@CAXAEBV?$FunctionCallbackInfo@VValue@v8@@@Nan@@@Z 000000018005b4a0     main.obj
 0002:0000b4b0       $unwind$?CheckSpelling@Spellchecker@?A0x27193ba4@@CAXAEBV?$FunctionCallbackInfo@VValue@v8@@@Nan@@@Z 000000018005b4b0     main.obj
 0002:0000b4c8       $chain$0$?CheckSpelling@Spellchecker@?A0x27193ba4@@CAXAEBV?$FunctionCallbackInfo@VValue@v8@@@Nan@@@Z 000000018005b4c8     main.obj
 0002:0000b4dc       $chain$1$?CheckSpelling@Spellchecker@?A0x27193ba4@@CAXAEBV?$FunctionCallbackInfo@VValue@v8@@@Nan@@@Z 000000018005b4dc     main.obj
 0002:0000b4ec       $unwind$?CheckSpellingAsync@Spellchecker@?A0x27193ba4@@CAXAEBV?$FunctionCallbackInfo@VValue@v8@@@Nan@@@Z 000000018005b4ec     main.obj
 0002:0000b4f8       $chain$5$?CheckSpellingAsync@Spellchecker@?A0x27193ba4@@CAXAEBV?$FunctionCallbackInfo@VValue@v8@@@Nan@@@Z 000000018005b4f8     main.obj
 0002:0000b520       $chain$6$?CheckSpellingAsync@Spellchecker@?A0x27193ba4@@CAXAEBV?$FunctionCallbackInfo@VValue@v8@@@Nan@@@Z 000000018005b520     main.obj
 0002:0000b530       $chain$7$?CheckSpellingAsync@Spellchecker@?A0x27193ba4@@CAXAEBV?$FunctionCallbackInfo@VValue@v8@@@Nan@@@Z 000000018005b530     main.obj
 0002:0000b558       $chain$0$?Add@Spellchecker@?A0x27193ba4@@CAXAEBV?$FunctionCallbackInfo@VValue@v8@@@Nan@@@Z 000000018005b558     main.obj
 0002:0000b56c       $chain$1$?Add@Spellchecker@?A0x27193ba4@@CAXAEBV?$FunctionCallbackInfo@VValue@v8@@@Nan@@@Z 000000018005b56c     main.obj
 0002:0000b57c       $chain$0$?Remove@Spellchecker@?A0x27193ba4@@CAXAEBV?$FunctionCallbackInfo@VValue@v8@@@Nan@@@Z 000000018005b57c     main.obj
 0002:0000b590       $chain$1$?Remove@Spellchecker@?A0x27193ba4@@CAXAEBV?$FunctionCallbackInfo@VValue@v8@@@Nan@@@Z 000000018005b590     main.obj
 0002:0000b5a0       $unwind$?GetAvailableDictionaries@Spellchecker@?A0x27193ba4@@CAXAEBV?$FunctionCallbackInfo@VValue@v8@@@Nan@@@Z 000000018005b5a0     main.obj
 0002:0000b5b8       $chain$0$?GetAvailableDictionaries@Spellchecker@?A0x27193ba4@@CAXAEBV?$FunctionCallbackInfo@VValue@v8@@@Nan@@@Z 000000018005b5b8     main.obj
 0002:0000b5cc       $chain$2$?GetAvailableDictionaries@Spellchecker@?A0x27193ba4@@CAXAEBV?$FunctionCallbackInfo@VValue@v8@@@Nan@@@Z 000000018005b5cc     main.obj
 0002:0000b5e4       $chain$3$?GetAvailableDictionaries@Spellchecker@?A0x27193ba4@@CAXAEBV?$FunctionCallbackInfo@VValue@v8@@@Nan@@@Z 000000018005b5e4     main.obj
 0002:0000b5f4       $chain$4$?GetAvailableDictionaries@Spellchecker@?A0x27193ba4@@CAXAEBV?$FunctionCallbackInfo@VValue@v8@@@Nan@@@Z 000000018005b5f4     main.obj
 0002:0000b604       $unwind$?GetCorrectionsForMisspelling@Spellchecker@?A0x27193ba4@@CAXAEBV?$FunctionCallbackInfo@VValue@v8@@@Nan@@@Z 000000018005b604     main.obj
 0002:0000b618       $chain$1$?GetCorrectionsForMisspelling@Spellchecker@?A0x27193ba4@@CAXAEBV?$FunctionCallbackInfo@VValue@v8@@@Nan@@@Z 000000018005b618     main.obj
 0002:0000b630       $chain$3$?GetCorrectionsForMisspelling@Spellchecker@?A0x27193ba4@@CAXAEBV?$FunctionCallbackInfo@VValue@v8@@@Nan@@@Z 000000018005b630     main.obj
 0002:0000b648       $chain$4$?GetCorrectionsForMisspelling@Spellchecker@?A0x27193ba4@@CAXAEBV?$FunctionCallbackInfo@VValue@v8@@@Nan@@@Z 000000018005b648     main.obj
 0002:0000b658       $chain$5$?GetCorrectionsForMisspelling@Spellchecker@?A0x27193ba4@@CAXAEBV?$FunctionCallbackInfo@VValue@v8@@@Nan@@@Z 000000018005b658     main.obj
 0002:0000b668       $unwind$?Init@Spellchecker@?A0x27193ba4@@SAXV?$Local@VObject@v8@@@v8@@@Z 000000018005b668     main.obj
 0002:0000b678       $unwind$?assign@?$basic_string@DU?$char_traits@D@std@@V?$allocator@D@2@@std@@QEAAAEAV12@QEBD@Z 000000018005b678     main.obj
 0002:0000b690       $unwind$?_Xlength@?$vector@Uaffentry@@V?$allocator@Uaffentry@@@std@@@std@@CAXXZ 000000018005b690     hunspell:affixmgr.obj
 0002:0000b690       $unwind$__dcrt_uninitialize_environments_nolock 000000018005b690     libucrt:environment_initialization.obj
 0002:0000b690       $unwind$?state_case_size@?$output_processor@DV?$stream_output_adapter@D@__crt_stdio_output@@V?$standard_base@DV?$stream_output_adapter@D@__crt_stdio_output@@@2@@__crt_stdio_output@@AEAA_NXZ 000000018005b690     libucrt:output.obj
 0002:0000b690       $unwind$_invoke_watson     000000018005b690     libucrt:invalid_parameter.obj
 0002:0000b690       $unwind$_purecall          000000018005b690     libvcruntime:purevirt.obj
 0002:0000b690       $unwind$__acrt_initialize_ptd 000000018005b690     libucrt:per_thread_data.obj
 0002:0000b690       $unwind$?_Xlength@?$vector@GV?$allocator@G@std@@@std@@CAXXZ 000000018005b690     main.obj
 0002:0000b690       $unwind$__vcrt_thread_attach 000000018005b690     libvcruntime:initialization.obj
 0002:0000b690       $unwind$?__c32rtomb_utf8@__crt_mbstring@@YA_KPEAD_UPEAU_Mbstatet@@@Z 000000018005b690     libucrt:c32rtomb.obj
 0002:0000b690       $unwind$_strnicmp          000000018005b690     libucrt:strnicmp.obj
 0002:0000b690       $unwind$__scrt_dllmain_uninitialize_c 000000018005b690     LIBCMT:utility.obj
 0002:0000b690       $unwind$__vcrt_uninitialize_critical 000000018005b690     libvcruntime:initialization.obj
 0002:0000b690       $unwind$??$uninitialize_environment_internal@D@@YAXAEAPEAPEAD@Z 000000018005b690     libucrt:environment_initialization.obj
 0002:0000b690       $unwind$?_Xlen@?$basic_string@DU?$char_traits@D@std@@V?$allocator@D@2@@std@@SAXXZ 000000018005b690     main.obj
 0002:0000b690       $unwind$__scrt_dllmain_uninitialize_critical 000000018005b690     LIBCMT:utility.obj
 0002:0000b690       $unwind$__vcrt_uninitialize 000000018005b690     libvcruntime:initialization.obj
 0002:0000b690       $unwind$tolower            000000018005b690     libucrt:tolower_toupper.obj
 0002:0000b690       $unwind$__scrt_dllmain_before_initialize_c 000000018005b690     LIBCMT:utility.obj
 0002:0000b690       $unwind$__acrt_uninitialize_ptd 000000018005b690     libucrt:per_thread_data.obj
 0002:0000b690       $unwind$clock              000000018005b690     libucrt:clock.obj
 0002:0000b690       $unwind$__scrt_dllmain_after_initialize_c 000000018005b690     LIBCMT:utility.obj
 0002:0000b690       $unwind$_statfp            000000018005b690     libucrt:fpctrl.obj
 0002:0000b690       $unwind$__dcrt_get_or_create_narrow_environment_nolock 000000018005b690     libucrt:environment_initialization.obj
 0002:0000b690       $unwind$__vcrt_initialize  000000018005b690     libvcruntime:initialization.obj
 0002:0000b690       $unwind$?_Xlen@?$basic_string@_WU?$char_traits@_W@std@@V?$allocator@_W@2@@std@@SAXXZ 000000018005b690     spellchecker_win.obj
 0002:0000b690       $unwind$__acrt_initialize_clock 000000018005b690     libucrt:clock.obj
 0002:0000b690       $unwind$_GetImageBase      000000018005b690     libvcruntime:risctrnsctrl.obj
 0002:0000b690       $unwind$__acrt_can_use_vista_locale_apis 000000018005b690     libucrt:winapi_thunks.obj
 0002:0000b690       $unwind$?initialize_utf_tbl@@YAHXZ 000000018005b690     hunspell:csutil.obj
 0002:0000b690       $unwind$?validate_stream_is_ansi_if_required@?$__acrt_stdio_char_traits@D@@SA_NQEAU_iobuf@@@Z 000000018005b690     libucrt:output.obj
 0002:0000b690       $unwind$__scrt_dllmain_crt_thread_attach 000000018005b690     LIBCMT:utility.obj
 0002:0000b690       $unwind$__acrt_eagerly_load_locale_apis 000000018005b690     libucrt:winapi_thunks.obj
 0002:0000b690       $unwind$__scrt_acquire_startup_lock 000000018005b690     LIBCMT:utility.obj
 0002:0000b690       $unwind$_isatty            000000018005b690     libucrt:isatty.obj
 0002:0000b690       $unwind$__acrt_AreFileApisANSI 000000018005b690     libucrt:winapi_thunks.obj
 0002:0000b690       $unwind$__FrameUnwindFilter 000000018005b690     libvcruntime:ehhelpers.obj
 0002:0000b690       $unwind$?state_case_size@?$output_processor@_WV?$stream_output_adapter@_W@__crt_stdio_output@@V?$standard_base@_WV?$stream_output_adapter@_W@__crt_stdio_output@@@2@@__crt_stdio_output@@AEAA_NXZ 000000018005b690     libucrt:output.obj
 0002:0000b690       $unwind$_set_error_mode    000000018005b690     libucrt:set_error_mode.obj
 0002:0000b690       $unwind$__scrt_dllmain_crt_thread_detach 000000018005b690     LIBCMT:utility.obj
 0002:0000b690       $unwind$__vcrt_initialize_ptd 000000018005b690     libvcruntime:per_thread_data.obj
 0002:0000b690       $unwind$isalpha            000000018005b690     libucrt:_ctype.obj
 0002:0000b690       $unwind$abort              000000018005b690     libucrt:abort.obj
 0002:0000b690       $unwind$_fileno            000000018005b690     libucrt:fileno.obj
 0002:0000b690       $unwind$_wcsnicmp          000000018005b690     libucrt:wcsnicmp.obj
 0002:0000b690       $unwind$__acrt_initialize_heap 000000018005b690     libucrt:heap_handle.obj
 0002:0000b690       $unwind$_wcsicmp           000000018005b690     libucrt:wcsicmp.obj
 0002:0000b690       $unwind$?DloadReleaseSectionWriteAccess@@YAXXZ 000000018005b690     DelayImp:delayhlp.obj
 0002:0000b690       $unwind$__vcrt_thread_detach 000000018005b690     libvcruntime:initialization.obj
 0002:0000b690       $unwind$_GetThrowImageBase 000000018005b690     libvcruntime:risctrnsctrl.obj
 0002:0000b690       $unwind$__vcrt_uninitialize_ptd 000000018005b690     libvcruntime:per_thread_data.obj
 0002:0000b690       $unwind$uninitialize_allocated_io_buffers 000000018005b690     libucrt:initialization.obj
 0002:0000b690       $unwind$__vcrt_getptd      000000018005b690     libvcruntime:per_thread_data.obj
 0002:0000b690       $unwind$?initialize_multibyte@@YAHXZ 000000018005b690     libucrt:multibyte_initializer.obj
 0002:0000b690       $unwind$__GSHandlerCheck   000000018005b690     LIBCMT:gshandler.obj
 0002:0000b690       $unwind$__acrt_DownlevelLocaleNameToLCID 000000018005b690     libucrt:lcidtoname_downlevel.obj
 0002:0000b690       $unwind$??$uninitialize_environment_internal@_W@@YAXAEAPEAPEA_W@Z 000000018005b690     libucrt:environment_initialization.obj
 0002:0000b690       $unwind$_fgetc_nolock      000000018005b690     libucrt:fgetc.obj
 0002:0000b690       $unwind$__report_rangecheckfailure 000000018005b690     LIBCMT:gs_report.obj
 0002:0000b690       $unwind$__acrt_update_thread_multibyte_data 000000018005b690     libucrt:mbctype.obj
 0002:0000b690       $unwind$__pctype_func      000000018005b690     libucrt:ctype.obj
 0002:0000b690       $unwind$_stricmp           000000018005b690     libucrt:stricmp.obj
 0002:0000b690       $unwind$__vcrt_freefls     000000018005b690     libvcruntime:per_thread_data.obj
 0002:0000b690       $unwind$_get_osfhandle     000000018005b690     libucrt:osfinfo.obj
 0002:0000b690       $unwind$_set_errno_from_matherr 000000018005b690     libucrt:fpexcept.obj
 0002:0000b690       $unwind$_msize_base        000000018005b690     libucrt:msize.obj
 0002:0000b690       $unwind$__acrt_uninitialize_critical 000000018005b690     libucrt:initialization.obj
 0002:0000b690       $unwind$__scrt_initialize_default_local_stdio_options 000000018005b690     LIBCMT:default_local_stdio_options.obj
 0002:0000b690       $unwind$__acrt_initialize_command_line 000000018005b690     libucrt:argv_data.obj
 0002:0000b690       $unwind$?state_case_normal_tchar@?$output_processor@DV?$string_output_adapter@D@__crt_stdio_output@@V?$standard_base@DV?$string_output_adapter@D@__crt_stdio_output@@@2@@__crt_stdio_output@@AEAA_ND@Z 000000018005b690     libucrt:output.obj
 0002:0000b690       $unwind$?state_case_size@?$output_processor@DV?$string_output_adapter@D@__crt_stdio_output@@V?$standard_base@DV?$string_output_adapter@D@__crt_stdio_output@@@2@@__crt_stdio_output@@AEAA_NXZ 000000018005b690     libucrt:output.obj
 0002:0000b690       $unwind$__acrt_initialize_multibyte 000000018005b690     libucrt:mbctype.obj
 0002:0000b690       $unwind$?GetCurrentState@__FrameHandler3@@SAHPEA_KPEAU_xDISPATCHER_CONTEXT@@PEBU_s_FuncInfo@@@Z 000000018005b690     libvcruntime:ehstate.obj
 0002:0000b690       $unwind$_copytlocinfo_nolock 000000018005b690     libucrt:wsetlocale.obj
 0002:0000b690       $unwind$__acrt_thread_attach 000000018005b690     libucrt:initialization.obj
 0002:0000b690       $unwind$?dllmain_crt_dispatch@@YAHQEAUHINSTANCE__@@KQEAX@Z 000000018005b690     LIBCMT:dll_dllmain.obj
 0002:0000b690       $unwind$__acrt_uninitialize 000000018005b690     libucrt:initialization.obj
 0002:0000b690       $unwind$?_Xlength@?$vector@V?$basic_string@DU?$char_traits@D@std@@V?$allocator@D@2@@std@@V?$allocator@V?$basic_string@DU?$char_traits@D@std@@V?$allocator@D@2@@std@@@2@@std@@CAXXZ 000000018005b690     spellchecker_hunspell.obj
 0002:0000b690       $unwind$?state_case_size@?$output_processor@_WV?$string_output_adapter@_W@__crt_stdio_output@@V?$standard_base@_WV?$string_output_adapter@_W@__crt_stdio_output@@@2@@__crt_stdio_output@@AEAA_NXZ 000000018005b690     libucrt:output.obj
 0002:0000b690       $unwind$__dcrt_terminate_console_output 000000018005b690     libucrt:initcon.obj
 0002:0000b690       $unwind$__acrt_thread_detach 000000018005b690     libucrt:initialization.obj
 0002:0000b690       $unwind$?_Xlength@?$vector@UMisspelledRange@spellchecker@@V?$allocator@UMisspelledRange@spellchecker@@@std@@@std@@CAXXZ 000000018005b690     spellchecker_hunspell.obj
 0002:0000b690       $unwind$__acrt_release_locale_ref 000000018005b690     libucrt:locale_refcounting.obj
 0002:0000b690       $unwind$_get_fmode         000000018005b690     libucrt:setmode.obj
 0002:0000b690       $unwind$__doserrno         000000018005b690     libucrt:errno.obj
 0002:0000b690       $unwind$?is_keepcase@Hunspell@@AEAAHPEBUhentry@@@Z 000000018005b690     hunspell:hunspell.obj
 0002:0000b690       $unwind$uninitialize_environment 000000018005b690     libucrt:initialization.obj
 0002:0000b690       $unwind$_errno             000000018005b690     libucrt:errno.obj
 0002:0000b690       $unwind$initialize_c       000000018005b690     libucrt:initialization.obj
 0002:0000b698       $unwind$??$_Destroy_range@V?$allocator@V?$basic_string@DU?$char_traits@D@std@@V?$allocator@D@2@@std@@@std@@@std@@YAXPEAV?$basic_string@DU?$char_traits@D@std@@V?$allocator@D@2@@0@0AEAV?$allocator@V?$basic_string@DU?$char_traits@D@std@@V?$allocator@D@2@@std@@@0@@Z 000000018005b698     main.obj
 0002:0000b6a4       $chain$0$??$_Destroy_range@V?$allocator@V?$basic_string@DU?$char_traits@D@std@@V?$allocator@D@2@@std@@@std@@@std@@YAXPEAV?$basic_string@DU?$char_traits@D@std@@V?$allocator@D@2@@0@0AEAV?$allocator@V?$basic_string@DU?$char_traits@D@std@@V?$allocator@D@2@@std@@@0@@Z 000000018005b6a4     main.obj
 0002:0000b6b8       $chain$1$??$_Destroy_range@V?$allocator@V?$basic_string@DU?$char_traits@D@std@@V?$allocator@D@2@@std@@@std@@@std@@YAXPEAV?$basic_string@DU?$char_traits@D@std@@V?$allocator@D@2@@0@0AEAV?$allocator@V?$basic_string@DU?$char_traits@D@std@@V?$allocator@D@2@@std@@@0@@Z 000000018005b6b8     main.obj
 0002:0000b6c8       $chain$2$??$_Destroy_range@V?$allocator@V?$basic_string@DU?$char_traits@D@std@@V?$allocator@D@2@@std@@@std@@@std@@YAXPEAV?$basic_string@DU?$char_traits@D@std@@V?$allocator@D@2@@0@0AEAV?$allocator@V?$basic_string@DU?$char_traits@D@std@@V?$allocator@D@2@@std@@@0@@Z 000000018005b6c8     main.obj
 0002:0000b6dc       $unwind$??0AsyncResource@Nan@@QEAA@PEBDV?$Local@VObject@v8@@@v8@@@Z 000000018005b6dc     worker.obj
 0002:0000b6f0       $unwind$?Call_@Callback@Nan@@AEBA?AV?$MaybeLocal@VValue@v8@@@v8@@PEAVIsolate@4@V?$Local@VObject@v8@@@4@HQEAV?$Local@VValue@v8@@@4@PEAVAsyncResource@2@@Z 000000018005b6f0     worker.obj
 0002:0000b700       $unwind$??1AsyncWorker@Nan@@UEAA@XZ 000000018005b700     worker.obj
 0002:0000b70c       $unwind$isdigit            000000018005b70c     libucrt:_ctype.obj
 0002:0000b70c       $unwind$?WorkComplete@AsyncWorker@Nan@@UEAAXXZ 000000018005b70c     worker.obj
 0002:0000b70c       $unwind$_mbsdec_l          000000018005b70c     libucrt:mbsdec.obj
 0002:0000b70c       $unwind$isspace            000000018005b70c     libucrt:_ctype.obj
 0002:0000b718       $unwind$?HandleOKCallback@AsyncWorker@Nan@@MEAAXXZ 000000018005b718     worker.obj
 0002:0000b718       $unwind$?HandleErrorCallback@AsyncWorker@Nan@@MEAAXXZ 000000018005b718     worker.obj
 0002:0000b724       $unwind$__acrt_InitializeCriticalSectionEx 000000018005b724     libucrt:winapi_thunks.obj
 0002:0000b724       $unwind$__acrt_locale_initialize_time 000000018005b724     libucrt:inittime.obj
 0002:0000b724       $unwind$??$common_lseek_nolock@_J@@YA_JH_JH@Z 000000018005b724     libucrt:lseek.obj
 0002:0000b724       $unwind$memcpy_s           000000018005b724     libucrt:cfout.obj
 0002:0000b724       $unwind$?type_case_n@?$output_processor@_WV?$string_output_adapter@_W@__crt_stdio_output@@V?$standard_base@_WV?$string_output_adapter@_W@__crt_stdio_output@@@2@@__crt_stdio_output@@AEAA_NXZ 000000018005b724     libucrt:output.obj
 0002:0000b724       $unwind$??_GWindowsSpellchecker@spellchecker@@UEAAPEAXI@Z 000000018005b724     spellchecker_win.obj
 0002:0000b724       $unwind$?process_pfx_tree_to_list@AffixMgr@@AEAAHXZ 000000018005b724     hunspell:affixmgr.obj
 0002:0000b724       $unwind$?FrameUnwindToEmptyState@__FrameHandler3@@SAXPEA_KPEAU_xDISPATCHER_CONTEXT@@PEBU_s_FuncInfo@@@Z 000000018005b724     libvcruntime:risctrnsctrl.obj
 0002:0000b724       $unwind$__acrt_execute_initializers 000000018005b724     libucrt:shared_initialization.obj
 0002:0000b724       $unwind$?remove_ignored_chars@@YAXPEAD0@Z 000000018005b724     hunspell:csutil.obj
 0002:0000b724       $unwind$??0_LocaleUpdate@@QEAA@QEAU__crt_locale_pointers@@@Z 000000018005b724     libucrt:_wctype.obj
 0002:0000b724       $unwind$?type_case_n@?$output_processor@DV?$stream_output_adapter@D@__crt_stdio_output@@V?$standard_base@DV?$stream_output_adapter@D@__crt_stdio_output@@@2@@__crt_stdio_output@@AEAA_NXZ 000000018005b724     libucrt:output.obj
 0002:0000b724       $unwind$??_GCheckSpellingWorker@@UEAAPEAXI@Z 000000018005b724     worker.obj
 0002:0000b724       $unwind$__acrt_getptd      000000018005b724     libucrt:per_thread_data.obj
 0002:0000b724       $unwind$?free_crt_array_internal@@YAXQEAPEBX_K@Z 000000018005b724     libucrt:inittime.obj
 0002:0000b724       $unwind$__acrt_stdio_flush_and_write_wide_nolock 000000018005b724     libucrt:_flsbuf.obj
 0002:0000b724       $unwind$?type_case_s@?$output_processor@_WV?$string_output_adapter@_W@__crt_stdio_output@@V?$standard_base@_WV?$string_output_adapter@_W@__crt_stdio_output@@@2@@__crt_stdio_output@@AEAA_NXZ 000000018005b724     libucrt:output.obj
 0002:0000b724       $unwind$_DllMainCRTStartup 000000018005b724     LIBCMT:dll_dllmain.obj
 0002:0000b724       $unwind$__acrt_getptd_noexit 000000018005b724     libucrt:per_thread_data.obj
 0002:0000b724       $unwind$__vcrt_InitializeCriticalSectionEx 000000018005b724     libvcruntime:winapi_downlevel.obj
 0002:0000b724       $unwind$?CatchTryBlock@__FrameHandler3@@SAPEBU_s_TryBlockMapEntry@@PEBU_s_FuncInfo@@H@Z 000000018005b724     libvcruntime:risctrnsctrl.obj
 0002:0000b724       $unwind$?type_case_n@?$output_processor@DV?$string_output_adapter@D@__crt_stdio_output@@V?$standard_base@DV?$string_output_adapter@D@__crt_stdio_output@@@2@@__crt_stdio_output@@AEAA_NXZ 000000018005b724     libucrt:output.obj
 0002:0000b724       $unwind$?type_case_n@?$output_processor@_WV?$stream_output_adapter@_W@__crt_stdio_output@@V?$standard_base@_WV?$stream_output_adapter@_W@__crt_stdio_output@@@2@@__crt_stdio_output@@AEAA_NXZ 000000018005b724     libucrt:output.obj
 0002:0000b724       $unwind$??0HashMgr@@QEAA@PEBD00@Z 000000018005b724     hunspell:hashmgr.obj
 0002:0000b724       $unwind$?type_case_Z@?$output_processor@_WV?$stream_output_adapter@_W@__crt_stdio_output@@V?$standard_base@_WV?$stream_output_adapter@_W@__crt_stdio_output@@@2@@__crt_stdio_output@@AEAA_NXZ 000000018005b724     libucrt:output.obj
 0002:0000b724       $unwind$__acrt_stdio_flush_and_write_narrow_nolock 000000018005b724     libucrt:_flsbuf.obj
 0002:0000b724       $unwind$?type_case_Z@?$output_processor@_WV?$string_output_adapter@_W@__crt_stdio_output@@V?$standard_base@_WV?$string_output_adapter@_W@__crt_stdio_output@@@2@@__crt_stdio_output@@AEAA_NXZ 000000018005b724     libucrt:output.obj
 0002:0000b724       $unwind$?insert_sug@Hunspell@@AEAAHPEAPEAPEADPEADH@Z 000000018005b724     hunspell:hunspell.obj
 0002:0000b724       $unwind$?type_case_s@?$output_processor@_WV?$stream_output_adapter@_W@__crt_stdio_output@@V?$standard_base@_WV?$stream_output_adapter@_W@__crt_stdio_output@@@2@@__crt_stdio_output@@AEAA_NXZ 000000018005b724     libucrt:output.obj
 0002:0000b724       $unwind$??R<lambda_ca71763b3c0644891230e4f79ea54fa6>@@QEBAHXZ 000000018005b724     libucrt:setvbuf.obj
 0002:0000b724       $unwind$_exception_enabled 000000018005b724     libucrt:libm_error.obj
 0002:0000b724       $unwind$??$common_getenv_nolock@D@@YAPEADQEBD@Z 000000018005b724     libucrt:getenv.obj
 0002:0000b724       $unwind$??$__acrt_stdio_parse_mode@D@@YA?AU__acrt_stdio_stream_mode@@QEBD@Z 000000018005b724     libucrt:openfile.obj
 0002:0000b724       $unwind$__acrt_stdio_flush_nolock 000000018005b724     libucrt:fflush.obj
 0002:0000b724       $unwind$__vcrt_getptd_noexit 000000018005b724     libvcruntime:per_thread_data.obj
 0002:0000b734       $unwind$?Execute@CheckSpellingWorker@@UEAAXXZ 000000018005b734     worker.obj
 0002:0000b740       $unwind$?HandleOKCallback@CheckSpellingWorker@@UEAAXXZ 000000018005b740     worker.obj
 0002:0000b754       $chain$0$?HandleOKCallback@CheckSpellingWorker@@UEAAXXZ 000000018005b754     worker.obj
 0002:0000b768       $chain$1$?HandleOKCallback@CheckSpellingWorker@@UEAAXXZ 000000018005b768     worker.obj
 0002:0000b77c       $chain$3$?HandleOKCallback@CheckSpellingWorker@@UEAAXXZ 000000018005b77c     worker.obj
 0002:0000b794       $chain$4$?HandleOKCallback@CheckSpellingWorker@@UEAAXXZ 000000018005b794     worker.obj
 0002:0000b7a4       $chain$5$?HandleOKCallback@CheckSpellingWorker@@UEAAXXZ 000000018005b7a4     worker.obj
 0002:0000b7b4       $chain$6$?HandleOKCallback@CheckSpellingWorker@@UEAAXXZ 000000018005b7b4     worker.obj
 0002:0000b7c4       $unwind$??_GHunspell@@QEAAPEAXI@Z 000000018005b7c4     spellchecker_hunspell.obj
 0002:0000b7d0       $chain$0$??_GHunspell@@QEAAPEAXI@Z 000000018005b7d0     spellchecker_hunspell.obj
 0002:0000b7e4       $chain$2$??_GHunspell@@QEAAPEAXI@Z 000000018005b7e4     spellchecker_hunspell.obj
 0002:0000b7fc       $chain$3$??_GHunspell@@QEAAPEAXI@Z 000000018005b7fc     spellchecker_hunspell.obj
 0002:0000b80c       $chain$4$??_GHunspell@@QEAAPEAXI@Z 000000018005b80c     spellchecker_hunspell.obj
 0002:0000b81c       $unwind$?SetDictionary@HunspellSpellchecker@spellchecker@@UEAA_NAEBV?$basic_string@DU?$char_traits@D@std@@V?$allocator@D@2@@std@@0@Z 000000018005b81c     spellchecker_hunspell.obj
 0002:0000b838       $chain$0$?SetDictionary@HunspellSpellchecker@spellchecker@@UEAA_NAEBV?$basic_string@DU?$char_traits@D@std@@V?$allocator@D@2@@std@@0@Z 000000018005b838     spellchecker_hunspell.obj
 0002:0000b84c       $chain$1$?SetDictionary@HunspellSpellchecker@spellchecker@@UEAA_NAEBV?$basic_string@DU?$char_traits@D@std@@V?$allocator@D@2@@std@@0@Z 000000018005b84c     spellchecker_hunspell.obj
 0002:0000b860       $chain$2$?SetDictionary@HunspellSpellchecker@spellchecker@@UEAA_NAEBV?$basic_string@DU?$char_traits@D@std@@V?$allocator@D@2@@std@@0@Z 000000018005b860     spellchecker_hunspell.obj
 0002:0000b870       $chain$4$?SetDictionary@HunspellSpellchecker@spellchecker@@UEAA_NAEBV?$basic_string@DU?$char_traits@D@std@@V?$allocator@D@2@@std@@0@Z 000000018005b870     spellchecker_hunspell.obj
 0002:0000b884       $chain$5$?SetDictionary@HunspellSpellchecker@spellchecker@@UEAA_NAEBV?$basic_string@DU?$char_traits@D@std@@V?$allocator@D@2@@std@@0@Z 000000018005b884     spellchecker_hunspell.obj
 0002:0000b894       $unwind$?IsMisspelled@HunspellSpellchecker@spellchecker@@UEAA_NAEBV?$basic_string@DU?$char_traits@D@std@@V?$allocator@D@2@@std@@@Z 000000018005b894     spellchecker_hunspell.obj
 0002:0000b8a0       $chain$0$?IsMisspelled@HunspellSpellchecker@spellchecker@@UEAA_NAEBV?$basic_string@DU?$char_traits@D@std@@V?$allocator@D@2@@std@@@Z 000000018005b8a0     spellchecker_hunspell.obj
 0002:0000b8b4       $chain$1$?IsMisspelled@HunspellSpellchecker@spellchecker@@UEAA_NAEBV?$basic_string@DU?$char_traits@D@std@@V?$allocator@D@2@@std@@@Z 000000018005b8b4     spellchecker_hunspell.obj
 0002:0000b8c4       $unwind$?CheckSpelling@HunspellSpellchecker@spellchecker@@UEAA?AV?$vector@UMisspelledRange@spellchecker@@V?$allocator@UMisspelledRange@spellchecker@@@std@@@std@@PEBG_K@Z 000000018005b8c4     spellchecker_hunspell.obj
 0002:0000b8d4       $chain$3$?CheckSpelling@HunspellSpellchecker@spellchecker@@UEAA?AV?$vector@UMisspelledRange@spellchecker@@V?$allocator@UMisspelledRange@spellchecker@@@std@@@std@@PEBG_K@Z 000000018005b8d4     spellchecker_hunspell.obj
 0002:0000b8f4       $chain$4$?CheckSpelling@HunspellSpellchecker@spellchecker@@UEAA?AV?$vector@UMisspelledRange@spellchecker@@V?$allocator@UMisspelledRange@spellchecker@@@std@@@std@@PEBG_K@Z 000000018005b8f4     spellchecker_hunspell.obj
 0002:0000b908       $chain$5$?CheckSpelling@HunspellSpellchecker@spellchecker@@UEAA?AV?$vector@UMisspelledRange@spellchecker@@V?$allocator@UMisspelledRange@spellchecker@@@std@@@std@@PEBG_K@Z 000000018005b908     spellchecker_hunspell.obj
 0002:0000b918       $unwind$?GetCorrectionsForMisspelling@HunspellSpellchecker@spellchecker@@UEAA?AV?$vector@V?$basic_string@DU?$char_traits@D@std@@V?$allocator@D@2@@std@@V?$allocator@V?$basic_string@DU?$char_traits@D@std@@V?$allocator@D@2@@std@@@2@@std@@AEBV?$basic_string@DU?$char_traits@D@std@@V?$allocator@D@2@@4@@Z 000000018005b918     spellchecker_hunspell.obj
 0002:0000b93c       $unwind$??0?$basic_string@DU?$char_traits@D@std@@V?$allocator@D@2@@std@@QEAA@AEBV01@@Z 000000018005b93c     spellchecker_hunspell.obj
 0002:0000b950       $unwind$?append@?$basic_string@DU?$char_traits@D@std@@V?$allocator@D@2@@std@@QEAAAEAV12@QEBD_K@Z 000000018005b950     spellchecker_hunspell.obj
 0002:0000b95c       $chain$0$?append@?$basic_string@DU?$char_traits@D@std@@V?$allocator@D@2@@std@@QEAAAEAV12@QEBD_K@Z 000000018005b95c     spellchecker_hunspell.obj
 0002:0000b970       $chain$1$?append@?$basic_string@DU?$char_traits@D@std@@V?$allocator@D@2@@std@@QEAAAEAV12@QEBD_K@Z 000000018005b970     spellchecker_hunspell.obj
 0002:0000b980       $unwind$??$ensure_buffer_is_big_enough@_W@formatting_buffer@__crt_stdio_output@@QEAA_N_K@Z 000000018005b980     libucrt:output.obj
 0002:0000b980       $unwind$?process_sfx_tree_to_list@AffixMgr@@AEAAHXZ 000000018005b980     hunspell:affixmgr.obj
 0002:0000b980       $unwind$__acrt_lowio_create_handle_array 000000018005b980     libucrt:osfinfo.obj
 0002:0000b980       $unwind$?get_current_cs@@YAPEAUcs_info@@PEBD@Z 000000018005b980     hunspell:csutil.obj
 0002:0000b980       $unwind$_initterm          000000018005b980     libucrt:initterm.obj
 0002:0000b980       $unwind$?Is_bad_exception_allowed@@YAEPEBU_s_ESTypeList@@@Z 000000018005b980     libvcruntime:frame.obj
 0002:0000b980       $unwind$__acrt_free_locale 000000018005b980     libucrt:locale_refcounting.obj
 0002:0000b980       $unwind$?remove_forbidden_flag@HashMgr@@AEAAHPEBD@Z 000000018005b980     hunspell:hashmgr.obj
 0002:0000b980       $unwind$?find_or_allocate_unused_stream_nolock@@YA?AV__crt_stdio_stream@@XZ 000000018005b980     libucrt:stream.obj
 0002:0000b980       $unwind$_wassert           000000018005b980     libucrt:assert.obj
 0002:0000b980       $unwind$__scrt_dllmain_exception_filter 000000018005b980     LIBCMT:utility.obj
 0002:0000b980       $unwind$?_Change_array@?$vector@V?$basic_string@DU?$char_traits@D@std@@V?$allocator@D@2@@std@@V?$allocator@V?$basic_string@DU?$char_traits@D@std@@V?$allocator@D@2@@std@@@2@@std@@AEAAXQEAV?$basic_string@DU?$char_traits@D@std@@V?$allocator@D@2@@2@_K1@Z 000000018005b980     spellchecker_hunspell.obj
 0002:0000b980       $unwind$?setSBCS@@YAXPEAU__crt_multibyte_data@@@Z 000000018005b980     libucrt:mbctype.obj
 0002:0000b980       $unwind$_seh_filter_exe    000000018005b980     libucrt:exception_filter.obj
 0002:0000b980       $unwind$??$ensure_buffer_is_big_enough@D@formatting_buffer@__crt_stdio_output@@QEAA_N_K@Z 000000018005b980     libucrt:output.obj
 0002:0000b980       $unwind$__acrt_show_wide_message_box 000000018005b980     libucrt:crtmbox.obj
 0002:0000b980       $unwind$_recalloc_base     000000018005b980     libucrt:recalloc.obj
 0002:0000b980       $unwind$?GetHandlerSearchState@__FrameHandler3@@SAHPEA_KPEAU_xDISPATCHER_CONTEXT@@PEBU_s_FuncInfo@@@Z 000000018005b980     libvcruntime:frame.obj
 0002:0000b994       $unwind$??$_Emplace_reallocate@V?$basic_string@DU?$char_traits@D@std@@V?$allocator@D@2@@std@@@?$vector@V?$basic_string@DU?$char_traits@D@std@@V?$allocator@D@2@@std@@V?$allocator@V?$basic_string@DU?$char_traits@D@std@@V?$allocator@D@2@@std@@@2@@std@@QEAAPEAV?$basic_string@DU?$char_traits@D@std@@V?$allocator@D@2@@1@QEAV21@$$QEAV21@@Z 000000018005b994     spellchecker_hunspell.obj
 0002:0000b9a4       $chain$3$??$_Emplace_reallocate@V?$basic_string@DU?$char_traits@D@std@@V?$allocator@D@2@@std@@@?$vector@V?$basic_string@DU?$char_traits@D@std@@V?$allocator@D@2@@std@@V?$allocator@V?$basic_string@DU?$char_traits@D@std@@V?$allocator@D@2@@std@@@2@@std@@QEAAPEAV?$basic_string@DU?$char_traits@D@std@@V?$allocator@D@2@@1@QEAV21@$$QEAV21@@Z 000000018005b9a4     spellchecker_hunspell.obj
 0002:0000b9c4       $chain$5$??$_Emplace_reallocate@V?$basic_string@DU?$char_traits@D@std@@V?$allocator@D@2@@std@@@?$vector@V?$basic_string@DU?$char_traits@D@std@@V?$allocator@D@2@@std@@V?$allocator@V?$basic_string@DU?$char_traits@D@std@@V?$allocator@D@2@@std@@@2@@std@@QEAAPEAV?$basic_string@DU?$char_traits@D@std@@V?$allocator@D@2@@1@QEAV21@$$QEAV21@@Z 000000018005b9c4     spellchecker_hunspell.obj
 0002:0000b9e4       $chain$6$??$_Emplace_reallocate@V?$basic_string@DU?$char_traits@D@std@@V?$allocator@D@2@@std@@@?$vector@V?$basic_string@DU?$char_traits@D@std@@V?$allocator@D@2@@std@@V?$allocator@V?$basic_string@DU?$char_traits@D@std@@V?$allocator@D@2@@std@@@2@@std@@QEAAPEAV?$basic_string@DU?$char_traits@D@std@@V?$allocator@D@2@@1@QEAV21@$$QEAV21@@Z 000000018005b9e4     spellchecker_hunspell.obj
 0002:0000b9f4       $unwind$??$_Emplace_reallocate@AEBUMisspelledRange@spellchecker@@@?$vector@UMisspelledRange@spellchecker@@V?$allocator@UMisspelledRange@spellchecker@@@std@@@std@@QEAAPEAUMisspelledRange@spellchecker@@QEAU23@AEBU23@@Z 000000018005b9f4     spellchecker_hunspell.obj
 0002:0000ba04       $chain$2$??$_Emplace_reallocate@AEBUMisspelledRange@spellchecker@@@?$vector@UMisspelledRange@spellchecker@@V?$allocator@UMisspelledRange@spellchecker@@@std@@@std@@QEAAPEAUMisspelledRange@spellchecker@@QEAU23@AEBU23@@Z 000000018005ba04     spellchecker_hunspell.obj
 0002:0000ba20       $chain$4$??$_Emplace_reallocate@AEBUMisspelledRange@spellchecker@@@?$vector@UMisspelledRange@spellchecker@@V?$allocator@UMisspelledRange@spellchecker@@@std@@@std@@QEAAPEAUMisspelledRange@spellchecker@@QEAU23@AEBU23@@Z 000000018005ba20     spellchecker_hunspell.obj
 0002:0000ba3c       $chain$5$??$_Emplace_reallocate@AEBUMisspelledRange@spellchecker@@@?$vector@UMisspelledRange@spellchecker@@V?$allocator@UMisspelledRange@spellchecker@@@std@@@std@@QEAAPEAUMisspelledRange@spellchecker@@QEAU23@AEBU23@@Z 000000018005ba3c     spellchecker_hunspell.obj
 0002:0000ba4c       $unwind$??$_Reallocate_grow_by@V<lambda_65e615be2a453ca0576c979606f46740>@@PEBD_K@?$basic_string@DU?$char_traits@D@std@@V?$allocator@D@2@@std@@QEAAAEAV01@_KV<lambda_65e615be2a453ca0576c979606f46740>@@PEBD_K@Z 000000018005ba4c     spellchecker_hunspell.obj
 0002:0000ba5c       $chain$3$??$_Reallocate_grow_by@V<lambda_65e615be2a453ca0576c979606f46740>@@PEBD_K@?$basic_string@DU?$char_traits@D@std@@V?$allocator@D@2@@std@@QEAAAEAV01@_KV<lambda_65e615be2a453ca0576c979606f46740>@@PEBD_K@Z 000000018005ba5c     spellchecker_hunspell.obj
 0002:0000ba7c       $chain$4$??$_Reallocate_grow_by@V<lambda_65e615be2a453ca0576c979606f46740>@@PEBD_K@?$basic_string@DU?$char_traits@D@std@@V?$allocator@D@2@@std@@QEAAAEAV01@_KV<lambda_65e615be2a453ca0576c979606f46740>@@PEBD_K@Z 000000018005ba7c     spellchecker_hunspell.obj
 0002:0000ba8c       $chain$5$??$_Reallocate_grow_by@V<lambda_65e615be2a453ca0576c979606f46740>@@PEBD_K@?$basic_string@DU?$char_traits@D@std@@V?$allocator@D@2@@std@@QEAAAEAV01@_KV<lambda_65e615be2a453ca0576c979606f46740>@@PEBD_K@Z 000000018005ba8c     spellchecker_hunspell.obj
 0002:0000baac       $unwind$?reserve@?$basic_string@DU?$char_traits@D@std@@V?$allocator@D@2@@std@@QEAAX_K@Z 000000018005baac     spellchecker_hunspell.obj
 0002:0000bab8       $chain$0$?reserve@?$basic_string@DU?$char_traits@D@std@@V?$allocator@D@2@@std@@QEAAX_K@Z 000000018005bab8     spellchecker_hunspell.obj
 0002:0000bacc       $chain$2$?reserve@?$basic_string@DU?$char_traits@D@std@@V?$allocator@D@2@@std@@QEAAX_K@Z 000000018005bacc     spellchecker_hunspell.obj
 0002:0000bae4       $chain$3$?reserve@?$basic_string@DU?$char_traits@D@std@@V?$allocator@D@2@@std@@QEAAX_K@Z 000000018005bae4     spellchecker_hunspell.obj
 0002:0000baf4       $chain$4$?reserve@?$basic_string@DU?$char_traits@D@std@@V?$allocator@D@2@@std@@QEAAX_K@Z 000000018005baf4     spellchecker_hunspell.obj
 0002:0000bb04       $chain$5$?reserve@?$basic_string@DU?$char_traits@D@std@@V?$allocator@D@2@@std@@QEAAX_K@Z 000000018005bb04     spellchecker_hunspell.obj
 0002:0000bb20       $unwind$?ToWString@spellchecker@@YA?AV?$basic_string@_WU?$char_traits@_W@std@@V?$allocator@_W@2@@std@@AEBV?$basic_string@DU?$char_traits@D@std@@V?$allocator@D@2@@3@@Z 000000018005bb20     spellchecker_win.obj
 0002:0000bb34       $chain$0$?ToWString@spellchecker@@YA?AV?$basic_string@_WU?$char_traits@_W@std@@V?$allocator@_W@2@@std@@AEBV?$basic_string@DU?$char_traits@D@std@@V?$allocator@D@2@@3@@Z 000000018005bb34     spellchecker_win.obj
 0002:0000bb48       $chain$2$?ToWString@spellchecker@@YA?AV?$basic_string@_WU?$char_traits@_W@std@@V?$allocator@_W@2@@std@@AEBV?$basic_string@DU?$char_traits@D@std@@V?$allocator@D@2@@3@@Z 000000018005bb48     spellchecker_win.obj
 0002:0000bb60       $chain$3$?ToWString@spellchecker@@YA?AV?$basic_string@_WU?$char_traits@_W@std@@V?$allocator@_W@2@@std@@AEBV?$basic_string@DU?$char_traits@D@std@@V?$allocator@D@2@@3@@Z 000000018005bb60     spellchecker_win.obj
 0002:0000bb74       $chain$4$?ToWString@spellchecker@@YA?AV?$basic_string@_WU?$char_traits@_W@std@@V?$allocator@_W@2@@std@@AEBV?$basic_string@DU?$char_traits@D@std@@V?$allocator@D@2@@3@@Z 000000018005bb74     spellchecker_win.obj
 0002:0000bb84       $unwind$?DoCheckSpelling@spellchecker@@YA?AV?$vector@UMisspelledRange@spellchecker@@V?$allocator@UMisspelledRange@spellchecker@@@std@@@std@@PEAUISpellChecker@@PEBG_K@Z 000000018005bb84     spellchecker_win.obj
 0002:0000bb9c       $unwind$?SetDictionary@WindowsSpellchecker@spellchecker@@UEAA_NAEBV?$basic_string@DU?$char_traits@D@std@@V?$allocator@D@2@@std@@0@Z 000000018005bb9c     spellchecker_win.obj
 0002:0000bbb4       $chain$0$?SetDictionary@WindowsSpellchecker@spellchecker@@UEAA_NAEBV?$basic_string@DU?$char_traits@D@std@@V?$allocator@D@2@@std@@0@Z 000000018005bbb4     spellchecker_win.obj
 0002:0000bbc8       $chain$3$?SetDictionary@WindowsSpellchecker@spellchecker@@UEAA_NAEBV?$basic_string@DU?$char_traits@D@std@@V?$allocator@D@2@@std@@0@Z 000000018005bbc8     spellchecker_win.obj
 0002:0000bbe4       $chain$4$?SetDictionary@WindowsSpellchecker@spellchecker@@UEAA_NAEBV?$basic_string@DU?$char_traits@D@std@@V?$allocator@D@2@@std@@0@Z 000000018005bbe4     spellchecker_win.obj
 0002:0000bbf8       $chain$5$?SetDictionary@WindowsSpellchecker@spellchecker@@UEAA_NAEBV?$basic_string@DU?$char_traits@D@std@@V?$allocator@D@2@@std@@0@Z 000000018005bbf8     spellchecker_win.obj
 0002:0000bc08       $chain$6$?SetDictionary@WindowsSpellchecker@spellchecker@@UEAA_NAEBV?$basic_string@DU?$char_traits@D@std@@V?$allocator@D@2@@std@@0@Z 000000018005bc08     spellchecker_win.obj
 0002:0000bc20       $unwind$?GetAvailableDictionaries@WindowsSpellchecker@spellchecker@@UEAA?AV?$vector@V?$basic_string@DU?$char_traits@D@std@@V?$allocator@D@2@@std@@V?$allocator@V?$basic_string@DU?$char_traits@D@std@@V?$allocator@D@2@@std@@@2@@std@@AEBV?$basic_string@DU?$char_traits@D@std@@V?$allocator@D@2@@4@@Z 000000018005bc20     spellchecker_win.obj
 0002:0000bc38       $chain$2$?GetAvailableDictionaries@WindowsSpellchecker@spellchecker@@UEAA?AV?$vector@V?$basic_string@DU?$char_traits@D@std@@V?$allocator@D@2@@std@@V?$allocator@V?$basic_string@DU?$char_traits@D@std@@V?$allocator@D@2@@std@@@2@@std@@AEBV?$basic_string@DU?$char_traits@D@std@@V?$allocator@D@2@@4@@Z 000000018005bc38     spellchecker_win.obj
 0002:0000bc54       $chain$3$?GetAvailableDictionaries@WindowsSpellchecker@spellchecker@@UEAA?AV?$vector@V?$basic_string@DU?$char_traits@D@std@@V?$allocator@D@2@@std@@V?$allocator@V?$basic_string@DU?$char_traits@D@std@@V?$allocator@D@2@@std@@@2@@std@@AEBV?$basic_string@DU?$char_traits@D@std@@V?$allocator@D@2@@4@@Z 000000018005bc54     spellchecker_win.obj
 0002:0000bc64       $chain$4$?GetAvailableDictionaries@WindowsSpellchecker@spellchecker@@UEAA?AV?$vector@V?$basic_string@DU?$char_traits@D@std@@V?$allocator@D@2@@std@@V?$allocator@V?$basic_string@DU?$char_traits@D@std@@V?$allocator@D@2@@std@@@2@@std@@AEBV?$basic_string@DU?$char_traits@D@std@@V?$allocator@D@2@@4@@Z 000000018005bc64     spellchecker_win.obj
 0002:0000bc80       $unwind$?IsMisspelled@WindowsSpellchecker@spellchecker@@UEAA_NAEBV?$basic_string@DU?$char_traits@D@std@@V?$allocator@D@2@@std@@@Z 000000018005bc80     spellchecker_win.obj
 0002:0000bc90       $unwind$?Add@WindowsSpellchecker@spellchecker@@UEAAXAEBV?$basic_string@DU?$char_traits@D@std@@V?$allocator@D@2@@std@@@Z 000000018005bc90     spellchecker_win.obj
 0002:0000bca0       $unwind$?GetCorrectionsForMisspelling@WindowsSpellchecker@spellchecker@@UEAA?AV?$vector@V?$basic_string@DU?$char_traits@D@std@@V?$allocator@D@2@@std@@V?$allocator@V?$basic_string@DU?$char_traits@D@std@@V?$allocator@D@2@@std@@@2@@std@@AEBV?$basic_string@DU?$char_traits@D@std@@V?$allocator@D@2@@4@@Z 000000018005bca0     spellchecker_win.obj
 0002:0000bcb8       $chain$1$?GetCorrectionsForMisspelling@WindowsSpellchecker@spellchecker@@UEAA?AV?$vector@V?$basic_string@DU?$char_traits@D@std@@V?$allocator@D@2@@std@@V?$allocator@V?$basic_string@DU?$char_traits@D@std@@V?$allocator@D@2@@std@@@2@@std@@AEBV?$basic_string@DU?$char_traits@D@std@@V?$allocator@D@2@@4@@Z 000000018005bcb8     spellchecker_win.obj
 0002:0000bcd0       $chain$2$?GetCorrectionsForMisspelling@WindowsSpellchecker@spellchecker@@UEAA?AV?$vector@V?$basic_string@DU?$char_traits@D@std@@V?$allocator@D@2@@std@@V?$allocator@V?$basic_string@DU?$char_traits@D@std@@V?$allocator@D@2@@std@@@2@@std@@AEBV?$basic_string@DU?$char_traits@D@std@@V?$allocator@D@2@@4@@Z 000000018005bcd0     spellchecker_win.obj
 0002:0000bce0       $chain$3$?GetCorrectionsForMisspelling@WindowsSpellchecker@spellchecker@@UEAA?AV?$vector@V?$basic_string@DU?$char_traits@D@std@@V?$allocator@D@2@@std@@V?$allocator@V?$basic_string@DU?$char_traits@D@std@@V?$allocator@D@2@@std@@@2@@std@@AEBV?$basic_string@DU?$char_traits@D@std@@V?$allocator@D@2@@4@@Z 000000018005bce0     spellchecker_win.obj
 0002:0000bcf8       $unwind$?decode_options@@YA?AUfile_options@?A0xa9d50aae@@HHH@Z 000000018005bcf8     libucrt:open.obj
 0002:0000bcf8       $unwind$?CreateThreadView@WindowsSpellchecker@spellchecker@@UEAA?AV?$unique_ptr@VSpellcheckerThreadView@spellchecker@@U?$default_delete@VSpellcheckerThreadView@spellchecker@@@std@@@std@@XZ 000000018005bcf8     spellchecker_win.obj
 0002:0000bd0c       $unwind$?CreateSpellchecker@SpellcheckerFactory@spellchecker@@SAPEAVSpellcheckerImplementation@2@H@Z 000000018005bd0c     spellchecker_win.obj
 0002:0000bd18       $chain$1$?CreateSpellchecker@SpellcheckerFactory@spellchecker@@SAPEAVSpellcheckerImplementation@2@H@Z 000000018005bd18     spellchecker_win.obj
 0002:0000bd30       $chain$2$?CreateSpellchecker@SpellcheckerFactory@spellchecker@@SAPEAVSpellcheckerImplementation@2@H@Z 000000018005bd30     spellchecker_win.obj
 0002:0000bd40       $unwind$?assign@?$basic_string@_WU?$char_traits@_W@std@@V?$allocator@_W@2@@std@@QEAAAEAV12@QEB_W_K@Z 000000018005bd40     spellchecker_win.obj
 0002:0000bd40       $unwind$?u8_u16@@YAHPEAUw_char@@HPEBD@Z 000000018005bd40     hunspell:csutil.obj
 0002:0000bd40       $unwind$??1AffixMgr@@QEAA@XZ 000000018005bd40     hunspell:affixmgr.obj
 0002:0000bd5c       $unwind$?Transcode8to8@spellchecker@@YA_NPEBUTranscoder@1@PEAD_KPEBD2@Z 000000018005bd5c     transcoder_win.obj
 0002:0000bd64       $chain$2$?Transcode8to8@spellchecker@@YA_NPEBUTranscoder@1@PEAD_KPEBD2@Z 000000018005bd64     transcoder_win.obj
 0002:0000bd80       $chain$3$?Transcode8to8@spellchecker@@YA_NPEBUTranscoder@1@PEAD_KPEBD2@Z 000000018005bd80     transcoder_win.obj
 0002:0000bd94       $chain$4$?Transcode8to8@spellchecker@@YA_NPEBUTranscoder@1@PEAD_KPEBD2@Z 000000018005bd94     transcoder_win.obj
 0002:0000bda4       $chain$5$?Transcode8to8@spellchecker@@YA_NPEBUTranscoder@1@PEAD_KPEBD2@Z 000000018005bda4     transcoder_win.obj
 0002:0000bdb4       $unwind$sprintf            000000018005bdb4     hunspell:hunspell.obj
 0002:0000bdb4       $unwind$fprintf            000000018005bdb4     hunspell:filemgr.obj
 0002:0000bdb4       $unwind$fwprintf           000000018005bdb4     libucrt:assert.obj
 0002:0000bdc0       $unwind$??0Hunspell@@QEAA@PEBD00@Z 000000018005bdc0     hunspell:hunspell.obj
 0002:0000bdd8       $unwind$?cleanword@Hunspell@@AEAAHPEADPEBDPEAH2@Z 000000018005bdd8     hunspell:hunspell.obj
 0002:0000bdf4       $chain$2$?cleanword@Hunspell@@AEAAHPEADPEBDPEAH2@Z 000000018005bdf4     hunspell:hunspell.obj
 0002:0000be10       $chain$3$?cleanword@Hunspell@@AEAAHPEADPEBDPEAH2@Z 000000018005be10     hunspell:hunspell.obj
 0002:0000be20       $unwind$?mkallcap@Hunspell@@AEAAXPEAD@Z 000000018005be20     hunspell:hunspell.obj
 0002:0000be34       $chain$2$?mkallcap@Hunspell@@AEAAXPEAD@Z 000000018005be34     hunspell:hunspell.obj
 0002:0000be50       $chain$3$?mkallcap@Hunspell@@AEAAXPEAD@Z 000000018005be50     hunspell:hunspell.obj
 0002:0000be64       $chain$4$?mkallcap@Hunspell@@AEAAXPEAD@Z 000000018005be64     hunspell:hunspell.obj
 0002:0000be74       $chain$5$?mkallcap@Hunspell@@AEAAXPEAD@Z 000000018005be74     hunspell:hunspell.obj
 0002:0000be84       $unwind$__acrt_locale_initialize_numeric 000000018005be84     libucrt:initnum.obj
 0002:0000be84       $unwind$?spellsharps@Hunspell@@AEAAPEAUhentry@@PEAD0HH0PEAHPEAPEAD@Z 000000018005be84     hunspell:hunspell.obj
 0002:0000be84       $unwind$__C_specific_handler 000000018005be84     libvcruntime:riscchandler.obj
 0002:0000bea0       $unwind$?spell@Hunspell@@QEAAHPEBDPEAHPEAPEAD@Z 000000018005bea0     hunspell:hunspell.obj
 0002:0000bec8       $unwind$?checkword@Hunspell@@AEAAPEAUhentry@@PEBDPEAHPEAPEAD@Z 000000018005bec8     hunspell:hunspell.obj
 0002:0000bee8       $unwind$?suggest@Hunspell@@QEAAHPEAPEAPEADPEBD@Z 000000018005bee8     hunspell:hunspell.obj
 0002:0000bf0c       $unwind$?stem@Hunspell@@QEAAHPEAPEAPEADPEAPEADH@Z 000000018005bf0c     hunspell:hunspell.obj
 0002:0000bf24       $chain$4$?stem@Hunspell@@QEAAHPEAPEAPEADPEAPEADH@Z 000000018005bf24     hunspell:hunspell.obj
 0002:0000bf48       $chain$5$?stem@Hunspell@@QEAAHPEAPEAPEADPEAPEADH@Z 000000018005bf48     hunspell:hunspell.obj
 0002:0000bf58       $unwind$?stem@Hunspell@@QEAAHPEAPEAPEADPEBD@Z 000000018005bf58     hunspell:hunspell.obj
 0002:0000bf6c       $unwind$?mkinitcap@Hunspell@@AEAAXPEAD@Z 000000018005bf6c     hunspell:hunspell.obj
 0002:0000bf84       $chain$0$?mkinitcap2@Hunspell@@AEAAHPEADPEAUw_char@@H@Z 000000018005bf84     hunspell:hunspell.obj
 0002:0000bf98       $chain$1$?mkinitcap2@Hunspell@@AEAAHPEADPEAUw_char@@H@Z 000000018005bf98     hunspell:hunspell.obj
 0002:0000bfa8       $unwind$?add@Hunspell@@QEAAHPEBD@Z 000000018005bfa8     hunspell:hunspell.obj
 0002:0000bfb4       $chain$2$?add@Hunspell@@QEAAHPEBD@Z 000000018005bfb4     hunspell:hunspell.obj
 0002:0000bfd0       $chain$4$?add@Hunspell@@QEAAHPEBD@Z 000000018005bfd0     hunspell:hunspell.obj
 0002:0000bfe4       $chain$5$?add@Hunspell@@QEAAHPEBD@Z 000000018005bfe4     hunspell:hunspell.obj
 0002:0000bff4       $unwind$?fin$0@?0???$?RV<lambda_f2e299630e499de9f9a165e60fcd3db5>@@AEAV<lambda_2ae9d31cdba2644fcbeaf08da7c24588>@@V<lambda_40d01ff24d0e7b3814fdbdcee8eab3c7>@@@?$__crt_seh_guarded_call@X@@QEAAX$$QEAV<lambda_f2e299630e499de9f9a165e60fcd3db5>@@AEAV<lambda_2ae9d31cdba2644fcbeaf08da7c24588>@@$$QEAV<lambda_40d01ff24d0e7b3814fdbdcee8eab3c7>@@@Z@4HA 000000018005bff4     libucrt:per_thread_data.obj
 0002:0000bff4       $unwind$__acrt_lowio_ensure_fh_exists$fin$0 000000018005bff4     libucrt:osfinfo.obj
 0002:0000bff4       $unwind$?filt$0@?0??FrameUnwindToState@__FrameHandler3@@SAXPEA_KPEAU_xDISPATCHER_CONTEXT@@PEBU_s_FuncInfo@@H@Z@4HA 000000018005bff4     libvcruntime:frame.obj
 0002:0000bff4       $unwind$?fin$0@?0???$common_lseek@_J@@YA_JH_JH@Z@4HA 000000018005bff4     libucrt:lseek.obj
 0002:0000bff4       $unwind$?fin$0@?0???$common_fgets@D@@YAPEADQEADHV__crt_stdio_stream@@@Z@4HA 000000018005bff4     libucrt:fgets.obj
 0002:0000bff4       $unwind$?filt$0@?0???R<lambda_6e4b09c48022b2350581041d5f6b0c4c>@@QEBA@XZ@4HA 000000018005bff4     libucrt:exit.obj
 0002:0000bff4       $unwind$?fin$0@?0??dllmain_crt_process_detach@@YAH_N@Z@4HA 000000018005bff4     LIBCMT:dll_dllmain.obj
 0002:0000bff4       $unwind$_alloc_osfhnd$fin$0 000000018005bff4     libucrt:osfinfo.obj
 0002:0000bff4       $unwind$?fin$0@?0???$?RV<lambda_c376a267cfb53b6959b3b692ec76b120>@@AEAV<lambda_9a32fed5bf61b6b509b2d3f6003082a1>@@V<lambda_572fbb9fa0ab338edf41edfd4b5fcc8d>@@@?$__crt_seh_guarded_call@H@@QEAAH$$QEAV<lambda_c376a267cfb53b6959b3b692ec76b120>@@AEAV<lambda_9a32fed5bf61b6b509b2d3f6003082a1>@@$$QEAV<lambda_572fbb9fa0ab338edf41edfd4b5fcc8d>@@@Z@4HA 000000018005bff4     libucrt:fflush.obj
 0002:0000bff4       $unwind$?fin$0@?0???$?RV<lambda_7777bce6b2f8c936911f934f8298dc43>@@AEAV<lambda_f03950bc5685219e0bcd2087efbe011e>@@V<lambda_3883c3dff614d5e0c5f61bb1ac94921c>@@@?$__crt_seh_guarded_call@H@@QEAAH$$QEAV<lambda_7777bce6b2f8c936911f934f8298dc43>@@AEAV<lambda_f03950bc5685219e0bcd2087efbe011e>@@$$QEAV<lambda_3883c3dff614d5e0c5f61bb1ac94921c>@@@Z@4HA 000000018005bff4     libucrt:onexit.obj
 0002:0000bff4       $unwind$?fin$0@?0???$?RV<lambda_d80eeec6fff315bfe5c115232f3240e3>@@AEAV<lambda_6e4b09c48022b2350581041d5f6b0c4c>@@V<lambda_2358e3775559c9db80273638284d5e45>@@@?$__crt_seh_guarded_call@X@@QEAAX$$QEAV<lambda_d80eeec6fff315bfe5c115232f3240e3>@@AEAV<lambda_6e4b09c48022b2350581041d5f6b0c4c>@@$$QEAV<lambda_2358e3775559c9db80273638284d5e45>@@@Z@4HA 000000018005bff4     libucrt:exit.obj
 0002:0000bff4       $unwind$?fin$0@?0??__acrt_stdio_allocate_stream@@YA?AV__crt_stdio_stream@@XZ@4HA 000000018005bff4     libucrt:stream.obj
 0002:0000bff4       $unwind$?fin$0@?0???$?RV<lambda_bd00b5aa228bd7e7e5b2b5db5fd2933b>@@AEAV<lambda_777d11615145f89ee95b9466d285deeb>@@V<lambda_6e5e48fbd24f9f8f81b203eb3d877683>@@@?$__crt_seh_guarded_call@H@@QEAAH$$QEAV<lambda_bd00b5aa228bd7e7e5b2b5db5fd2933b>@@AEAV<lambda_777d11615145f89ee95b9466d285deeb>@@$$QEAV<lambda_6e5e48fbd24f9f8f81b203eb3d877683>@@@Z@4HA 000000018005bff4     libucrt:winapi_thunks.obj
 0002:0000bff4       $unwind$?fin$0@?0???$?RV<lambda_450d765d439847d4c735a33c368b5fc0>@@AEAV<lambda_44731a7d0e6d81c3e6aa82d741081786>@@V<lambda_601a2a7da3b7a96e9554ac7215c4b07c>@@@?$__crt_seh_guarded_call@P6AXH@Z@@QEAAP6AXH@Z$$QEAV<lambda_450d765d439847d4c735a33c368b5fc0>@@AEAV<lambda_44731a7d0e6d81c3e6aa82d741081786>@@$$QEAV<lambda_601a2a7da3b7a96e9554ac7215c4b07c>@@@Z@4HA 000000018005bff4     libucrt:signal.obj
 0002:0000bff4       $unwind$?fin$0@?0???$common_fsopen@D@@YAPEAU_iobuf@@QEBD0H@Z@4HA 000000018005bff4     libucrt:fopen.obj
 0002:0000bff4       $unwind$?filt$0@?0??CxxCallCatchBlock@__FrameHandler3@@SAPEAXPEAU_EXCEPTION_RECORD@@@Z@4HA 000000018005bff4     libvcruntime:frame.obj
 0002:0000bff4       $unwind$?fin$0@?0???$?RV<lambda_751a882b2c74d4b022dec766aa51a29a>@@AEAV<lambda_628dfdc04ba53c8bfc02c9951375f3f5>@@V<lambda_f6c7be5f7998530c34de24c7437d6b54>@@@?$__crt_seh_guarded_call@H@@QEAAH$$QEAV<lambda_751a882b2c74d4b022dec766aa51a29a>@@AEAV<lambda_628dfdc04ba53c8bfc02c9951375f3f5>@@$$QEAV<lambda_f6c7be5f7998530c34de24c7437d6b54>@@@Z@4HA 000000018005bff4     libucrt:close.obj
 0002:0000bff4       $unwind$?fin$1@?0??FrameUnwindToState@__FrameHandler3@@SAXPEA_KPEAU_xDISPATCHER_CONTEXT@@PEBU_s_FuncInfo@@H@Z@4HA 000000018005bff4     libvcruntime:frame.obj
 0002:0000bff4       $unwind$fclose$fin$0       000000018005bff4     libucrt:fclose.obj
 0002:0000bff4       $unwind$?fin$0@?0???$?RV<lambda_a62c933ada0517137acf5807a1eeac1f>@@AEAV<lambda_a31071773b9a94e445cbd5d04ef99106>@@V<lambda_56065050dbf3ada7e59a83db45153de3>@@@?$__crt_seh_guarded_call@H@@QEAAH$$QEAV<lambda_a62c933ada0517137acf5807a1eeac1f>@@AEAV<lambda_a31071773b9a94e445cbd5d04ef99106>@@$$QEAV<lambda_56065050dbf3ada7e59a83db45153de3>@@@Z@4HA 000000018005bff4     libucrt:output.obj
 0002:0000bff4       $unwind$?fin$0@?0???$?RV<lambda_0d412022a4b28cc8a401ea49574e8ae6>@@AEAV<lambda_a775ed57af18ba8e4d5dc780aa9068fe>@@V<lambda_975a71a6baa488a08f4e15f6b0339b9e>@@@?$__crt_seh_guarded_call@H@@QEAAH$$QEAV<lambda_0d412022a4b28cc8a401ea49574e8ae6>@@AEAV<lambda_a775ed57af18ba8e4d5dc780aa9068fe>@@$$QEAV<lambda_975a71a6baa488a08f4e15f6b0339b9e>@@@Z@4HA 000000018005bff4     libucrt:output.obj
 0002:0000bff4       $unwind$?fin$0@?0??update_thread_multibyte_data_internal@@YAPEAU__crt_multibyte_data@@QEAU__acrt_ptd@@QEAPEAU1@@Z@4HA 000000018005bff4     libucrt:mbctype.obj
 0002:0000bff4       $unwind$_read$fin$0        000000018005bff4     libucrt:read.obj
 0002:0000bff4       $unwind$__acrt_update_thread_locale_data$fin$0 000000018005bff4     libucrt:locale_refcounting.obj
 0002:0000bff4       $unwind$raise$fin$0        000000018005bff4     libucrt:signal.obj
 0002:0000bff4       $unwind$__DestructExceptionObject$filt$0 000000018005bff4     libvcruntime:ehhelpers.obj
 0002:0000bff4       $unwind$?fin$0@?0???$?RV<lambda_a37b2b86f63e897a80ea819b0eb08c01>@@AEAV<lambda_38ce7e780aa69e748d6df282ebc68efe>@@V<lambda_99fb1378e971ab6e7edea83e3a7a83a2>@@@?$__crt_seh_guarded_call@H@@QEAAH$$QEAV<lambda_a37b2b86f63e897a80ea819b0eb08c01>@@AEAV<lambda_38ce7e780aa69e748d6df282ebc68efe>@@$$QEAV<lambda_99fb1378e971ab6e7edea83e3a7a83a2>@@@Z@4HA 000000018005bff4     libucrt:commit.obj
 0002:0000bff4       $unwind$?fin$0@?0???$?RV<lambda_7f2adfce497ff2baa965cd4f576ecfd1>@@AEAV<lambda_2a444430fde8c29194d880d93eed5e8f>@@AEAV<lambda_8dff2cf36a5417162780cd64fa2883ef>@@@?$__crt_seh_guarded_call@X@@QEAAX$$QEAV<lambda_7f2adfce497ff2baa965cd4f576ecfd1>@@AEAV<lambda_2a444430fde8c29194d880d93eed5e8f>@@AEAV<lambda_8dff2cf36a5417162780cd64fa2883ef>@@@Z@4HA 000000018005bff4     libucrt:wsetlocale.obj
 0002:0000bff4       $unwind$?fin$0@?0???$?RV<lambda_0ae27a3a962d80f24befdcbee591983d>@@AEAV<lambda_8d0ee55de4b1038c4002e0adecdf1839>@@V<lambda_dc504788e8f1664fe9b84e20bfb512f2>@@@?$__crt_seh_guarded_call@X@@QEAAX$$QEAV<lambda_0ae27a3a962d80f24befdcbee591983d>@@AEAV<lambda_8d0ee55de4b1038c4002e0adecdf1839>@@$$QEAV<lambda_dc504788e8f1664fe9b84e20bfb512f2>@@@Z@4HA 000000018005bff4     libucrt:per_thread_data.obj
 0002:0000bff4       $unwind$?remove@Hunspell@@QEAAHPEBD@Z 000000018005bff4     hunspell:hunspell.obj
 0002:0000bff4       $unwind$_IsNonwritableInCurrentImage$filt$0 000000018005bff4     LIBCMT:pesect.obj
 0002:0000bff4       $unwind$?fin$0@?0??dllmain_crt_process_attach@@YAHQEAUHINSTANCE__@@QEAX@Z@4HA 000000018005bff4     LIBCMT:dll_dllmain.obj
 0002:0000bff4       $unwind$?fin$0@?0???$?RV<lambda_1d892b297fdedeee07ed8124eeb2f2fa>@@AEAV<lambda_ffc046909424fd52df0ac47e64813305>@@V<lambda_01a7098693036236037e7cdb9bca3d73>@@@?$__crt_seh_guarded_call@X@@QEAAX$$QEAV<lambda_1d892b297fdedeee07ed8124eeb2f2fa>@@AEAV<lambda_ffc046909424fd52df0ac47e64813305>@@$$QEAV<lambda_01a7098693036236037e7cdb9bca3d73>@@@Z@4HA 000000018005bff4     libucrt:wsetlocale.obj
 0002:0000bff4       $unwind$__acrt_initialize_lowio$fin$0 000000018005bff4     libucrt:ioinit.obj
 0002:0000bff4       $unwind$?fin$0@?0???$?RV<lambda_842d9ff0dc9ef11c61343bbaebe7f885>@@AEAV<lambda_c5860995281e5c4ce005b3de8f5874ee>@@V<lambda_d90129c13df834fdcbf8d2b88dafcf2d>@@@?$__crt_seh_guarded_call@X@@QEAAX$$QEAV<lambda_842d9ff0dc9ef11c61343bbaebe7f885>@@AEAV<lambda_c5860995281e5c4ce005b3de8f5874ee>@@$$QEAV<lambda_d90129c13df834fdcbf8d2b88dafcf2d>@@@Z@4HA 000000018005bff4     libucrt:fflush.obj
 0002:0000bff4       $unwind$?fin$0@?0???$?RV<lambda_2d41944a1d46af3157314b8a01080d33>@@AEAV<lambda_8f455de75cd7d7f24b4096f044d8b9e6>@@V<lambda_aa500f224e6afead328df44964fe2772>@@@?$__crt_seh_guarded_call@X@@QEAAX$$QEAV<lambda_2d41944a1d46af3157314b8a01080d33>@@AEAV<lambda_8f455de75cd7d7f24b4096f044d8b9e6>@@$$QEAV<lambda_aa500f224e6afead328df44964fe2772>@@@Z@4HA 000000018005bff4     libucrt:per_thread_data.obj
 0002:0000bff4       $unwind$?fin$0@?0???$?RV<lambda_9bd929c17696992ce54f1d748594fc62>@@AEAV<lambda_082c17da81b0962e08c0587ee0fac50c>@@V<lambda_9c08ac857f4975304d44e9f601d9b878>@@@?$__crt_seh_guarded_call@PEAD@@QEAAPEAD$$QEAV<lambda_9bd929c17696992ce54f1d748594fc62>@@AEAV<lambda_082c17da81b0962e08c0587ee0fac50c>@@$$QEAV<lambda_9c08ac857f4975304d44e9f601d9b878>@@@Z@4HA 000000018005bff4     libucrt:setlocale.obj
 0002:0000bff4       $unwind$?fin$0@?0???$?RV<lambda_aa87e3671a710a21b5dc78c0bdf72e11>@@AEAV<lambda_92619d2358a28f41a33ba319515a20b9>@@V<lambda_6992ecaafeb10aed2b74cb1fae11a551>@@@?$__crt_seh_guarded_call@X@@QEAAX$$QEAV<lambda_aa87e3671a710a21b5dc78c0bdf72e11>@@AEAV<lambda_92619d2358a28f41a33ba319515a20b9>@@$$QEAV<lambda_6992ecaafeb10aed2b74cb1fae11a551>@@@Z@4HA 000000018005bff4     libucrt:per_thread_data.obj
 0002:0000bff4       $unwind$?fin$0@?0???$?RV<lambda_886d6c58226a84441f68b9f2b8217b83>@@AEAV<lambda_ab61a845afdef5b7c387490eaf3616ee>@@V<lambda_f7f22ab5edc0698d5f6905b0d3f44752>@@@?$__crt_seh_guarded_call@X@@QEAAX$$QEAV<lambda_886d6c58226a84441f68b9f2b8217b83>@@AEAV<lambda_ab61a845afdef5b7c387490eaf3616ee>@@$$QEAV<lambda_f7f22ab5edc0698d5f6905b0d3f44752>@@@Z@4HA 000000018005bff4     libucrt:fflush.obj
 0002:0000bff4       $unwind$?fin$0@?0???$?RV<lambda_410d79af7f07d98d83a3f525b3859a53>@@AEAV<lambda_3e16ef9562a7dcce91392c22ab16ea36>@@V<lambda_38119f0e861e05405d8a144b9b982f0a>@@@?$__crt_seh_guarded_call@X@@QEAAX$$QEAV<lambda_410d79af7f07d98d83a3f525b3859a53>@@AEAV<lambda_3e16ef9562a7dcce91392c22ab16ea36>@@$$QEAV<lambda_38119f0e861e05405d8a144b9b982f0a>@@@Z@4HA 000000018005bff4     libucrt:wsetlocale.obj
 0002:0000bff4       $unwind$?fin$0@?0???$?RV<lambda_84ec643ea9557e2f7dc01bb0e9624395>@@AEAV<lambda_ca71763b3c0644891230e4f79ea54fa6>@@V<lambda_439a761618c59b0600e24586724d733b>@@@?$__crt_seh_guarded_call@H@@QEAAH$$QEAV<lambda_84ec643ea9557e2f7dc01bb0e9624395>@@AEAV<lambda_ca71763b3c0644891230e4f79ea54fa6>@@$$QEAV<lambda_439a761618c59b0600e24586724d733b>@@@Z@4HA 000000018005bff4     libucrt:setvbuf.obj
 0002:0000bff4       $unwind$_query_new_handler$fin$0 000000018005bff4     libucrt:new_handler.obj
 0002:0000bff4       $unwind$_ctrlfp$filt$0     000000018005bff4     libucrt:fpctrl.obj
 0002:0000bff4       $unwind$_fcloseall$fin$0   000000018005bff4     libucrt:closeall.obj
 0002:0000bff4       $unwind$?fin$0@?0???$common_getenv@D@@YAPEADQEBD@Z@4HA 000000018005bff4     libucrt:getenv.obj
 0002:0000bff4       $unwind$?fin$0@?0???$?RV<lambda_efdfa57d1f175319df784efa44bb7b81>@@AEAV<lambda_5f0a4c1567f8adc6734073e5d1e1b35c>@@V<lambda_2e8a7d3640ea6ccb4c2413664c2db6fd>@@@?$__crt_seh_guarded_call@X@@QEAAX$$QEAV<lambda_efdfa57d1f175319df784efa44bb7b81>@@AEAV<lambda_5f0a4c1567f8adc6734073e5d1e1b35c>@@$$QEAV<lambda_2e8a7d3640ea6ccb4c2413664c2db6fd>@@@Z@4HA 000000018005bff4     libucrt:mbctype.obj
 0002:0000bff4       $unwind$_write$fin$0       000000018005bff4     libucrt:write.obj
 0002:0000bffc       $chain$1$?remove@Hunspell@@QEAAHPEBD@Z 000000018005bffc     hunspell:hunspell.obj
 0002:0000c014       $chain$2$?remove@Hunspell@@QEAAHPEBD@Z 000000018005c014     hunspell:hunspell.obj
 0002:0000c028       $chain$3$?remove@Hunspell@@QEAAHPEBD@Z 000000018005c028     hunspell:hunspell.obj
 0002:0000c038       $chain$4$?remove@Hunspell@@QEAAHPEBD@Z 000000018005c038     hunspell:hunspell.obj
 0002:0000c048       $unwind$?analyze@Hunspell@@QEAAHPEAPEAPEADPEBD@Z 000000018005c048     hunspell:hunspell.obj
 0002:0000c06c       $unwind$?generate@Hunspell@@QEAAHPEAPEAPEADPEBDPEAPEADH@Z 000000018005c06c     hunspell:hunspell.obj
 0002:0000c08c       $unwind$?cpdcase_check@AffixMgr@@QEAAHPEBDH@Z 000000018005c08c     hunspell:affixmgr.obj
 0002:0000c08c       $unwind$?get_xml_par@Hunspell@@AEAAHPEADPEBDH@Z 000000018005c08c     hunspell:hunspell.obj
 0002:0000c08c       $unwind$iswctype           000000018005c08c     libucrt:iswctype.obj
 0002:0000c098       $chain$0$?get_xml_par@Hunspell@@AEAAHPEADPEBDH@Z 000000018005c098     hunspell:hunspell.obj
 0002:0000c0ac       $chain$1$?get_xml_par@Hunspell@@AEAAHPEADPEBDH@Z 000000018005c0ac     hunspell:hunspell.obj
 0002:0000c0bc       $unwind$?check_xml_par@Hunspell@@AEAAHPEBD00@Z 000000018005c0bc     hunspell:hunspell.obj
 0002:0000c0d8       $unwind$?spellml@Hunspell@@AEAAHPEAPEAPEADPEBD@Z 000000018005c0d8     hunspell:hunspell.obj
 0002:0000c0f8       $chain$0$?spellml@Hunspell@@AEAAHPEAPEAPEADPEBD@Z 000000018005c0f8     hunspell:hunspell.obj
 0002:0000c10c       $chain$1$?spellml@Hunspell@@AEAAHPEAPEAPEADPEBD@Z 000000018005c10c     hunspell:hunspell.obj
 0002:0000c11c       $unwind$??$type_case_integer_parse_into_buffer@I@?$output_processor@_WV?$stream_output_adapter@_W@__crt_stdio_output@@V?$standard_base@_WV?$stream_output_adapter@_W@__crt_stdio_output@@@2@@__crt_stdio_output@@AEAAXII_N@Z 000000018005c11c     libucrt:output.obj
 0002:0000c11c       $unwind$?flag_bsearch@@YAHQEAGGH@Z 000000018005c11c     hunspell:csutil.obj
 0002:0000c11c       $unwind$??$type_case_integer_parse_into_buffer@_K@?$output_processor@DV?$stream_output_adapter@D@__crt_stdio_output@@V?$standard_base@DV?$stream_output_adapter@D@__crt_stdio_output@@@2@@__crt_stdio_output@@AEAAX_KI_N@Z 000000018005c11c     libucrt:output.obj
 0002:0000c11c       $unwind$??$type_case_integer_parse_into_buffer@_K@?$output_processor@DV?$string_output_adapter@D@__crt_stdio_output@@V?$standard_base@DV?$string_output_adapter@D@__crt_stdio_output@@@2@@__crt_stdio_output@@AEAAX_KI_N@Z 000000018005c11c     libucrt:output.obj
 0002:0000c11c       $unwind$?u16_u8@@YAPEADPEADHPEBUw_char@@H@Z 000000018005c11c     hunspell:csutil.obj
 0002:0000c11c       $unwind$__ascii_strnicmp   000000018005c11c     libucrt:strnicmp.obj
 0002:0000c11c       $unwind$??$type_case_integer_parse_into_buffer@I@?$output_processor@DV?$string_output_adapter@D@__crt_stdio_output@@V?$standard_base@DV?$string_output_adapter@D@__crt_stdio_output@@@2@@__crt_stdio_output@@AEAAXII_N@Z 000000018005c11c     libucrt:output.obj
 0002:0000c11c       $unwind$??$type_case_integer_parse_into_buffer@_K@?$output_processor@_WV?$stream_output_adapter@_W@__crt_stdio_output@@V?$standard_base@_WV?$stream_output_adapter@_W@__crt_stdio_output@@@2@@__crt_stdio_output@@AEAAX_KI_N@Z 000000018005c11c     libucrt:output.obj
 0002:0000c11c       $unwind$??$type_case_integer_parse_into_buffer@I@?$output_processor@DV?$stream_output_adapter@D@__crt_stdio_output@@V?$standard_base@DV?$stream_output_adapter@D@__crt_stdio_output@@@2@@__crt_stdio_output@@AEAAXII_N@Z 000000018005c11c     libucrt:output.obj
 0002:0000c11c       $unwind$??$type_case_integer_parse_into_buffer@I@?$output_processor@_WV?$string_output_adapter@_W@__crt_stdio_output@@V?$standard_base@_WV?$string_output_adapter@_W@__crt_stdio_output@@@2@@__crt_stdio_output@@AEAAXII_N@Z 000000018005c11c     libucrt:output.obj
 0002:0000c11c       $unwind$??$type_case_integer_parse_into_buffer@_K@?$output_processor@_WV?$string_output_adapter@_W@__crt_stdio_output@@V?$standard_base@_WV?$string_output_adapter@_W@__crt_stdio_output@@@2@@__crt_stdio_output@@AEAAX_KI_N@Z 000000018005c11c     libucrt:output.obj
 0002:0000c124       $unwind$?flag_qsort@@YAXQEAGHH@Z 000000018005c124     hunspell:csutil.obj
 0002:0000c130       $chain$2$?flag_qsort@@YAXQEAGHH@Z 000000018005c130     hunspell:csutil.obj
 0002:0000c14c       $chain$3$?flag_qsort@@YAXQEAGHH@Z 000000018005c14c     hunspell:csutil.obj
 0002:0000c15c       $unwind$?myrevstrdup@@YAPEADPEBD@Z 000000018005c15c     hunspell:csutil.obj
 0002:0000c15c       $unwind$?mystrdup@@YAPEADPEBD@Z 000000018005c15c     hunspell:csutil.obj
 0002:0000c164       $chain$1$?mystrdup@@YAPEADPEBD@Z 000000018005c164     hunspell:csutil.obj
 0002:0000c17c       $chain$3$?mystrdup@@YAPEADPEBD@Z 000000018005c17c     hunspell:csutil.obj
 0002:0000c194       $chain$4$?mystrdup@@YAPEADPEBD@Z 000000018005c194     hunspell:csutil.obj
 0002:0000c1a4       $chain$1$?myrevstrdup@@YAPEADPEBD@Z 000000018005c1a4     hunspell:csutil.obj
 0002:0000c1bc       $chain$3$?myrevstrdup@@YAPEADPEBD@Z 000000018005c1bc     hunspell:csutil.obj
 0002:0000c1d4       $chain$4$?myrevstrdup@@YAPEADPEBD@Z 000000018005c1d4     hunspell:csutil.obj
 0002:0000c1e4       $unwind$?line_tok@@YAHPEBDPEAPEAPEADD@Z 000000018005c1e4     hunspell:csutil.obj
 0002:0000c204       $unwind$?line_uniq_app@@YAPEADPEAPEADD@Z 000000018005c204     hunspell:csutil.obj
 0002:0000c21c       $chain$6$?line_uniq_app@@YAPEADPEAPEADD@Z 000000018005c21c     hunspell:csutil.obj
 0002:0000c238       $chain$7$?line_uniq_app@@YAPEADPEAPEADD@Z 000000018005c238     hunspell:csutil.obj
 0002:0000c250       $unwind$?parse_phonetable@AffixMgr@@AEAAHPEADPEAVFileMgr@@@Z 000000018005c250     hunspell:affixmgr.obj
 0002:0000c250       $unwind$?try_get_function@@YAPEAXW4function_id@?A0x14c33c87@@QEBDQEBW4module_id@2@2@Z 000000018005c250     libvcruntime:winapi_downlevel.obj
 0002:0000c250       $unwind$?parse_reptable@AffixMgr@@AEAAHPEADPEAVFileMgr@@@Z 000000018005c250     hunspell:affixmgr.obj
 0002:0000c250       $unwind$?IsInExceptionSpec@@YAEPEAUEHExceptionRecord@@PEBU_s_ESTypeList@@@Z 000000018005c250     libvcruntime:frame.obj
 0002:0000c250       $unwind$?try_get_function@@YAPEAXW4function_id@?A0x391cf84c@@QEBDQEBW4module_id@2@2@Z 000000018005c250     libucrt:winapi_thunks.obj
 0002:0000c250       $unwind$?morphcmp@@YAHPEBD0@Z 000000018005c250     hunspell:csutil.obj
 0002:0000c26c       $chain$0$?get_sfxcount@@YAHPEBD@Z 000000018005c26c     hunspell:csutil.obj
 0002:0000c280       $chain$1$?get_sfxcount@@YAHPEBD@Z 000000018005c280     hunspell:csutil.obj
 0002:0000c290       $unwind$?reverseword_utf@@YAHPEAD@Z 000000018005c290     hunspell:csutil.obj
 0002:0000c2a4       $unwind$?uniqlist@@YAHPEAPEADH@Z 000000018005c2a4     hunspell:csutil.obj
 0002:0000c2b0       $chain$0$?uniqlist@@YAHPEAPEADH@Z 000000018005c2b0     hunspell:csutil.obj
 0002:0000c2c4       $chain$3$?uniqlist@@YAHPEAPEADH@Z 000000018005c2c4     hunspell:csutil.obj
 0002:0000c2e0       $chain$4$?uniqlist@@YAHPEAPEADH@Z 000000018005c2e0     hunspell:csutil.obj
 0002:0000c2f0       $chain$5$?uniqlist@@YAHPEAPEADH@Z 000000018005c2f0     hunspell:csutil.obj
 0002:0000c300       $unwind$?mkallcap_utf@@YAXPEAUw_char@@HH@Z 000000018005c300     hunspell:csutil.obj
 0002:0000c300       $unwind$?mkallsmall_utf@@YAXPEAUw_char@@HH@Z 000000018005c300     hunspell:csutil.obj
 0002:0000c30c       $chain$2$?mkallsmall_utf@@YAXPEAUw_char@@HH@Z 000000018005c30c     hunspell:csutil.obj
 0002:0000c328       $chain$3$?mkallsmall_utf@@YAXPEAUw_char@@HH@Z 000000018005c328     hunspell:csutil.obj
 0002:0000c338       $chain$2$?mkallcap_utf@@YAXPEAUw_char@@HH@Z 000000018005c338     hunspell:csutil.obj
 0002:0000c354       $chain$3$?mkallcap_utf@@YAXPEAUw_char@@HH@Z 000000018005c354     hunspell:csutil.obj
 0002:0000c364       $unwind$?get_captype@@YAHPEADHPEAUcs_info@@@Z 000000018005c364     hunspell:csutil.obj
 0002:0000c370       $unwind$?get_captype_utf8@@YAHPEAUw_char@@HH@Z 000000018005c370     hunspell:csutil.obj
 0002:0000c384       $chain$1$?get_captype_utf8@@YAHPEAUw_char@@HH@Z 000000018005c384     hunspell:csutil.obj
 0002:0000c39c       $chain$4$?get_captype_utf8@@YAHPEAUw_char@@HH@Z 000000018005c39c     hunspell:csutil.obj
 0002:0000c39c       $chain$2$?get_captype_utf8@@YAHPEAUw_char@@HH@Z 000000018005c39c     hunspell:csutil.obj
 0002:0000c3ac       $chain$3$?get_captype_utf8@@YAHPEAUw_char@@HH@Z 000000018005c3ac     hunspell:csutil.obj
 0002:0000c3c4       $unwind$?remove_ignored_chars_utf@@YAXPEADQEAGH@Z 000000018005c3c4     hunspell:csutil.obj
 0002:0000c3e4       $chain$0$?remove_ignored_chars_utf@@YAXPEADQEAGH@Z 000000018005c3e4     hunspell:csutil.obj
 0002:0000c3f8       $chain$1$?remove_ignored_chars_utf@@YAXPEADQEAGH@Z 000000018005c3f8     hunspell:csutil.obj
 0002:0000c408       $unwind$_wcstombs_s_l      000000018005c408     libucrt:wcstombs.obj
 0002:0000c408       $unwind$__std_exception_copy 000000018005c408     libvcruntime:std_exception.obj
 0002:0000c408       $unwind$__acrt_stdio_refill_and_read_narrow_nolock 000000018005c408     libucrt:_filbuf.obj
 0002:0000c408       $unwind$?parse_string@@YAHPEADPEAPEADH@Z 000000018005c408     hunspell:csutil.obj
 0002:0000c408       $unwind$_free_osfhnd       000000018005c408     libucrt:osfinfo.obj
 0002:0000c41c       $unwind$?parse_array@@YAHPEADPEAPEADPEAPEAGPEAHHH@Z 000000018005c41c     hunspell:csutil.obj
 0002:0000c434       $unwind$??1HashMgr@@QEAA@XZ 000000018005c434     hunspell:hashmgr.obj
 0002:0000c43c       $chain$3$??1HashMgr@@QEAA@XZ 000000018005c43c     hunspell:hashmgr.obj
 0002:0000c45c       $chain$4$??1HashMgr@@QEAA@XZ 000000018005c45c     hunspell:hashmgr.obj
 0002:0000c470       $chain$6$??1HashMgr@@QEAA@XZ 000000018005c470     hunspell:hashmgr.obj
 0002:0000c488       $chain$7$??1HashMgr@@QEAA@XZ 000000018005c488     hunspell:hashmgr.obj
 0002:0000c498       $chain$8$??1HashMgr@@QEAA@XZ 000000018005c498     hunspell:hashmgr.obj
 0002:0000c4a8       $chain$9$??1HashMgr@@QEAA@XZ 000000018005c4a8     hunspell:hashmgr.obj
 0002:0000c4c0       $chain$10$??1HashMgr@@QEAA@XZ 000000018005c4c0     hunspell:hashmgr.obj
 0002:0000c4d4       $chain$11$??1HashMgr@@QEAA@XZ 000000018005c4d4     hunspell:hashmgr.obj
 0002:0000c4e4       $unwind$?add_word@HashMgr@@AEAAHPEBDHHPEAGH0_N@Z 000000018005c4e4     hunspell:hashmgr.obj
 0002:0000c4fc       $unwind$?add_hidden_capitalized_word@HashMgr@@AEAAHPEADHHPEAGH0H@Z 000000018005c4fc     hunspell:hashmgr.obj
 0002:0000c518       $chain$1$?add_hidden_capitalized_word@HashMgr@@AEAAHPEADHHPEAGH0H@Z 000000018005c518     hunspell:hashmgr.obj
 0002:0000c530       $chain$2$?add_hidden_capitalized_word@HashMgr@@AEAAHPEADHHPEAGH0H@Z 000000018005c530     hunspell:hashmgr.obj
 0002:0000c540       $unwind$?get_clen_and_captype@HashMgr@@AEAAHPEBDHPEAH@Z 000000018005c540     hunspell:hashmgr.obj
 0002:0000c558       $unwind$?load_tables@HashMgr@@AEAAHPEBD0@Z 000000018005c558     hunspell:hashmgr.obj
 0002:0000c564       $chain$4$?load_tables@HashMgr@@AEAAHPEBD0@Z 000000018005c564     hunspell:hashmgr.obj
 0002:0000c588       $unwind$?decode_flags@HashMgr@@QEAAHPEAPEAGPEADPEAVFileMgr@@@Z 000000018005c588     hunspell:hashmgr.obj
 0002:0000c59c       $chain$2$?decode_flags@HashMgr@@QEAAHPEAPEAGPEADPEAVFileMgr@@@Z 000000018005c59c     hunspell:hashmgr.obj
 0002:0000c5b8       $chain$3$?decode_flags@HashMgr@@QEAAHPEAPEAGPEADPEAVFileMgr@@@Z 000000018005c5b8     hunspell:hashmgr.obj
 0002:0000c5c8       $unwind$?encode_flag@HashMgr@@QEAAPEADG@Z 000000018005c5c8     hunspell:hashmgr.obj
 0002:0000c5dc       $unwind$?load_config@HashMgr@@AEAAHPEBD0@Z 000000018005c5dc     hunspell:hashmgr.obj
 0002:0000c5fc       $unwind$?parse_aliasf@HashMgr@@AEAAHPEADPEAVFileMgr@@@Z 000000018005c5fc     hunspell:hashmgr.obj
 0002:0000c608       $chain$3$?parse_aliasf@HashMgr@@AEAAHPEADPEAVFileMgr@@@Z 000000018005c608     hunspell:hashmgr.obj
 0002:0000c628       $chain$5$?parse_aliasf@HashMgr@@AEAAHPEADPEAVFileMgr@@@Z 000000018005c628     hunspell:hashmgr.obj
 0002:0000c640       $chain$6$?parse_aliasf@HashMgr@@AEAAHPEADPEAVFileMgr@@@Z 000000018005c640     hunspell:hashmgr.obj
 0002:0000c650       $chain$8$?parse_aliasf@HashMgr@@AEAAHPEADPEAVFileMgr@@@Z 000000018005c650     hunspell:hashmgr.obj
 0002:0000c678       $unwind$?parse_aliasm@HashMgr@@AEAAHPEADPEAVFileMgr@@@Z 000000018005c678     hunspell:hashmgr.obj
 0002:0000c68c       $chain$1$?parse_aliasm@HashMgr@@AEAAHPEADPEAVFileMgr@@@Z 000000018005c68c     hunspell:hashmgr.obj
 0002:0000c6a4       $chain$3$?parse_aliasm@HashMgr@@AEAAHPEADPEAVFileMgr@@@Z 000000018005c6a4     hunspell:hashmgr.obj
 0002:0000c6bc       $unwind$?conv@RepList@@QEAAHPEBDPEAD@Z 000000018005c6bc     hunspell:replist.obj
 0002:0000c6d0       $chain$1$?conv@RepList@@QEAAHPEBDPEAD@Z 000000018005c6d0     hunspell:replist.obj
 0002:0000c6e8       $chain$2$?conv@RepList@@QEAAHPEBDPEAD@Z 000000018005c6e8     hunspell:replist.obj
 0002:0000c6f8       $unwind$??0SuggestMgr@@QEAA@PEBDHPEAVAffixMgr@@@Z 000000018005c6f8     hunspell:suggestmgr.obj
 0002:0000c710       $chain$0$??0SuggestMgr@@QEAA@PEBDHPEAVAffixMgr@@@Z 000000018005c710     hunspell:suggestmgr.obj
 0002:0000c724       $chain$1$??0SuggestMgr@@QEAA@PEBDHPEAVAffixMgr@@@Z 000000018005c724     hunspell:suggestmgr.obj
 0002:0000c738       $chain$2$??0SuggestMgr@@QEAA@PEBDHPEAVAffixMgr@@@Z 000000018005c738     hunspell:suggestmgr.obj
 0002:0000c748       $chain$3$??0SuggestMgr@@QEAA@PEBDHPEAVAffixMgr@@@Z 000000018005c748     hunspell:suggestmgr.obj
 0002:0000c758       $unwind$?testsug@SuggestMgr@@AEAAHPEAPEADPEBDHHHPEAHPEAJ@Z 000000018005c758     hunspell:suggestmgr.obj
 0002:0000c768       $chain$1$?testsug@SuggestMgr@@AEAAHPEAPEADPEBDHHHPEAHPEAJ@Z 000000018005c768     hunspell:suggestmgr.obj
 0002:0000c780       $chain$2$?testsug@SuggestMgr@@AEAAHPEAPEADPEBDHHHPEAHPEAJ@Z 000000018005c780     hunspell:suggestmgr.obj
 0002:0000c790       $unwind$?suggest@SuggestMgr@@QEAAHPEAPEAPEADPEBDHPEAH@Z 000000018005c790     hunspell:suggestmgr.obj
 0002:0000c7b0       $unwind$?map_related@SuggestMgr@@AEAAHPEBDPEADHHPEAPEADHHPEBUmapentry@@HPEAHPEAJ@Z 000000018005c7b0     hunspell:suggestmgr.obj
 0002:0000c7c4       $chain$1$?map_related@SuggestMgr@@AEAAHPEBDPEADHHPEAPEADHHPEBUmapentry@@HPEAHPEAJ@Z 000000018005c7c4     hunspell:suggestmgr.obj
 0002:0000c7dc       $chain$3$?map_related@SuggestMgr@@AEAAHPEBDPEADHHPEAPEADHHPEBUmapentry@@HPEAHPEAJ@Z 000000018005c7dc     hunspell:suggestmgr.obj
 0002:0000c7f4       $unwind$?replchars@SuggestMgr@@AEAAHPEAPEADPEBDHH@Z 000000018005c7f4     hunspell:suggestmgr.obj
 0002:0000c80c       $chain$3$?replchars@SuggestMgr@@AEAAHPEAPEADPEBDHH@Z 000000018005c80c     hunspell:suggestmgr.obj
 0002:0000c82c       $chain$6$?replchars@SuggestMgr@@AEAAHPEAPEADPEBDHH@Z 000000018005c82c     hunspell:suggestmgr.obj
 0002:0000c82c       $chain$4$?replchars@SuggestMgr@@AEAAHPEAPEADPEBDHH@Z 000000018005c82c     hunspell:suggestmgr.obj
 0002:0000c83c       $chain$5$?replchars@SuggestMgr@@AEAAHPEAPEADPEBDHH@Z 000000018005c83c     hunspell:suggestmgr.obj
 0002:0000c85c       $unwind$?doubletwochars@SuggestMgr@@AEAAHPEAPEADPEBDHH@Z 000000018005c85c     hunspell:suggestmgr.obj
 0002:0000c878       $chain$2$?doubletwochars@SuggestMgr@@AEAAHPEAPEADPEBDHH@Z 000000018005c878     hunspell:suggestmgr.obj
 0002:0000c894       $chain$5$?doubletwochars@SuggestMgr@@AEAAHPEAPEADPEBDHH@Z 000000018005c894     hunspell:suggestmgr.obj
 0002:0000c894       $chain$3$?doubletwochars@SuggestMgr@@AEAAHPEAPEADPEBDHH@Z 000000018005c894     hunspell:suggestmgr.obj
 0002:0000c8a4       $chain$4$?doubletwochars@SuggestMgr@@AEAAHPEAPEADPEBDHH@Z 000000018005c8a4     hunspell:suggestmgr.obj
 0002:0000c8c0       $unwind$?doubletwochars_utf@SuggestMgr@@AEAAHPEAPEADPEBUw_char@@HHH@Z 000000018005c8c0     hunspell:suggestmgr.obj
 0002:0000c8d8       $chain$4$?doubletwochars_utf@SuggestMgr@@AEAAHPEAPEADPEBUw_char@@HHH@Z 000000018005c8d8     hunspell:suggestmgr.obj
 0002:0000c8fc       $chain$5$?doubletwochars_utf@SuggestMgr@@AEAAHPEAPEADPEBUw_char@@HHH@Z 000000018005c8fc     hunspell:suggestmgr.obj
 0002:0000c8fc       $chain$7$?doubletwochars_utf@SuggestMgr@@AEAAHPEAPEADPEBUw_char@@HHH@Z 000000018005c8fc     hunspell:suggestmgr.obj
 0002:0000c90c       $chain$6$?doubletwochars_utf@SuggestMgr@@AEAAHPEAPEADPEBUw_char@@HHH@Z 000000018005c90c     hunspell:suggestmgr.obj
 0002:0000c930       $unwind$?badcharkey@SuggestMgr@@AEAAHPEAPEADPEBDHH@Z 000000018005c930     hunspell:suggestmgr.obj
 0002:0000c958       $unwind$?movechar_utf@SuggestMgr@@AEAAHPEAPEADPEBUw_char@@HHH@Z 000000018005c958     hunspell:suggestmgr.obj
 0002:0000c958       $unwind$?swapchar_utf@SuggestMgr@@AEAAHPEAPEADPEBUw_char@@HHH@Z 000000018005c958     hunspell:suggestmgr.obj
 0002:0000c958       $unwind$?badcharkey_utf@SuggestMgr@@AEAAHPEAPEADPEBUw_char@@HHH@Z 000000018005c958     hunspell:suggestmgr.obj
 0002:0000c978       $unwind$?badchar@SuggestMgr@@AEAAHPEAPEADPEBDHH@Z 000000018005c978     hunspell:suggestmgr.obj
 0002:0000c9a0       $unwind$?longswapchar_utf@SuggestMgr@@AEAAHPEAPEADPEBUw_char@@HHH@Z 000000018005c9a0     hunspell:suggestmgr.obj
 0002:0000c9a0       $unwind$?badchar_utf@SuggestMgr@@AEAAHPEAPEADPEBUw_char@@HHH@Z 000000018005c9a0     hunspell:suggestmgr.obj
 0002:0000c9c0       $unwind$?extrachar_utf@SuggestMgr@@AEAAHPEAPEADPEBUw_char@@HHH@Z 000000018005c9c0     hunspell:suggestmgr.obj
 0002:0000c9d8       $chain$3$?extrachar_utf@SuggestMgr@@AEAAHPEAPEADPEBUw_char@@HHH@Z 000000018005c9d8     hunspell:suggestmgr.obj
 0002:0000c9f8       $chain$4$?extrachar_utf@SuggestMgr@@AEAAHPEAPEADPEBUw_char@@HHH@Z 000000018005c9f8     hunspell:suggestmgr.obj
 0002:0000ca08       $unwind$?forgotchar@SuggestMgr@@AEAAHPEAPEADPEBDHH@Z 000000018005ca08     hunspell:suggestmgr.obj
 0002:0000ca2c       $unwind$?forgotchar_utf@SuggestMgr@@AEAAHPEAPEADPEBUw_char@@HHH@Z 000000018005ca2c     hunspell:suggestmgr.obj
 0002:0000ca4c       $unwind$?twowords@SuggestMgr@@AEAAHPEAPEADPEBDHH@Z 000000018005ca4c     hunspell:suggestmgr.obj
 0002:0000ca64       $chain$3$?twowords@SuggestMgr@@AEAAHPEAPEADPEBDHH@Z 000000018005ca64     hunspell:suggestmgr.obj
 0002:0000ca84       $chain$4$?twowords@SuggestMgr@@AEAAHPEAPEADPEBDHH@Z 000000018005ca84     hunspell:suggestmgr.obj
 0002:0000ca94       $chain$5$?twowords@SuggestMgr@@AEAAHPEAPEADPEBDHH@Z 000000018005ca94     hunspell:suggestmgr.obj
 0002:0000cab4       $unwind$?swapchar@SuggestMgr@@AEAAHPEAPEADPEBDHH@Z 000000018005cab4     hunspell:suggestmgr.obj
 0002:0000cad8       $unwind$?movechar@SuggestMgr@@AEAAHPEAPEADPEBDHH@Z 000000018005cad8     hunspell:suggestmgr.obj
 0002:0000cb00       $unwind$?ngsuggest@SuggestMgr@@QEAAHPEAPEADPEADHPEAPEAVHashMgr@@H@Z 000000018005cb00     hunspell:suggestmgr.obj
 0002:0000cb20       $chain$0$?ngsuggest@SuggestMgr@@QEAAHPEAPEADPEADHPEAPEAVHashMgr@@H@Z 000000018005cb20     hunspell:suggestmgr.obj
 0002:0000cb34       $chain$3$?ngsuggest@SuggestMgr@@QEAAHPEAPEADPEADHPEAPEAVHashMgr@@H@Z 000000018005cb34     hunspell:suggestmgr.obj
 0002:0000cb34       $chain$1$?ngsuggest@SuggestMgr@@QEAAHPEAPEADPEADHPEAPEAVHashMgr@@H@Z 000000018005cb34     hunspell:suggestmgr.obj
 0002:0000cb44       $chain$2$?ngsuggest@SuggestMgr@@QEAAHPEAPEADPEADHPEAPEAVHashMgr@@H@Z 000000018005cb44     hunspell:suggestmgr.obj
 0002:0000cb58       $unwind$?checkword@SuggestMgr@@AEAAHPEBDHHPEAHPEAJ@Z 000000018005cb58     hunspell:suggestmgr.obj
 0002:0000cb58       $unwind$?check_forbidden@SuggestMgr@@AEAAHPEBDH@Z 000000018005cb58     hunspell:suggestmgr.obj
 0002:0000cb74       $unwind$?suggest_morph@SuggestMgr@@QEAAPEADPEBD@Z 000000018005cb74     hunspell:suggestmgr.obj
 0002:0000cb8c       $chain$2$?suggest_morph@SuggestMgr@@QEAAPEADPEBD@Z 000000018005cb8c     hunspell:suggestmgr.obj
 0002:0000cba8       $chain$3$?suggest_morph@SuggestMgr@@QEAAPEADPEBD@Z 000000018005cba8     hunspell:suggestmgr.obj
 0002:0000cbbc       $chain$4$?suggest_morph@SuggestMgr@@QEAAPEADPEBD@Z 000000018005cbbc     hunspell:suggestmgr.obj
 0002:0000cbcc       $chain$5$?suggest_morph@SuggestMgr@@QEAAPEADPEBD@Z 000000018005cbcc     hunspell:suggestmgr.obj
 0002:0000cbdc       $unwind$?suggest_hentry_gen@SuggestMgr@@AEAAPEADPEAUhentry@@PEAD@Z 000000018005cbdc     hunspell:suggestmgr.obj
 0002:0000cbf4       $chain$0$?suggest_hentry_gen@SuggestMgr@@AEAAPEADPEAUhentry@@PEAD@Z 000000018005cbf4     hunspell:suggestmgr.obj
 0002:0000cc08       $chain$3$?suggest_hentry_gen@SuggestMgr@@AEAAPEADPEAUhentry@@PEAD@Z 000000018005cc08     hunspell:suggestmgr.obj
 0002:0000cc24       $chain$4$?suggest_hentry_gen@SuggestMgr@@AEAAPEADPEAUhentry@@PEAD@Z 000000018005cc24     hunspell:suggestmgr.obj
 0002:0000cc34       $chain$5$?suggest_hentry_gen@SuggestMgr@@AEAAPEADPEAUhentry@@PEAD@Z 000000018005cc34     hunspell:suggestmgr.obj
 0002:0000cc54       $unwind$?suggest_gen@SuggestMgr@@QEAAPEADPEAPEADHPEAD@Z 000000018005cc54     hunspell:suggestmgr.obj
 0002:0000cc68       $chain$5$?suggest_gen@SuggestMgr@@QEAAPEADPEAPEADHPEAD@Z 000000018005cc68     hunspell:suggestmgr.obj
 0002:0000cc90       $chain$6$?suggest_gen@SuggestMgr@@QEAAPEADPEAPEADHPEAD@Z 000000018005cc90     hunspell:suggestmgr.obj
 0002:0000cca0       $unwind$?ngram@SuggestMgr@@AEAAHHPEADPEBDH@Z 000000018005cca0     hunspell:suggestmgr.obj
 0002:0000ccc4       $unwind$?leftcommonsubstring@SuggestMgr@@AEAAHPEADPEBD@Z 000000018005ccc4     hunspell:suggestmgr.obj
 0002:0000cce0       $unwind$?commoncharacterpositions@SuggestMgr@@AEAAHPEADPEBDPEAH@Z 000000018005cce0     hunspell:suggestmgr.obj
 0002:0000cd04       $unwind$?lcs@SuggestMgr@@AEAAXPEBD0PEAH1PEAPEAD@Z 000000018005cd04     hunspell:suggestmgr.obj
 0002:0000cd24       $chain$0$?lcs@SuggestMgr@@AEAAXPEBD0PEAH1PEAPEAD@Z 000000018005cd24     hunspell:suggestmgr.obj
 0002:0000cd38       $chain$1$?lcs@SuggestMgr@@AEAAXPEBD0PEAH1PEAPEAD@Z 000000018005cd38     hunspell:suggestmgr.obj
 0002:0000cd48       $unwind$??_GRepList@@QEAAPEAXI@Z 000000018005cd48     hunspell:affixmgr.obj
 0002:0000cd54       $chain$0$??_GRepList@@QEAAPEAXI@Z 000000018005cd54     hunspell:affixmgr.obj
 0002:0000cd68       $chain$1$??_GRepList@@QEAAPEAXI@Z 000000018005cd68     hunspell:affixmgr.obj
 0002:0000cd78       $unwind$?parse_file@AffixMgr@@AEAAHPEBD0@Z 000000018005cd78     hunspell:affixmgr.obj
 0002:0000cd94       $chain$1$?parse_file@AffixMgr@@AEAAHPEBD0@Z 000000018005cd94     hunspell:affixmgr.obj
 0002:0000cdac       $chain$2$?parse_file@AffixMgr@@AEAAHPEBD0@Z 000000018005cdac     hunspell:affixmgr.obj
 0002:0000cdbc       $unwind$??$create_environment@D@@YAQEAPEADQEAD@Z 000000018005cdbc     libucrt:environment_initialization.obj
 0002:0000cdbc       $unwind$?prefix_check_twosfx@AffixMgr@@QEAAPEAUhentry@@PEBDHDG@Z 000000018005cdbc     hunspell:affixmgr.obj
 0002:0000cdbc       $unwind$?prefix_check@AffixMgr@@QEAAPEAUhentry@@PEBDHDG@Z 000000018005cdbc     hunspell:affixmgr.obj
 0002:0000cdbc       $unwind$__lc_wcstolc       000000018005cdbc     libucrt:wsetlocale.obj
 0002:0000cdd4       $unwind$?prefix_check_morph@AffixMgr@@QEAAPEADPEBDHDG@Z 000000018005cdd4     hunspell:affixmgr.obj
 0002:0000cde8       $chain$2$?prefix_check_morph@AffixMgr@@QEAAPEADPEBDHDG@Z 000000018005cde8     hunspell:affixmgr.obj
 0002:0000ce04       $chain$3$?prefix_check_morph@AffixMgr@@QEAAPEADPEBDHDG@Z 000000018005ce04     hunspell:affixmgr.obj
 0002:0000ce18       $chain$4$?prefix_check_morph@AffixMgr@@QEAAPEADPEBDHDG@Z 000000018005ce18     hunspell:affixmgr.obj
 0002:0000ce28       $chain$5$?prefix_check_morph@AffixMgr@@QEAAPEADPEBDHDG@Z 000000018005ce28     hunspell:affixmgr.obj
 0002:0000ce38       $unwind$?prefix_check_twosfx_morph@AffixMgr@@QEAAPEADPEBDHDG@Z 000000018005ce38     hunspell:affixmgr.obj
 0002:0000ce58       $unwind$?cpdrep_check@AffixMgr@@QEAAHPEBDH@Z 000000018005ce58     hunspell:affixmgr.obj
 0002:0000ce7c       $unwind$?parse_defcpdtable@AffixMgr@@AEAAHPEADPEAVFileMgr@@@Z 000000018005ce7c     hunspell:affixmgr.obj
 0002:0000ce7c       $unwind$?cpdpat_check@AffixMgr@@QEAAHPEBDHPEAUhentry@@1D@Z 000000018005ce7c     hunspell:affixmgr.obj
 0002:0000ce94       $unwind$?defcpd_check@AffixMgr@@QEAAHPEAPEAPEAUhentry@@FPEAU2@PEAPEAU2@D@Z 000000018005ce94     hunspell:affixmgr.obj
 0002:0000cec4       $unwind$?get_syllable@AffixMgr@@QEAAFPEBDH@Z 000000018005cec4     hunspell:affixmgr.obj
 0002:0000cedc       $chain$1$?get_syllable@AffixMgr@@QEAAFPEBDH@Z 000000018005cedc     hunspell:affixmgr.obj
 0002:0000cef4       $chain$2$?get_syllable@AffixMgr@@QEAAFPEBDH@Z 000000018005cef4     hunspell:affixmgr.obj
 0002:0000cf04       $unwind$?compound_check@AffixMgr@@QEAAPEAUhentry@@PEBDHFFFFPEAPEAU2@DDPEAH@Z 000000018005cf04     hunspell:affixmgr.obj
 0002:0000cf24       $unwind$?compound_check_morph@AffixMgr@@QEAAHPEBDHFFFFPEAPEAUhentry@@DPEAPEADPEAD@Z 000000018005cf24     hunspell:affixmgr.obj
 0002:0000cf3c       $chain$3$?compound_check_morph@AffixMgr@@QEAAHPEBDHFFFFPEAPEAUhentry@@DPEAPEADPEAD@Z 000000018005cf3c     hunspell:affixmgr.obj
 0002:0000cf5c       $chain$4$?compound_check_morph@AffixMgr@@QEAAHPEBDHFFFFPEAPEAUhentry@@DPEAPEADPEAD@Z 000000018005cf5c     hunspell:affixmgr.obj
 0002:0000cf6c       $chain$5$?compound_check_morph@AffixMgr@@QEAAHPEBDHFFFFPEAPEAUhentry@@DPEAPEADPEAD@Z 000000018005cf6c     hunspell:affixmgr.obj
 0002:0000cf8c       $unwind$?suffix_check@AffixMgr@@QEAAPEAUhentry@@PEBDHHPEAVPfxEntry@@PEAPEADHPEAHGGD@Z 000000018005cf8c     hunspell:affixmgr.obj
 0002:0000cfa4       $unwind$?suffix_check_twosfx@AffixMgr@@QEAAPEAUhentry@@PEBDHHPEAVPfxEntry@@G@Z 000000018005cfa4     hunspell:affixmgr.obj
 0002:0000cfbc       $chain$0$?suffix_check_twosfx@AffixMgr@@QEAAPEAUhentry@@PEBDHHPEAVPfxEntry@@G@Z 000000018005cfbc     hunspell:affixmgr.obj
 0002:0000cfd0       $chain$1$?suffix_check_twosfx@AffixMgr@@QEAAPEAUhentry@@PEBDHHPEAVPfxEntry@@G@Z 000000018005cfd0     hunspell:affixmgr.obj
 0002:0000cfe0       $chain$2$?suffix_check_twosfx@AffixMgr@@QEAAPEAUhentry@@PEBDHHPEAVPfxEntry@@G@Z 000000018005cfe0     hunspell:affixmgr.obj
 0002:0000cff4       $unwind$?suffix_check_twosfx_morph@AffixMgr@@QEAAPEADPEBDHHPEAVPfxEntry@@G@Z 000000018005cff4     hunspell:affixmgr.obj
 0002:0000d014       $unwind$?suffix_check_morph@AffixMgr@@QEAAPEADPEBDHHPEAVPfxEntry@@GGD@Z 000000018005d014     hunspell:affixmgr.obj
 0002:0000d034       $unwind$?affix_check@AffixMgr@@QEAAPEAUhentry@@PEBDHGD@Z 000000018005d034     hunspell:affixmgr.obj
 0002:0000d048       $chain$0$?affix_check@AffixMgr@@QEAAPEAUhentry@@PEBDHGD@Z 000000018005d048     hunspell:affixmgr.obj
 0002:0000d05c       $chain$1$?affix_check@AffixMgr@@QEAAPEAUhentry@@PEBDHGD@Z 000000018005d05c     hunspell:affixmgr.obj
 0002:0000d06c       $unwind$?affix_check_morph@AffixMgr@@QEAAPEADPEBDHGD@Z 000000018005d06c     hunspell:affixmgr.obj
 0002:0000d088       $unwind$?morphgen@AffixMgr@@QEAAPEADPEADHPEBGG00H@Z 000000018005d088     hunspell:affixmgr.obj
 0002:0000d0a8       $unwind$?expand_rootword@AffixMgr@@QEAAHPEAUguessword@@HPEBDHPEBGGPEADH3@Z 000000018005d0a8     hunspell:affixmgr.obj
 0002:0000d0c8       $chain$0$?expand_rootword@AffixMgr@@QEAAHPEAUguessword@@HPEBDHPEBGGPEADH3@Z 000000018005d0c8     hunspell:affixmgr.obj
 0002:0000d0dc       $chain$1$?expand_rootword@AffixMgr@@QEAAHPEAUguessword@@HPEBDHPEBGGPEADH3@Z 000000018005d0dc     hunspell:affixmgr.obj
 0002:0000d0dc       $chain$3$?expand_rootword@AffixMgr@@QEAAHPEAUguessword@@HPEBDHPEBGGPEADH3@Z 000000018005d0dc     hunspell:affixmgr.obj
 0002:0000d0ec       $chain$2$?expand_rootword@AffixMgr@@QEAAHPEAUguessword@@HPEBDHPEBGGPEADH3@Z 000000018005d0ec     hunspell:affixmgr.obj
 0002:0000d100       $unwind$?lookup@AffixMgr@@QEAAPEAUhentry@@PEBD@Z 000000018005d100     hunspell:affixmgr.obj
 0002:0000d10c       $chain$1$?lookup@AffixMgr@@QEAAPEAUhentry@@PEBD@Z 000000018005d10c     hunspell:affixmgr.obj
 0002:0000d124       $chain$2$?lookup@AffixMgr@@QEAAPEAUhentry@@PEBD@Z 000000018005d124     hunspell:affixmgr.obj
 0002:0000d134       $unwind$__acrt_lowio_destroy_handle_array 000000018005d134     libucrt:osfinfo.obj
 0002:0000d134       $unwind$?parse_flag@AffixMgr@@AEAAHPEADPEAGPEAVFileMgr@@@Z 000000018005d134     hunspell:affixmgr.obj
 0002:0000d144       $unwind$?parse_cpdsyllable@AffixMgr@@AEAAHPEADPEAVFileMgr@@@Z 000000018005d144     hunspell:affixmgr.obj
 0002:0000d164       $unwind$?parse_convtable@AffixMgr@@AEAAHPEADPEAVFileMgr@@PEAPEAVRepList@@PEBD@Z 000000018005d164     hunspell:affixmgr.obj
 0002:0000d180       $unwind$?parse_checkcpdtable@AffixMgr@@AEAAHPEADPEAVFileMgr@@@Z 000000018005d180     hunspell:affixmgr.obj
 0002:0000d19c       $unwind$?parse_maptable@AffixMgr@@AEAAHPEADPEAVFileMgr@@@Z 000000018005d19c     hunspell:affixmgr.obj
 0002:0000d1b4       $unwind$?parse_breaktable@AffixMgr@@AEAAHPEADPEAVFileMgr@@@Z 000000018005d1b4     hunspell:affixmgr.obj
 0002:0000d1b4       $unwind$?type_case_integer@?$output_processor@DV?$stream_output_adapter@D@__crt_stdio_output@@V?$standard_base@DV?$stream_output_adapter@D@__crt_stdio_output@@@2@@__crt_stdio_output@@AEAA_NI_N@Z 000000018005d1b4     libucrt:output.obj
 0002:0000d1b4       $unwind$?type_case_integer@?$output_processor@_WV?$string_output_adapter@_W@__crt_stdio_output@@V?$standard_base@_WV?$string_output_adapter@_W@__crt_stdio_output@@@2@@__crt_stdio_output@@AEAA_NI_N@Z 000000018005d1b4     libucrt:output.obj
 0002:0000d1b4       $unwind$TranslateName      000000018005d1b4     libucrt:getqloc_downlevel.obj
 0002:0000d1b4       $unwind$??R<lambda_f03950bc5685219e0bcd2087efbe011e>@@QEBAHXZ 000000018005d1b4     libucrt:onexit.obj
 0002:0000d1b4       $unwind$?type_case_integer@?$output_processor@_WV?$stream_output_adapter@_W@__crt_stdio_output@@V?$standard_base@_WV?$stream_output_adapter@_W@__crt_stdio_output@@@2@@__crt_stdio_output@@AEAA_NI_N@Z 000000018005d1b4     libucrt:output.obj
 0002:0000d1b4       $unwind$?type_case_integer@?$output_processor@DV?$string_output_adapter@D@__crt_stdio_output@@V?$standard_base@DV?$string_output_adapter@D@__crt_stdio_output@@@2@@__crt_stdio_output@@AEAA_NI_N@Z 000000018005d1b4     libucrt:output.obj
 0002:0000d1b4       $unwind$??$common_xtox@K_W@@YAHKQEA_W_KI_N@Z 000000018005d1b4     libucrt:xtoa.obj
 0002:0000d1cc       $unwind$?parse_affix@AffixMgr@@AEAAHPEADDPEAVFileMgr@@0@Z 000000018005d1cc     hunspell:affixmgr.obj
 0002:0000d1d8       $chain$5$?parse_affix@AffixMgr@@AEAAHPEADDPEAVFileMgr@@0@Z 000000018005d1d8     hunspell:affixmgr.obj
 0002:0000d200       $chain$6$?parse_affix@AffixMgr@@AEAAHPEADDPEAVFileMgr@@0@Z 000000018005d200     hunspell:affixmgr.obj
 0002:0000d210       $unwind$?redundant_condition@AffixMgr@@AEAAHDPEADHPEBDH@Z 000000018005d210     hunspell:affixmgr.obj
 0002:0000d22c       $unwind$?process@?$output_processor@_WV?$string_output_adapter@_W@__crt_stdio_output@@V?$standard_base@_WV?$string_output_adapter@_W@__crt_stdio_output@@@2@@__crt_stdio_output@@QEAAHXZ 000000018005d22c     libucrt:output.obj
 0002:0000d22c       $unwind$?parse_int_from_format_string@?$output_processor@DV?$string_output_adapter@D@__crt_stdio_output@@V?$standard_base@DV?$string_output_adapter@D@__crt_stdio_output@@@2@@__crt_stdio_output@@AEAA_NQEAH@Z 000000018005d22c     libucrt:output.obj
 0002:0000d22c       $unwind$?process@?$output_processor@_WV?$stream_output_adapter@_W@__crt_stdio_output@@V?$standard_base@_WV?$stream_output_adapter@_W@__crt_stdio_output@@@2@@__crt_stdio_output@@QEAAHXZ 000000018005d22c     libucrt:output.obj
 0002:0000d22c       $unwind$?parse_int_from_format_string@?$output_processor@DV?$stream_output_adapter@D@__crt_stdio_output@@V?$standard_base@DV?$stream_output_adapter@D@__crt_stdio_output@@@2@@__crt_stdio_output@@AEAA_NQEAH@Z 000000018005d22c     libucrt:output.obj
 0002:0000d22c       $unwind$??$_Resize@V<lambda_aeb35946f5f55f09599816a64846e305>@@@?$vector@Uaffentry@@V?$allocator@Uaffentry@@@std@@@std@@AEAAX_KV<lambda_aeb35946f5f55f09599816a64846e305>@@@Z 000000018005d22c     hunspell:affixmgr.obj
 0002:0000d240       $chain$0$??$_Resize@V<lambda_aeb35946f5f55f09599816a64846e305>@@@?$vector@Uaffentry@@V?$allocator@Uaffentry@@@std@@@std@@AEAAX_KV<lambda_aeb35946f5f55f09599816a64846e305>@@@Z 000000018005d240     hunspell:affixmgr.obj
 0002:0000d254       $chain$3$??$_Resize@V<lambda_aeb35946f5f55f09599816a64846e305>@@@?$vector@Uaffentry@@V?$allocator@Uaffentry@@@std@@@std@@AEAAX_KV<lambda_aeb35946f5f55f09599816a64846e305>@@@Z 000000018005d254     hunspell:affixmgr.obj
 0002:0000d254       $chain$1$??$_Resize@V<lambda_aeb35946f5f55f09599816a64846e305>@@@?$vector@Uaffentry@@V?$allocator@Uaffentry@@@std@@@std@@AEAAX_KV<lambda_aeb35946f5f55f09599816a64846e305>@@@Z 000000018005d254     hunspell:affixmgr.obj
 0002:0000d264       $chain$2$??$_Resize@V<lambda_aeb35946f5f55f09599816a64846e305>@@@?$vector@Uaffentry@@V?$allocator@Uaffentry@@@std@@@std@@AEAAX_KV<lambda_aeb35946f5f55f09599816a64846e305>@@@Z 000000018005d264     hunspell:affixmgr.obj
 0002:0000d278       $unwind$?fin$1@?0??CxxCallCatchBlock@__FrameHandler3@@SAPEAXPEAU_EXCEPTION_RECORD@@@Z@4HA 000000018005d278     libvcruntime:frame.obj
 0002:0000d278       $unwind$??0FileMgr@@QEAA@PEBD0@Z 000000018005d278     hunspell:filemgr.obj
 0002:0000d284       $chain$0$??0FileMgr@@QEAA@PEBD0@Z 000000018005d284     hunspell:filemgr.obj
 0002:0000d298       $chain$2$??0FileMgr@@QEAA@PEBD0@Z 000000018005d298     hunspell:filemgr.obj
 0002:0000d2b0       $chain$3$??0FileMgr@@QEAA@PEBD0@Z 000000018005d2b0     hunspell:filemgr.obj
 0002:0000d2c4       $chain$4$??0FileMgr@@QEAA@PEBD0@Z 000000018005d2c4     hunspell:filemgr.obj
 0002:0000d2d4       $chain$5$??0FileMgr@@QEAA@PEBD0@Z 000000018005d2d4     hunspell:filemgr.obj
 0002:0000d2e4       $chain$6$??0FileMgr@@QEAA@PEBD0@Z 000000018005d2e4     hunspell:filemgr.obj
 0002:0000d2f4       $unwind$?phonet@@YAHPEBDPEADHAEAUphonetable@@@Z 000000018005d2f4     hunspell:phonet.obj
 0002:0000d30c       $chain$2$?phonet@@YAHPEBDPEADHAEAUphonetable@@@Z 000000018005d30c     hunspell:phonet.obj
 0002:0000d328       $chain$4$?phonet@@YAHPEBDPEADHAEAUphonetable@@@Z 000000018005d328     hunspell:phonet.obj
 0002:0000d340       $chain$5$?phonet@@YAHPEBDPEADHAEAUphonetable@@@Z 000000018005d340     hunspell:phonet.obj
 0002:0000d350       $chain$6$?phonet@@YAHPEBDPEADHAEAUphonetable@@@Z 000000018005d350     hunspell:phonet.obj
 0002:0000d360       $chain$7$?phonet@@YAHPEBDPEADHAEAUphonetable@@@Z 000000018005d360     hunspell:phonet.obj
 0002:0000d384       $unwind$?add@PfxEntry@@QEAAPEADPEBDH@Z 000000018005d384     hunspell:affentry.obj
 0002:0000d3a0       $unwind$?DloadObtainSection@@YAPEAXPEAK0@Z 000000018005d3a0     DelayImp:delayhlp.obj
 0002:0000d3a0       $unwind$?test_condition@PfxEntry@@QEAAHPEBD@Z 000000018005d3a0     hunspell:affentry.obj
 0002:0000d3b0       $unwind$?checkword@PfxEntry@@QEAAPEAUhentry@@PEBDHDG@Z 000000018005d3b0     hunspell:affentry.obj
 0002:0000d3d4       $unwind$?check_twosfx_morph@PfxEntry@@QEAAPEADPEBDHDG@Z 000000018005d3d4     hunspell:affentry.obj
 0002:0000d3d4       $unwind$?check_twosfx@PfxEntry@@QEAAPEAUhentry@@PEBDHDG@Z 000000018005d3d4     hunspell:affentry.obj
 0002:0000d3f0       $unwind$?check_morph@PfxEntry@@QEAAPEADPEBDHDG@Z 000000018005d3f0     hunspell:affentry.obj
 0002:0000d40c       $chain$2$?check_morph@PfxEntry@@QEAAPEADPEBDHDG@Z 000000018005d40c     hunspell:affentry.obj
 0002:0000d428       $chain$3$?check_morph@PfxEntry@@QEAAPEADPEBDHDG@Z 000000018005d428     hunspell:affentry.obj
 0002:0000d438       $unwind$?add@SfxEntry@@QEAAPEADPEBDH@Z 000000018005d438     hunspell:affentry.obj
 0002:0000d454       $unwind$?test_condition@SfxEntry@@QEAAHPEBD0@Z 000000018005d454     hunspell:affentry.obj
 0002:0000d46c       $unwind$?checkword@SfxEntry@@QEAAPEAUhentry@@PEBDHHPEAVPfxEntry@@PEAPEADHPEAHGGG@Z 000000018005d46c     hunspell:affentry.obj
 0002:0000d490       $unwind$?check_twosfx@SfxEntry@@QEAAPEAUhentry@@PEBDHHPEAVPfxEntry@@G@Z 000000018005d490     hunspell:affentry.obj
 0002:0000d4b4       $unwind$?check_twosfx_morph@SfxEntry@@QEAAPEADPEBDHHPEAVPfxEntry@@G@Z 000000018005d4b4     hunspell:affentry.obj
 0002:0000d4d4       $unwind$?get_next_homonym@SfxEntry@@QEAAPEAUhentry@@PEAU2@HPEAVPfxEntry@@GG@Z 000000018005d4d4     hunspell:affentry.obj
 0002:0000d4f4       $unwind$?getcode@Hunzip@@IEAAHPEBD@Z 000000018005d4f4     hunspell:hunzip.obj
 0002:0000d500       $chain$0$?getcode@Hunzip@@IEAAHPEBD@Z 000000018005d500     hunspell:hunzip.obj
 0002:0000d514       $chain$3$?getcode@Hunzip@@IEAAHPEBD@Z 000000018005d514     hunspell:hunzip.obj
 0002:0000d52c       $chain$9$?getcode@Hunzip@@IEAAHPEBD@Z 000000018005d52c     hunspell:hunzip.obj
 0002:0000d554       $chain$11$?getcode@Hunzip@@IEAAHPEBD@Z 000000018005d554     hunspell:hunzip.obj
 0002:0000d57c       $chain$12$?getcode@Hunzip@@IEAAHPEBD@Z 000000018005d57c     hunspell:hunzip.obj
 0002:0000d590       $chain$13$?getcode@Hunzip@@IEAAHPEBD@Z 000000018005d590     hunspell:hunzip.obj
 0002:0000d5a0       $unwind$?getbuf@Hunzip@@IEAAHXZ 000000018005d5a0     hunspell:hunzip.obj
 0002:0000d5b8       $unwind$?getline@Hunzip@@QEAAPEBDXZ 000000018005d5b8     hunspell:hunzip.obj
 0002:0000d5d4       $chain$0$?getline@Hunzip@@QEAAPEBDXZ 000000018005d5d4     hunspell:hunzip.obj
 0002:0000d5e8       $chain$2$?getline@Hunzip@@QEAAPEBDXZ 000000018005d5e8     hunspell:hunzip.obj
 0002:0000d600       $chain$3$?getline@Hunzip@@QEAAPEBDXZ 000000018005d600     hunspell:hunzip.obj
 0002:0000d610       $chain$4$?getline@Hunzip@@QEAAPEBDXZ 000000018005d610     hunspell:hunzip.obj
 0002:0000d620       $chain$5$?getline@Hunzip@@QEAAPEBDXZ 000000018005d620     hunspell:hunzip.obj
 0002:0000d634       xdata                      000000018005d634     node:node.exe
 0002:0000d63c       $unwind$?__scrt_throw_std_bad_array_new_length@@YAXXZ 000000018005d63c     LIBCMT:throw_bad_alloc.obj
 0002:0000d63c       $unwind$?__scrt_throw_std_bad_alloc@@YAXXZ 000000018005d63c     LIBCMT:throw_bad_alloc.obj
 0002:0000d63c       $unwind$_raise_exc         000000018005d63c     libucrt:fpexcept.obj
 0002:0000d63c       $unwind$?_Xlength_error@std@@YAXPEBD@Z 000000018005d63c     libcpmt:xthrow.obj
 0002:0000d644       $unwind$?__mbrtowc_utf8@__crt_mbstring@@YA_KPEA_WPEBD_KPEAU_Mbstatet@@@Z 000000018005d644     libucrt:mbrtowc.obj
 0002:0000d644       $unwind$??$common_xtox_s@K_W@@YAHKQEA_W_KI_N@Z 000000018005d644     libucrt:xtoa.obj
 0002:0000d644       $unwind$??0length_error@std@@QEAA@PEBD@Z 000000018005d644     libcpmt:xthrow.obj
 0002:0000d650       $xdatasym                  000000018005d650     LIBCMT:amdsecgs.obj
 0002:0000d654       $unwind$?dllmain_crt_process_attach@@YAHQEAUHINSTANCE__@@QEAX@Z 000000018005d654     LIBCMT:dll_dllmain.obj
 0002:0000d690       $unwind$?dllmain_crt_process_detach@@YAH_N@Z 000000018005d690     LIBCMT:dll_dllmain.obj
 0002:0000d6c8       $unwind$?dllmain_dispatch@@YAHQEAUHINSTANCE__@@KQEAX@Z 000000018005d6c8     LIBCMT:dll_dllmain.obj
 0002:0000d6f0       $unwind$?filt$0@?0??dllmain_dispatch@@YAHQEAUHINSTANCE__@@KQEAX@Z@4HA 000000018005d6f0     LIBCMT:dll_dllmain.obj
 0002:0000d6f0       $unwind$fread_s$fin$0      000000018005d6f0     libucrt:fread.obj
 0002:0000d6f8       $unwind$__report_securityfailure 000000018005d6f8     LIBCMT:gs_report.obj
 0002:0000d700       $unwind$__report_gsfailure 000000018005d700     LIBCMT:gs_report.obj
 0002:0000d708       $unwind$capture_current_context 000000018005d708     LIBCMT:gs_report.obj
 0002:0000d714       $unwind$capture_previous_context 000000018005d714     LIBCMT:gs_report.obj
 0002:0000d720       $unwind$__security_init_cookie 000000018005d720     LIBCMT:gs_support.obj
 0002:0000d72c       $unwind$__scrt_is_nonwritable_in_current_image 000000018005d72c     LIBCMT:utility.obj
 0002:0000d74c       $unwind$__scrt_is_nonwritable_in_current_image$filt$0 000000018005d74c     LIBCMT:utility.obj
 0002:0000d754       $unwind$_isalpha_l         000000018005d754     libucrt:_ctype.obj
 0002:0000d754       $unwind$_isleadbyte_l      000000018005d754     libucrt:_wctype.obj
 0002:0000d754       $unwind$?getSystemCP@@YAHH@Z 000000018005d754     libucrt:mbctype.obj
 0002:0000d754       $unwind$__dcrt_lowio_ensure_console_output_initialized 000000018005d754     libucrt:initcon.obj
 0002:0000d754       $unwind$__scrt_initialize_onexit_tables 000000018005d754     LIBCMT:utility.obj
 0002:0000d75c       $unwind$__scrt_fastfail    000000018005d75c     LIBCMT:utility_desktop.obj
 0002:0000d76c       $unwind$__isa_available_init 000000018005d76c     LIBCMT:cpu_disp.obj
 0002:0000d780       $xdatasym                  000000018005d780     LIBCMT:guard_dispatch.obj
 0002:0000d784       $unwind$strstr             000000018005d784     libvcruntime:strstr.obj
 0002:0000d794       $unwind$strrchr            000000018005d794     libvcruntime:strrchr.obj
 0002:0000d794       $unwind$strchr             000000018005d794     libvcruntime:strchr.obj
 0002:0000d794       $unwind$wcschr             000000018005d794     libvcruntime:wcschr.obj
 0002:0000d79c       $unwind$_CxxThrowException 000000018005d79c     libvcruntime:throw.obj
 0002:0000d7b0       $xdatasym                  000000018005d7b0     libvcruntime:memset.obj
 0002:0000d7c0       $xdatasym                  000000018005d7c0     libvcruntime:notify.obj
 0002:0000d7cc       $unwind$__DestructExceptionObject 000000018005d7cc     libvcruntime:ehhelpers.obj
 0002:0000d7ec       $unwind$__vcrt_initialize_winapi_thunks 000000018005d7ec     libvcruntime:winapi_downlevel.obj
 0002:0000d7ec       $unwind$__acrt_initialize_winapi_thunks 000000018005d7ec     libucrt:winapi_thunks.obj
 0002:0000d7f4       $unwind$__acrt_stdio_end_temporary_buffering_nolock 000000018005d7f4     libucrt:_sftbuf.obj
 0002:0000d7f4       $unwind$__vcrt_uninitialize_winapi_thunks 000000018005d7f4     libvcruntime:winapi_downlevel.obj
 0002:0000d7fc       $unwind$?GetEstablisherFrame@__FrameHandler3@@SAPEA_KPEA_KPEAU_xDISPATCHER_CONTEXT@@PEBU_s_FuncInfo@@0@Z 000000018005d7fc     libvcruntime:risctrnsctrl.obj
 0002:0000d814       $unwind$?UnwindNestedFrames@__FrameHandler3@@SAXPEA_KPEAUEHExceptionRecord@@PEAU_CONTEXT@@0PEAXPEBU_s_FuncInfo@@HHPEBU_s_HandlerType@@PEAU_xDISPATCHER_CONTEXT@@E@Z 000000018005d814     libvcruntime:risctrnsctrl.obj
 0002:0000d828       $unwind$?GetRangeOfTrysToCheck@__FrameHandler3@@SA?AU?$pair@Viterator@TryBlockMap@__FrameHandler3@@V123@@std@@AEAVTryBlockMap@1@HH@Z 000000018005d828     libvcruntime:risctrnsctrl.obj
 0002:0000d840       $unwind$__CxxFrameHandler3 000000018005d840     libvcruntime:risctrnsctrl.obj
 0002:0000d850       $unwind$??$_CallSETranslator@V__FrameHandler3@@@@YAHPEAUEHExceptionRecord@@PEA_KPEAU_CONTEXT@@PEAU_xDISPATCHER_CONTEXT@@PEBU_s_FuncInfo@@K1@Z 000000018005d850     libvcruntime:risctrnsctrl.obj
 0002:0000d870       $unwind$?filt$0@?0???$_CallSETranslator@V__FrameHandler3@@@@YAHPEAUEHExceptionRecord@@PEA_KPEAU_CONTEXT@@PEAU_xDISPATCHER_CONTEXT@@PEBU_s_FuncInfo@@K1@Z@4HA 000000018005d870     libvcruntime:risctrnsctrl.obj
 0002:0000d880       $xdatasym                  000000018005d880     libvcruntime:memcpy.obj
 0002:0000d890       $unwind$?FrameUnwindToState@__FrameHandler3@@SAXPEA_KPEAU_xDISPATCHER_CONTEXT@@PEBU_s_FuncInfo@@H@Z 000000018005d890     libvcruntime:frame.obj
 0002:0000d8dc       $unwind$?CxxCallCatchBlock@__FrameHandler3@@SAPEAXPEAU_EXCEPTION_RECORD@@@Z 000000018005d8dc     libvcruntime:frame.obj
 0002:0000d918       $unwind$??$__InternalCxxFrameHandler@V__FrameHandler3@@@@YA?AW4_EXCEPTION_DISPOSITION@@PEAUEHExceptionRecord@@PEA_KPEAU_CONTEXT@@PEAU_xDISPATCHER_CONTEXT@@PEBU_s_FuncInfo@@H1E@Z 000000018005d918     libvcruntime:frame.obj
 0002:0000d930       $unwind$__acrt_lowio_set_os_handle 000000018005d930     libucrt:osfinfo.obj
 0002:0000d930       $unwind$__GSHandlerCheck_EH 000000018005d930     LIBCMT:gshandlereh.obj
 0002:0000d930       $unwind$??$TypeMatchHelper@V__FrameHandler3@@@@YAHPEBU_s_HandlerType@@PEBU_s_CatchableType@@PEBU_s_ThrowInfo@@@Z 000000018005d930     libvcruntime:frame.obj
 0002:0000d930       $unwind$?initialize_stdio_handles_nolock@@YAXXZ 000000018005d930     libucrt:ioinit.obj
 0002:0000d930       $unwind$__acrt_initialize_stdio 000000018005d930     libucrt:_file.obj
 0002:0000d948       $unwind$??$BuildCatchObjectHelperInternal@V__FrameHandler3@@@@YAHPEAUEHExceptionRecord@@PEAXPEBU_s_HandlerType@@PEBU_s_CatchableType@@@Z 000000018005d948     libvcruntime:frame.obj
 0002:0000d988       $unwind$??$BuildCatchObjectInternal@V__FrameHandler3@@@@YAXPEAUEHExceptionRecord@@PEAXPEBU_s_HandlerType@@PEBU_s_CatchableType@@@Z 000000018005d988     libvcruntime:frame.obj
 0002:0000d9b4       $unwind$??$FindHandler@V__FrameHandler3@@@@YAXPEAUEHExceptionRecord@@PEA_KPEAU_CONTEXT@@PEAU_xDISPATCHER_CONTEXT@@PEBU_s_FuncInfo@@EH1@Z 000000018005d9b4     libvcruntime:frame.obj
 0002:0000d9d0       $unwind$??$CatchIt@V__FrameHandler3@@@@YAXPEAUEHExceptionRecord@@PEA_KPEAU_CONTEXT@@PEAU_xDISPATCHER_CONTEXT@@PEBU_s_FuncInfo@@PEBU_s_HandlerType@@PEBU_s_CatchableType@@PEBU_s_TryBlockMapEntry@@H1EE@Z 000000018005d9d0     libvcruntime:frame.obj
 0002:0000d9e8       $unwind$??$FindHandlerForForeignException@V__FrameHandler3@@@@YAXPEAUEHExceptionRecord@@PEA_KPEAU_CONTEXT@@PEAU_xDISPATCHER_CONTEXT@@PEBU_s_FuncInfo@@HH1@Z 000000018005d9e8     libvcruntime:frame.obj
 0002:0000da08       $xdatasym                  000000018005da08     libvcruntime:handlers.obj
 0002:0000da18       $unwind$swprintf           000000018005da18     libucrt:assert.obj
 0002:0000da28       $unwind$??$common_assert_to_stderr@_W@@YAXQEB_W0I@Z 000000018005da28     libucrt:assert.obj
 0002:0000da44       $unwind$??$common_assert_to_message_box@_W@@YAXQEB_W0IQEAX@Z 000000018005da44     libucrt:assert.obj
 0002:0000da60       $unwind$??$common_assert_to_message_box_build_string@_W@@YAXQEA_W_KQEB_W2IQEAX@Z 000000018005da60     libucrt:assert.obj
 0002:0000da80       $unwind$fflush             000000018005da80     libucrt:fflush.obj
 0002:0000da80       $unwind$fread              000000018005da80     libucrt:fread.obj
 0002:0000da80       $unwind$_sopen_s           000000018005da80     libucrt:open.obj
 0002:0000da80       $unwind$_invalid_parameter_noinfo 000000018005da80     libucrt:invalid_parameter.obj
 0002:0000da80       $unwind$atoi               000000018005da80     libucrt:atox.obj
 0002:0000da80       $unwind$wctomb_s           000000018005da80     libucrt:wctomb.obj
 0002:0000da80       $unwind$_wtol              000000018005da80     libucrt:atox.obj
 0002:0000da80       $unwind$mbstowcs_s         000000018005da80     libucrt:mbstowcs.obj
 0002:0000da80       $unwind$strtol             000000018005da80     libucrt:strtox.obj
 0002:0000da80       $unwind$_invalid_parameter_noinfo_noreturn 000000018005da80     libucrt:invalid_parameter.obj
 0002:0000da80       $unwind$wcstol             000000018005da80     libucrt:strtox.obj
 0002:0000da80       $unwind$_itow_s            000000018005da80     libucrt:xtoa.obj
 0002:0000da80       $unwind$_log10_special     000000018005da80     libucrt:log_special.obj
 0002:0000da88       $unwind$__acrt_call_reportfault 000000018005da88     libucrt:invalid_parameter.obj
 0002:0000daa8       $unwind$_invalid_parameter 000000018005daa8     libucrt:invalid_parameter.obj
 0002:0000daa8       $unwind$__acrt_GetLocaleInfoEx 000000018005daa8     libucrt:winapi_thunks.obj
 0002:0000daa8       $unwind$__lc_lctowcs       000000018005daa8     libucrt:wsetlocale.obj
 0002:0000daa8       $unwind$__acrt_MessageBoxW 000000018005daa8     libucrt:winapi_thunks.obj
 0002:0000daa8       $unwind$__acrt_LCIDToLocaleName 000000018005daa8     libucrt:winapi_thunks.obj
 0002:0000daa8       $unwind$__acrt_DownlevelLCIDToLocaleName 000000018005daa8     libucrt:lcidtoname_downlevel.obj
 0002:0000dabc       $unwind$setlocale          000000018005dabc     libucrt:setlocale.obj
 0002:0000dac4       $unwind$??R<lambda_082c17da81b0962e08c0587ee0fac50c>@@QEBAPEADXZ 000000018005dac4     libucrt:setlocale.obj
 0002:0000dadc       $unwind$??$?RV<lambda_9bd929c17696992ce54f1d748594fc62>@@AEAV<lambda_082c17da81b0962e08c0587ee0fac50c>@@V<lambda_9c08ac857f4975304d44e9f601d9b878>@@@?$__crt_seh_guarded_call@PEAD@@QEAAPEAD$$QEAV<lambda_9bd929c17696992ce54f1d748594fc62>@@AEAV<lambda_082c17da81b0962e08c0587ee0fac50c>@@$$QEAV<lambda_9c08ac857f4975304d44e9f601d9b878>@@@Z 000000018005dadc     libucrt:setlocale.obj
 0002:0000db00       $unwind$??$common_fsopen@D@@YAPEAU_iobuf@@QEBD0H@Z 000000018005db00     libucrt:fopen.obj
 0002:0000db28       $unwind$fclose             000000018005db28     libucrt:fclose.obj
 0002:0000db4c       $unwind$??$common_getenv@D@@YAPEADQEBD@Z 000000018005db4c     libucrt:getenv.obj
 0002:0000db6c       $unwind$??$initialize_environment_by_cloning_nolock@D@@YAHXZ 000000018005db6c     libucrt:environment_initialization.obj
 0002:0000db6c       $unwind$_stricmp_l         000000018005db6c     libucrt:stricmp.obj
 0002:0000db6c       $unwind$?x_ismbbtype_l@@YAHPEAU__crt_locale_pointers@@IHH@Z 000000018005db6c     libucrt:ismbbyte.obj
 0002:0000db80       $xdatasym                  000000018005db80     libucrt:strncpy.obj
 0002:0000db88       $xdatasym                  000000018005db88     libucrt:strncmp.obj
 0002:0000db8c       $unwind$__stdio_common_vfwprintf 000000018005db8c     libucrt:output.obj
 0002:0000db8c       $unwind$__stdio_common_vfprintf 000000018005db8c     libucrt:output.obj
 0002:0000db94       $unwind$??$common_vsprintf@Vstandard_base@__crt_stdio_output@@D@@YAH_KQEAD0QEBDQEAU__crt_locale_pointers@@1@Z 000000018005db94     libucrt:output.obj
 0002:0000db94       $unwind$??$common_vsprintf@Vstandard_base@__crt_stdio_output@@_W@@YAH_KQEA_W0QEB_WQEAU__crt_locale_pointers@@QEAD@Z 000000018005db94     libucrt:output.obj
 0002:0000dbb4       $unwind$??$parse_command_line@D@@YAXPEADPEAPEAD0PEA_K2@Z 000000018005dbb4     libucrt:argv_parsing.obj
 0002:0000dbb4       $unwind$TranslateName      000000018005dbb4     libucrt:get_qualified_locale.obj
 0002:0000dbb4       $unwind$?write_string_impl@?$output_adapter_common@_WV?$stream_output_adapter@_W@__crt_stdio_output@@@__crt_stdio_output@@IEBAXQEB_WHQEAHAEAV__crt_deferred_errno_cache@@@Z 000000018005dbb4     libucrt:output.obj
 0002:0000dbb4       $unwind$_chsize_nolock     000000018005dbb4     libucrt:chsize.obj
 0002:0000dbb4       $unwind$?write_string_impl@?$output_adapter_common@DV?$stream_output_adapter@D@__crt_stdio_output@@@__crt_stdio_output@@IEBAXQEBDHQEAHAEAV__crt_deferred_errno_cache@@@Z 000000018005dbb4     libucrt:output.obj
 0002:0000dbd0       $unwind$?truncate_ctrl_z_if_present@@YAHH@Z 000000018005dbd0     libucrt:open.obj
 0002:0000dbd0       $unwind$?process@?$output_processor@DV?$stream_output_adapter@D@__crt_stdio_output@@V?$standard_base@DV?$stream_output_adapter@D@__crt_stdio_output@@@2@@__crt_stdio_output@@QEAAHXZ 000000018005dbd0     libucrt:output.obj
 0002:0000dbd0       $unwind$?process@?$output_processor@DV?$string_output_adapter@D@__crt_stdio_output@@V?$standard_base@DV?$string_output_adapter@D@__crt_stdio_output@@@2@@__crt_stdio_output@@QEAAHXZ 000000018005dbd0     libucrt:output.obj
 0002:0000dbe0       $unwind$?configure_text_mode@@YAHHUfile_options@?A0xa9d50aae@@HAEAW4__crt_lowio_text_mode@@@Z 000000018005dbe0     libucrt:open.obj
 0002:0000dbe0       $unwind$?state_case_type@?$output_processor@DV?$string_output_adapter@D@__crt_stdio_output@@V?$standard_base@DV?$string_output_adapter@D@__crt_stdio_output@@@2@@__crt_stdio_output@@AEAA_NXZ 000000018005dbe0     libucrt:output.obj
 0002:0000dbe0       $unwind$?state_case_type@?$output_processor@DV?$stream_output_adapter@D@__crt_stdio_output@@V?$standard_base@DV?$stream_output_adapter@D@__crt_stdio_output@@@2@@__crt_stdio_output@@AEAA_NXZ 000000018005dbe0     libucrt:output.obj
 0002:0000dbf8       $unwind$?type_case_a@?$output_processor@DV?$stream_output_adapter@D@__crt_stdio_output@@V?$standard_base@DV?$stream_output_adapter@D@__crt_stdio_output@@@2@@__crt_stdio_output@@AEAA_NXZ 000000018005dbf8     libucrt:output.obj
 0002:0000dbf8       $unwind$?type_case_a@?$output_processor@DV?$string_output_adapter@D@__crt_stdio_output@@V?$standard_base@DV?$string_output_adapter@D@__crt_stdio_output@@@2@@__crt_stdio_output@@AEAA_NXZ 000000018005dbf8     libucrt:output.obj
 0002:0000dc04       $unwind$?write_stored_string_tchar@?$output_processor@DV?$string_output_adapter@D@__crt_stdio_output@@V?$standard_base@DV?$string_output_adapter@D@__crt_stdio_output@@@2@@__crt_stdio_output@@AEAA_ND@Z 000000018005dc04     libucrt:output.obj
 0002:0000dc04       $unwind$?write_stored_string_tchar@?$output_processor@DV?$stream_output_adapter@D@__crt_stdio_output@@V?$standard_base@DV?$stream_output_adapter@D@__crt_stdio_output@@@2@@__crt_stdio_output@@AEAA_ND@Z 000000018005dc04     libucrt:output.obj
 0002:0000dc1c       $unwind$??R<lambda_a775ed57af18ba8e4d5dc780aa9068fe>@@QEBAHXZ 000000018005dc1c     libucrt:output.obj
 0002:0000dc1c       $unwind$??R<lambda_a31071773b9a94e445cbd5d04ef99106>@@QEBAHXZ 000000018005dc1c     libucrt:output.obj
 0002:0000dc3c       $unwind$?parse_int_from_format_string@?$output_processor@_WV?$string_output_adapter@_W@__crt_stdio_output@@V?$standard_base@_WV?$string_output_adapter@_W@__crt_stdio_output@@@2@@__crt_stdio_output@@AEAA_NQEAH@Z 000000018005dc3c     libucrt:output.obj
 0002:0000dc3c       $unwind$?parse_int_from_format_string@?$output_processor@_WV?$stream_output_adapter@_W@__crt_stdio_output@@V?$standard_base@_WV?$stream_output_adapter@_W@__crt_stdio_output@@@2@@__crt_stdio_output@@AEAA_NQEAH@Z 000000018005dc3c     libucrt:output.obj
 0002:0000dc50       $unwind$?state_case_type@?$output_processor@_WV?$stream_output_adapter@_W@__crt_stdio_output@@V?$standard_base@_WV?$stream_output_adapter@_W@__crt_stdio_output@@@2@@__crt_stdio_output@@AEAA_NXZ 000000018005dc50     libucrt:output.obj
 0002:0000dc70       $unwind$?type_case_c_tchar@?$output_processor@_WV?$stream_output_adapter@_W@__crt_stdio_output@@V?$standard_base@_WV?$stream_output_adapter@_W@__crt_stdio_output@@@2@@__crt_stdio_output@@AEAA_N_W@Z 000000018005dc70     libucrt:output.obj
 0002:0000dc70       $unwind$ProcessCodePage    000000018005dc70     libucrt:get_qualified_locale.obj
 0002:0000dc70       $unwind$TestDefaultLanguage 000000018005dc70     libucrt:getqloc_downlevel.obj
 0002:0000dc70       $unwind$?type_case_c_tchar@?$output_processor@_WV?$string_output_adapter@_W@__crt_stdio_output@@V?$standard_base@_WV?$string_output_adapter@_W@__crt_stdio_output@@@2@@__crt_stdio_output@@AEAA_N_W@Z 000000018005dc70     libucrt:output.obj
 0002:0000dc70       $unwind$ProcessCodePage    000000018005dc70     libucrt:getqloc_downlevel.obj
 0002:0000dc80       $unwind$?type_case_a@?$output_processor@_WV?$stream_output_adapter@_W@__crt_stdio_output@@V?$standard_base@_WV?$stream_output_adapter@_W@__crt_stdio_output@@@2@@__crt_stdio_output@@AEAA_NXZ 000000018005dc80     libucrt:output.obj
 0002:0000dc80       $unwind$?type_case_a@?$output_processor@_WV?$string_output_adapter@_W@__crt_stdio_output@@V?$standard_base@_WV?$string_output_adapter@_W@__crt_stdio_output@@@2@@__crt_stdio_output@@AEAA_NXZ 000000018005dc80     libucrt:output.obj
 0002:0000dc90       $unwind$?write_stored_string_tchar@?$output_processor@_WV?$stream_output_adapter@_W@__crt_stdio_output@@V?$standard_base@_WV?$stream_output_adapter@_W@__crt_stdio_output@@@2@@__crt_stdio_output@@AEAA_N_W@Z 000000018005dc90     libucrt:output.obj
 0002:0000dca4       $unwind$??$write_multiple_characters@V?$stream_output_adapter@_W@__crt_stdio_output@@D@__crt_stdio_output@@YAXAEBV?$stream_output_adapter@_W@0@DHQEAH@Z 000000018005dca4     libucrt:output.obj
 0002:0000dca4       $unwind$?write_string@?$string_output_adapter@D@__crt_stdio_output@@QEBAXQEBDHQEAHAEAV__crt_deferred_errno_cache@@@Z 000000018005dca4     libucrt:output.obj
 0002:0000dca4       $unwind$??$write_multiple_characters@V?$stream_output_adapter@D@__crt_stdio_output@@D@__crt_stdio_output@@YAXAEBV?$stream_output_adapter@D@0@DHQEAH@Z 000000018005dca4     libucrt:output.obj
 0002:0000dcbc       $unwind$?write_string@?$string_output_adapter@_W@__crt_stdio_output@@QEBAXQEB_WHQEAHAEAV__crt_deferred_errno_cache@@@Z 000000018005dcbc     libucrt:output.obj
 0002:0000dcd4       $unwind$?state_case_type@?$output_processor@_WV?$string_output_adapter@_W@__crt_stdio_output@@V?$standard_base@_WV?$string_output_adapter@_W@__crt_stdio_output@@@2@@__crt_stdio_output@@AEAA_NXZ 000000018005dcd4     libucrt:output.obj
 0002:0000dcf8       $unwind$?write_stored_string_tchar@?$output_processor@_WV?$string_output_adapter@_W@__crt_stdio_output@@V?$standard_base@_WV?$string_output_adapter@_W@__crt_stdio_output@@@2@@__crt_stdio_output@@AEAA_N_W@Z 000000018005dcf8     libucrt:output.obj
 0002:0000dd0c       $unwind$??$write_multiple_characters@V?$string_output_adapter@D@__crt_stdio_output@@D@__crt_stdio_output@@YAXAEBV?$string_output_adapter@D@0@DHQEAH@Z 000000018005dd0c     libucrt:output.obj
 0002:0000dd0c       $unwind$??$write_multiple_characters@V?$string_output_adapter@_W@__crt_stdio_output@@D@__crt_stdio_output@@YAXAEBV?$string_output_adapter@_W@0@DHQEAH@Z 000000018005dd0c     libucrt:output.obj
 0002:0000dd18       $unwind$??$?RV<lambda_a62c933ada0517137acf5807a1eeac1f>@@AEAV<lambda_a31071773b9a94e445cbd5d04ef99106>@@V<lambda_56065050dbf3ada7e59a83db45153de3>@@@?$__crt_seh_guarded_call@H@@QEAAH$$QEAV<lambda_a62c933ada0517137acf5807a1eeac1f>@@AEAV<lambda_a31071773b9a94e445cbd5d04ef99106>@@$$QEAV<lambda_56065050dbf3ada7e59a83db45153de3>@@@Z 000000018005dd18     libucrt:output.obj
 0002:0000dd3c       $unwind$??$?RV<lambda_0d412022a4b28cc8a401ea49574e8ae6>@@AEAV<lambda_a775ed57af18ba8e4d5dc780aa9068fe>@@V<lambda_975a71a6baa488a08f4e15f6b0339b9e>@@@?$__crt_seh_guarded_call@H@@QEAAH$$QEAV<lambda_0d412022a4b28cc8a401ea49574e8ae6>@@AEAV<lambda_a775ed57af18ba8e4d5dc780aa9068fe>@@$$QEAV<lambda_975a71a6baa488a08f4e15f6b0339b9e>@@@Z 000000018005dd3c     libucrt:output.obj
 0002:0000dd60       $unwind$??$parse_integer@KV?$c_string_character_source@D@__crt_strtox@@@__crt_strtox@@YAKQEAU__crt_locale_pointers@@V?$c_string_character_source@D@0@H_N@Z 000000018005dd60     libucrt:atox.obj
 0002:0000dd7c       $unwind$??$parse_integer@KV?$c_string_character_source@_W@__crt_strtox@@@__crt_strtox@@YAKQEAU__crt_locale_pointers@@V?$c_string_character_source@_W@0@H_N@Z 000000018005dd7c     libucrt:atox.obj
 0002:0000dd94       $unwind$??$common_fgets@D@@YAPEADQEADHV__crt_stdio_stream@@@Z 000000018005dd94     libucrt:fgets.obj
 0002:0000ddc0       $unwind$fread_s            000000018005ddc0     libucrt:fread.obj
 0002:0000ddf0       $unwind$_fread_nolock_s    000000018005ddf0     libucrt:fread.obj
 0002:0000de08       $unwind$_query_new_handler 000000018005de08     libucrt:new_handler.obj
 0002:0000de28       $unwind$?common_exit@@YAXHW4_crt_exit_cleanup_mode@@W4_crt_exit_return_mode@@@Z 000000018005de28     libucrt:exit.obj
 0002:0000de34       $unwind$??R<lambda_6e4b09c48022b2350581041d5f6b0c4c>@@QEBA@XZ 000000018005de34     libucrt:exit.obj
 0002:0000de54       $unwind$??$?RV<lambda_d80eeec6fff315bfe5c115232f3240e3>@@AEAV<lambda_6e4b09c48022b2350581041d5f6b0c4c>@@V<lambda_2358e3775559c9db80273638284d5e45>@@@?$__crt_seh_guarded_call@X@@QEAAX$$QEAV<lambda_d80eeec6fff315bfe5c115232f3240e3>@@AEAV<lambda_6e4b09c48022b2350581041d5f6b0c4c>@@$$QEAV<lambda_2358e3775559c9db80273638284d5e45>@@@Z 000000018005de54     libucrt:exit.obj
 0002:0000de78       $unwind$_configure_narrow_argv 000000018005de78     libucrt:argv_parsing.obj
 0002:0000de8c       $unwind$??$free_environment@_W@@YAXQEAPEA_W@Z 000000018005de8c     libucrt:environment_initialization.obj
 0002:0000de8c       $unwind$??$free_environment@D@@YAXQEAPEAD@Z 000000018005de8c     libucrt:environment_initialization.obj
 0002:0000de98       $unwind$_execute_onexit_table 000000018005de98     libucrt:onexit.obj
 0002:0000dea0       $unwind$??$?RV<lambda_7777bce6b2f8c936911f934f8298dc43>@@AEAV<lambda_f03950bc5685219e0bcd2087efbe011e>@@V<lambda_3883c3dff614d5e0c5f61bb1ac94921c>@@@?$__crt_seh_guarded_call@H@@QEAAH$$QEAV<lambda_7777bce6b2f8c936911f934f8298dc43>@@AEAV<lambda_f03950bc5685219e0bcd2087efbe011e>@@$$QEAV<lambda_3883c3dff614d5e0c5f61bb1ac94921c>@@@Z 000000018005dea0     libucrt:onexit.obj
 0002:0000dec4       $unwind$terminate          000000018005dec4     libucrt:terminate.obj
 0002:0000dee4       $unwind$_free_base         000000018005dee4     libucrt:free_base.obj
 0002:0000dee4       $unwind$__acrt_locale_free_lc_time_if_unreferenced 000000018005dee4     libucrt:locale_refcounting.obj
 0002:0000dee4       $unwind$__acrt_locale_free_numeric 000000018005dee4     libucrt:initnum.obj
 0002:0000dee4       $unwind$?destroy_fls@@YAXPEAX@Z 000000018005dee4     libucrt:per_thread_data.obj
 0002:0000deec       $unwind$__acrt_GetModuleFileNameA 000000018005deec     libucrt:getmodulefilenamea.obj
 0002:0000df08       $unwind$??$__acrt_wcs_to_mbs_cp@U__crt_win32_buffer_no_resizing@@@@YAHQEB_WAEAV?$__crt_win32_buffer@DU__crt_win32_buffer_no_resizing@@@@I@Z 000000018005df08     libucrt:getmodulefilenamea.obj
 0002:0000df08       $unwind$_strnicmp_l        000000018005df08     libucrt:strnicmp.obj
 0002:0000df08       $unwind$__dcrt_write_console 000000018005df08     libucrt:initcon.obj
 0002:0000df08       $unwind$_wcsicmp_l         000000018005df08     libucrt:wcsicmp.obj
 0002:0000df1c       $unwind$?common_flush_all@@YAH_N@Z 000000018005df1c     libucrt:fflush.obj
 0002:0000df24       $unwind$??$?RV<lambda_842d9ff0dc9ef11c61343bbaebe7f885>@@AEAV<lambda_c5860995281e5c4ce005b3de8f5874ee>@@V<lambda_d90129c13df834fdcbf8d2b88dafcf2d>@@@?$__crt_seh_guarded_call@X@@QEAAX$$QEAV<lambda_842d9ff0dc9ef11c61343bbaebe7f885>@@AEAV<lambda_c5860995281e5c4ce005b3de8f5874ee>@@$$QEAV<lambda_d90129c13df834fdcbf8d2b88dafcf2d>@@@Z 000000018005df24     libucrt:fflush.obj
 0002:0000df48       $unwind$??$?RV<lambda_886d6c58226a84441f68b9f2b8217b83>@@AEAV<lambda_ab61a845afdef5b7c387490eaf3616ee>@@V<lambda_f7f22ab5edc0698d5f6905b0d3f44752>@@@?$__crt_seh_guarded_call@X@@QEAAX$$QEAV<lambda_886d6c58226a84441f68b9f2b8217b83>@@AEAV<lambda_ab61a845afdef5b7c387490eaf3616ee>@@$$QEAV<lambda_f7f22ab5edc0698d5f6905b0d3f44752>@@@Z 000000018005df48     libucrt:fflush.obj
 0002:0000df70       $unwind$??$?RV<lambda_c376a267cfb53b6959b3b692ec76b120>@@AEAV<lambda_9a32fed5bf61b6b509b2d3f6003082a1>@@V<lambda_572fbb9fa0ab338edf41edfd4b5fcc8d>@@@?$__crt_seh_guarded_call@H@@QEAAH$$QEAV<lambda_c376a267cfb53b6959b3b692ec76b120>@@AEAV<lambda_9a32fed5bf61b6b509b2d3f6003082a1>@@$$QEAV<lambda_572fbb9fa0ab338edf41edfd4b5fcc8d>@@@Z 000000018005df70     libucrt:fflush.obj
 0002:0000df94       $unwind$setvbuf            000000018005df94     libucrt:setvbuf.obj
 0002:0000df9c       $unwind$??$?RV<lambda_84ec643ea9557e2f7dc01bb0e9624395>@@AEAV<lambda_ca71763b3c0644891230e4f79ea54fa6>@@V<lambda_439a761618c59b0600e24586724d733b>@@@?$__crt_seh_guarded_call@H@@QEAAH$$QEAV<lambda_84ec643ea9557e2f7dc01bb0e9624395>@@AEAV<lambda_ca71763b3c0644891230e4f79ea54fa6>@@$$QEAV<lambda_439a761618c59b0600e24586724d733b>@@@Z 000000018005df9c     libucrt:setvbuf.obj
 0002:0000dfc0       $unwind$__acrt_uninitialize_locale 000000018005dfc0     libucrt:wsetlocale.obj
 0002:0000dfc0       $unwind$__acrt_get_sigabrt_handler 000000018005dfc0     libucrt:signal.obj
 0002:0000dfc8       $unwind$raise              000000018005dfc8     libucrt:signal.obj
 0002:0000e004       $unwind$??$?RV<lambda_450d765d439847d4c735a33c368b5fc0>@@AEAV<lambda_44731a7d0e6d81c3e6aa82d741081786>@@V<lambda_601a2a7da3b7a96e9554ac7215c4b07c>@@@?$__crt_seh_guarded_call@P6AXH@Z@@QEAAP6AXH@Z$$QEAV<lambda_450d765d439847d4c735a33c368b5fc0>@@AEAV<lambda_44731a7d0e6d81c3e6aa82d741081786>@@$$QEAV<lambda_601a2a7da3b7a96e9554ac7215c4b07c>@@@Z 000000018005e004     libucrt:signal.obj
 0002:0000e028       $unwind$?construct_ptd_array@@YAXQEAU__acrt_ptd@@@Z 000000018005e028     libucrt:per_thread_data.obj
 0002:0000e030       $unwind$?destroy_ptd_array@@YAXQEAU__acrt_ptd@@@Z 000000018005e030     libucrt:per_thread_data.obj
 0002:0000e038       $unwind$??$?RV<lambda_0ae27a3a962d80f24befdcbee591983d>@@AEAV<lambda_8d0ee55de4b1038c4002e0adecdf1839>@@V<lambda_dc504788e8f1664fe9b84e20bfb512f2>@@@?$__crt_seh_guarded_call@X@@QEAAX$$QEAV<lambda_0ae27a3a962d80f24befdcbee591983d>@@AEAV<lambda_8d0ee55de4b1038c4002e0adecdf1839>@@$$QEAV<lambda_dc504788e8f1664fe9b84e20bfb512f2>@@@Z 000000018005e038     libucrt:per_thread_data.obj
 0002:0000e05c       $unwind$??$?RV<lambda_aa87e3671a710a21b5dc78c0bdf72e11>@@AEAV<lambda_92619d2358a28f41a33ba319515a20b9>@@V<lambda_6992ecaafeb10aed2b74cb1fae11a551>@@@?$__crt_seh_guarded_call@X@@QEAAX$$QEAV<lambda_aa87e3671a710a21b5dc78c0bdf72e11>@@AEAV<lambda_92619d2358a28f41a33ba319515a20b9>@@$$QEAV<lambda_6992ecaafeb10aed2b74cb1fae11a551>@@@Z 000000018005e05c     libucrt:per_thread_data.obj
 0002:0000e080       $unwind$??$?RV<lambda_f2e299630e499de9f9a165e60fcd3db5>@@AEAV<lambda_2ae9d31cdba2644fcbeaf08da7c24588>@@V<lambda_40d01ff24d0e7b3814fdbdcee8eab3c7>@@@?$__crt_seh_guarded_call@X@@QEAAX$$QEAV<lambda_f2e299630e499de9f9a165e60fcd3db5>@@AEAV<lambda_2ae9d31cdba2644fcbeaf08da7c24588>@@$$QEAV<lambda_40d01ff24d0e7b3814fdbdcee8eab3c7>@@@Z 000000018005e080     libucrt:per_thread_data.obj
 0002:0000e0a4       $unwind$??$?RV<lambda_2d41944a1d46af3157314b8a01080d33>@@AEAV<lambda_8f455de75cd7d7f24b4096f044d8b9e6>@@V<lambda_aa500f224e6afead328df44964fe2772>@@@?$__crt_seh_guarded_call@X@@QEAAX$$QEAV<lambda_2d41944a1d46af3157314b8a01080d33>@@AEAV<lambda_8f455de75cd7d7f24b4096f044d8b9e6>@@$$QEAV<lambda_aa500f224e6afead328df44964fe2772>@@@Z 000000018005e0a4     libucrt:per_thread_data.obj
 0002:0000e0c8       $unwind$_mbstowcs_s_l      000000018005e0c8     libucrt:mbstowcs.obj
 0002:0000e0e0       $unwind$?_mbstowcs_l_helper@@YA_KPEA_WPEBD_KPEAU__crt_locale_pointers@@@Z 000000018005e0e0     libucrt:mbstowcs.obj
 0002:0000e0f8       $unwind$?_wcstombs_l_helper@@YA_KPEADPEB_W_KPEAU__crt_locale_pointers@@@Z 000000018005e0f8     libucrt:wcstombs.obj
 0002:0000e11c       $stateUnwindMap$?_wcstombs_l_helper@@YA_KPEADPEB_W_KPEAU__crt_locale_pointers@@@Z 000000018005e11c     libucrt:wcstombs.obj
 0002:0000e128       $ip2state$?_wcstombs_l_helper@@YA_KPEADPEB_W_KPEAU__crt_locale_pointers@@@Z 000000018005e128     libucrt:wcstombs.obj
 0002:0000e138       $unwind$__acrt_LCMapStringW 000000018005e138     libucrt:lcmapstringw.obj
 0002:0000e138       $unwind$_mbtowc_l          000000018005e138     libucrt:mbtowc.obj
 0002:0000e138       $unwind$__acrt_LCMapStringEx 000000018005e138     libucrt:winapi_thunks.obj
 0002:0000e138       $unwind$?fp_format_e@@YAHQEBNQEAD_K12H_NIQEAU__crt_locale_pointers@@@Z 000000018005e138     libucrt:cvt.obj
 0002:0000e138       $unwind$__acrt_CompareStringEx 000000018005e138     libucrt:winapi_thunks.obj
 0002:0000e14c       $unwind$__acrt_EnumSystemLocalesEx 000000018005e14c     libucrt:winapi_thunks.obj
 0002:0000e15c       $unwind$__acrt_is_interactive 000000018005e15c     libucrt:winapi_thunks.obj
 0002:0000e170       $unwind$??$?RV<lambda_bd00b5aa228bd7e7e5b2b5db5fd2933b>@@AEAV<lambda_777d11615145f89ee95b9466d285deeb>@@V<lambda_6e5e48fbd24f9f8f81b203eb3d877683>@@@?$__crt_seh_guarded_call@H@@QEAAH$$QEAV<lambda_bd00b5aa228bd7e7e5b2b5db5fd2933b>@@AEAV<lambda_777d11615145f89ee95b9466d285deeb>@@$$QEAV<lambda_6e5e48fbd24f9f8f81b203eb3d877683>@@@Z 000000018005e170     libucrt:winapi_thunks.obj
 0002:0000e194       $unwind$__acrt_copy_locale_name 000000018005e194     libucrt:wsetlocale.obj
 0002:0000e194       $unwind$strpbrk            000000018005e194     libucrt:strpbrk.obj
 0002:0000e1a4       $unwind$_wsetlocale        000000018005e1a4     libucrt:wsetlocale.obj
 0002:0000e1ac       $unwind$_expandlocale      000000018005e1ac     libucrt:wsetlocale.obj
 0002:0000e1cc       $unwind$_wcscats           000000018005e1cc     libucrt:wsetlocale.obj
 0002:0000e1dc       $unwind$_wsetlocale_set_cat 000000018005e1dc     libucrt:wsetlocale.obj
 0002:0000e1dc       $unwind$??$expand_argument_wildcards@D@@YAHQEAD0AEAV?$argument_list@D@?A0x5f5c8891@@@Z 000000018005e1dc     libucrt:argv_wildcards.obj
 0002:0000e200       $unwind$_wsetlocale_get_all 000000018005e200     libucrt:wsetlocale.obj
 0002:0000e200       $unwind$??$copy_and_add_argument_to_buffer@D@@YAHQEBD0_KAEAV?$argument_list@D@?A0x5f5c8891@@@Z 000000018005e200     libucrt:argv_wildcards.obj
 0002:0000e21c       $unwind$_wsetlocale_nolock 000000018005e21c     libucrt:wsetlocale.obj
 0002:0000e240       $unwind$??R<lambda_2a444430fde8c29194d880d93eed5e8f>@@QEBA@XZ 000000018005e240     libucrt:wsetlocale.obj
 0002:0000e24c       $unwind$??$?RV<lambda_410d79af7f07d98d83a3f525b3859a53>@@AEAV<lambda_3e16ef9562a7dcce91392c22ab16ea36>@@V<lambda_38119f0e861e05405d8a144b9b982f0a>@@@?$__crt_seh_guarded_call@X@@QEAAX$$QEAV<lambda_410d79af7f07d98d83a3f525b3859a53>@@AEAV<lambda_3e16ef9562a7dcce91392c22ab16ea36>@@$$QEAV<lambda_38119f0e861e05405d8a144b9b982f0a>@@@Z 000000018005e24c     libucrt:wsetlocale.obj
 0002:0000e274       $unwind$??$?RV<lambda_1d892b297fdedeee07ed8124eeb2f2fa>@@AEAV<lambda_ffc046909424fd52df0ac47e64813305>@@V<lambda_01a7098693036236037e7cdb9bca3d73>@@@?$__crt_seh_guarded_call@X@@QEAAX$$QEAV<lambda_1d892b297fdedeee07ed8124eeb2f2fa>@@AEAV<lambda_ffc046909424fd52df0ac47e64813305>@@$$QEAV<lambda_01a7098693036236037e7cdb9bca3d73>@@@Z 000000018005e274     libucrt:wsetlocale.obj
 0002:0000e298       $unwind$??$?RV<lambda_7f2adfce497ff2baa965cd4f576ecfd1>@@AEAV<lambda_2a444430fde8c29194d880d93eed5e8f>@@AEAV<lambda_8dff2cf36a5417162780cd64fa2883ef>@@@?$__crt_seh_guarded_call@X@@QEAAX$$QEAV<lambda_7f2adfce497ff2baa965cd4f576ecfd1>@@AEAV<lambda_2a444430fde8c29194d880d93eed5e8f>@@AEAV<lambda_8dff2cf36a5417162780cd64fa2883ef>@@@Z 000000018005e298     libucrt:wsetlocale.obj
 0002:0000e2b8       $unwind$?__acrt_stdio_allocate_stream@@YA?AV__crt_stdio_stream@@XZ 000000018005e2b8     libucrt:stream.obj
 0002:0000e2d8       $unwind$_openfile          000000018005e2d8     libucrt:openfile.obj
 0002:0000e2ec       $unwind$_close             000000018005e2ec     libucrt:close.obj
 0002:0000e2ec       $unwind$_commit            000000018005e2ec     libucrt:commit.obj
 0002:0000e2f4       $unwind$??$?RV<lambda_751a882b2c74d4b022dec766aa51a29a>@@AEAV<lambda_628dfdc04ba53c8bfc02c9951375f3f5>@@V<lambda_f6c7be5f7998530c34de24c7437d6b54>@@@?$__crt_seh_guarded_call@H@@QEAAH$$QEAV<lambda_751a882b2c74d4b022dec766aa51a29a>@@AEAV<lambda_628dfdc04ba53c8bfc02c9951375f3f5>@@$$QEAV<lambda_f6c7be5f7998530c34de24c7437d6b54>@@@Z 000000018005e2f4     libucrt:close.obj
 0002:0000e318       $unwind$_strnicoll_l       000000018005e318     libucrt:strnicol.obj
 0002:0000e32c       $unwind$_tolower_l         000000018005e32c     libucrt:tolower_toupper.obj
 0002:0000e33c       $unwind$_wctomb_s_l        000000018005e33c     libucrt:wctomb.obj
 0002:0000e34c       $unwind$__acrt_fp_format   000000018005e34c     libucrt:cvt.obj
 0002:0000e360       $unwind$?fp_format_nan_or_infinity@@YAHW4__acrt_fp_class@@_NPEAD_K1@Z 000000018005e360     libucrt:cvt.obj
 0002:0000e374       $unwind$?fp_format_e_internal@@YAHQEAD_KH_NIQEAU_strflt@@2QEAU__crt_locale_pointers@@@Z 000000018005e374     libucrt:cvt.obj
 0002:0000e38c       $unwind$?fp_format_a@@YAHQEBNPEAD_KQEAD2H_NIQEAU__crt_locale_pointers@@@Z 000000018005e38c     libucrt:cvt.obj
 0002:0000e3a8       $unwind$?fp_format_f_internal@@YAHQEAD_KHQEAU_strflt@@_NQEAU__crt_locale_pointers@@@Z 000000018005e3a8     libucrt:cvt.obj
 0002:0000e3a8       $unwind$??$__acrt_wcs_to_mbs_cp@U__crt_win32_buffer_internal_dynamic_resizing@@@@YAHQEB_WAEAV?$__crt_win32_buffer@DU__crt_win32_buffer_internal_dynamic_resizing@@@@I@Z 000000018005e3a8     libucrt:argv_wildcards.obj
 0002:0000e3a8       $unwind$_wcsnicmp_l        000000018005e3a8     libucrt:wcsnicmp.obj
 0002:0000e3a8       $unwind$__dcrt_get_narrow_environment_from_os 000000018005e3a8     libucrt:get_environment_from_os.obj
 0002:0000e3c0       $unwind$?fp_format_g@@YAHQEBNQEAD_K12H_NIQEAU__crt_locale_pointers@@@Z 000000018005e3c0     libucrt:cvt.obj
 0002:0000e3d4       $unwind$_fputwc_nolock     000000018005e3d4     libucrt:fputwc.obj
 0002:0000e3f0       $unwind$__acrt_initialize_lowio 000000018005e3f0     libucrt:ioinit.obj
 0002:0000e410       $unwind$?initialize_inherited_file_handles_nolock@@YAXXZ 000000018005e410     libucrt:ioinit.obj
 0002:0000e42c       $unwind$_fcloseall         000000018005e42c     libucrt:closeall.obj
 0002:0000e450       $unwind$_isctype_l         000000018005e450     libucrt:isctype.obj
 0002:0000e46c       $unwind$_read              000000018005e46c     libucrt:read.obj
 0002:0000e49c       $unwind$_read_nolock       000000018005e49c     libucrt:read.obj
 0002:0000e4b4       $unwind$__acrt_get_qualified_locale 000000018005e4b4     libucrt:get_qualified_locale.obj
 0002:0000e4b4       $unwind$?translate_ansi_or_utf8_nolock@@YAHHQEAD_KQEA_W1@Z 000000018005e4b4     libucrt:read.obj
 0002:0000e4d0       $unwind$??$translate_text_mode_nolock@D@@YAHHQEAD_K@Z 000000018005e4d0     libucrt:read.obj
 0002:0000e4e8       $unwind$??$translate_text_mode_nolock@_W@@YAHHQEA_W_K@Z 000000018005e4e8     libucrt:read.obj
 0002:0000e500       $unwind$??$__acrt_mbs_to_wcs_cp@U__crt_win32_buffer_internal_dynamic_resizing@@@@YAHQEBDAEAV?$__crt_win32_buffer@_WU__crt_win32_buffer_internal_dynamic_resizing@@@@I@Z 000000018005e500     libucrt:argv_wildcards.obj
 0002:0000e518       $unwind$??$common_expand_argv_wildcards@D@@YAHQEAPEADQEAPEAPEAD@Z 000000018005e518     libucrt:argv_wildcards.obj
 0002:0000e530       $unwind$_setmbcp_nolock    000000018005e530     libucrt:mbctype.obj
 0002:0000e550       $unwind$?update_thread_multibyte_data_internal@@YAPEAU__crt_multibyte_data@@QEAU__acrt_ptd@@QEAPEAU1@@Z 000000018005e550     libucrt:mbctype.obj
 0002:0000e578       $unwind$?setmbcp_internal@@YAHH_NQEAU__acrt_ptd@@QEAPEAU__crt_multibyte_data@@@Z 000000018005e578     libucrt:mbctype.obj
 0002:0000e588       $unwind$?setSBUpLow@@YAXPEAU__crt_multibyte_data@@@Z 000000018005e588     libucrt:mbctype.obj
 0002:0000e5a4       $unwind$??$?RV<lambda_efdfa57d1f175319df784efa44bb7b81>@@AEAV<lambda_5f0a4c1567f8adc6734073e5d1e1b35c>@@V<lambda_2e8a7d3640ea6ccb4c2413664c2db6fd>@@@?$__crt_seh_guarded_call@X@@QEAAX$$QEAV<lambda_efdfa57d1f175319df784efa44bb7b81>@@AEAV<lambda_5f0a4c1567f8adc6734073e5d1e1b35c>@@$$QEAV<lambda_2e8a7d3640ea6ccb4c2413664c2db6fd>@@@Z 000000018005e5a4     libucrt:mbctype.obj
 0002:0000e5c8       $unwind$__acrt_WideCharToMultiByte 000000018005e5c8     libucrt:widechartomultibyte.obj
 0002:0000e5c8       $unwind$__GSHandlerCheckCommon 000000018005e5c8     LIBCMT:gshandler.obj
 0002:0000e5d0       $unwind$??$common_set_variable_in_environment_nolock@D@@YAHQEADH@Z 000000018005e5d0     libucrt:setenv.obj
 0002:0000e5e8       $unwind$??$copy_environment@D@@YAPEAPEADQEAPEAD@Z 000000018005e5e8     libucrt:setenv.obj
 0002:0000e5fc       $unwind$??$?RV<lambda_a37b2b86f63e897a80ea819b0eb08c01>@@AEAV<lambda_38ce7e780aa69e748d6df282ebc68efe>@@V<lambda_99fb1378e971ab6e7edea83e3a7a83a2>@@@?$__crt_seh_guarded_call@H@@QEAAH$$QEAV<lambda_a37b2b86f63e897a80ea819b0eb08c01>@@AEAV<lambda_38ce7e780aa69e748d6df282ebc68efe>@@$$QEAV<lambda_99fb1378e971ab6e7edea83e3a7a83a2>@@@Z 000000018005e5fc     libucrt:commit.obj
 0002:0000e620       $unwind$_write             000000018005e620     libucrt:write.obj
 0002:0000e650       $unwind$_write_nolock      000000018005e650     libucrt:write.obj
 0002:0000e668       $unwind$?write_double_translated_ansi_nolock@@YA?AUwrite_result@?A0x17268360@@HQEBDI@Z 000000018005e668     libucrt:write.obj
 0002:0000e68c       $unwind$?write_text_ansi_nolock@@YA?AUwrite_result@?A0x17268360@@HQEBDI@Z 000000018005e68c     libucrt:write.obj
 0002:0000e68c       $unwind$?write_text_utf16le_nolock@@YA?AUwrite_result@?A0x17268360@@HQEBDI@Z 000000018005e68c     libucrt:write.obj
 0002:0000e6ac       $unwind$?write_text_utf8_nolock@@YA?AUwrite_result@?A0x17268360@@HQEBDI@Z 000000018005e6ac     libucrt:write.obj
 0002:0000e6d0       $unwind$__acrt_update_thread_locale_data 000000018005e6d0     libucrt:locale_refcounting.obj
 0002:0000e6f4       $unwind$?__mbsrtowcs_utf8@__crt_mbstring@@YA_KPEA_WPEAPEBD_KPEAU_Mbstatet@@@Z 000000018005e6f4     libucrt:mbrtowc.obj
 0002:0000e70c       $unwind$?__wcsrtombs_utf8@__crt_mbstring@@YA_KPEADPEAPEB_W_KPEAU_Mbstatet@@@Z 000000018005e70c     libucrt:wcrtomb.obj
 0002:0000e72c       $unwind$?GetTableIndexFromLocaleName@@YAHPEB_W@Z 000000018005e72c     libucrt:lcidtoname_downlevel.obj
 0002:0000e744       $unwind$__acrt_locale_initialize_ctype 000000018005e744     libucrt:initctype.obj
 0002:0000e76c       $unwind$?initialize_lc_time@@YA_NQEAU__crt_lc_time_data@@QEAU__crt_locale_data@@@Z 000000018005e76c     libucrt:inittime.obj
 0002:0000e76c       $unwind$__acrt_locale_initialize_monetary 000000018005e76c     libucrt:initmon.obj
 0002:0000e788       $unwind$__acrt_locale_free_monetary 000000018005e788     libucrt:initmon.obj
 0002:0000e790       $unwind$__acrt_locale_free_time 000000018005e790     libucrt:inittime.obj
 0002:0000e7a0       $unwind$__acrt_GetStringTypeA 000000018005e7a0     libucrt:getstringtypea.obj
 0002:0000e7c8       $unwind$LangCountryEnumProcEx 000000018005e7c8     libucrt:get_qualified_locale.obj
 0002:0000e7e8       $unwind$LanguageEnumProcEx 000000018005e7e8     libucrt:get_qualified_locale.obj
 0002:0000e804       $unwind$GetLocaleNameFromDefault 000000018005e804     libucrt:get_qualified_locale.obj
 0002:0000e81c       $unwind$TestDefaultCountry 000000018005e81c     libucrt:get_qualified_locale.obj
 0002:0000e82c       $unwind$__acrt_get_qualified_locale_downlevel 000000018005e82c     libucrt:getqloc_downlevel.obj
 0002:0000e848       $unwind$LangCountryEnumProc 000000018005e848     libucrt:getqloc_downlevel.obj
 0002:0000e868       $unwind$LanguageEnumProc   000000018005e868     libucrt:getqloc_downlevel.obj
 0002:0000e884       $unwind$CountryEnumProc    000000018005e884     libucrt:getqloc_downlevel.obj
 0002:0000e8a4       $unwind$_sopen_nolock      000000018005e8a4     libucrt:open.obj
 0002:0000e8c0       $unwind$_wsopen_nolock     000000018005e8c0     libucrt:open.obj
 0002:0000e8e0       $unwind$??$common_sopen_dispatch@D@@YAHQEBDHHHQEAHH@Z 000000018005e8e0     libucrt:open.obj
 0002:0000e904       $unwind$?fin$0@?0???$common_sopen_dispatch@D@@YAHQEBDHHHQEAHH@Z@4HA 000000018005e904     libucrt:open.obj
 0002:0000e90c       $unwind$_alloc_osfhnd      000000018005e90c     libucrt:osfinfo.obj
 0002:0000e93c       $unwind$__acrt_lowio_ensure_fh_exists 000000018005e93c     libucrt:osfinfo.obj
 0002:0000e968       $unwind$__acrt_CompareStringA 000000018005e968     libucrt:comparestringa.obj
 0002:0000e978       $unwind$?InternalCompareStringA@@YAHPEAU__crt_locale_pointers@@PEB_WKPEBDH2HH@Z 000000018005e978     libucrt:comparestringa.obj
 0002:0000e99c       $unwind$__acrt_LCMapStringA 000000018005e99c     libucrt:lcmapstringa.obj
 0002:0000e9ac       $unwind$?__acrt_LCMapStringA_stat@@YAHPEAU__crt_locale_pointers@@PEB_WKPEBDHPEADHHH@Z 000000018005e9ac     libucrt:lcmapstringa.obj
 0002:0000e9d4       $unwind$__acrt_fltout      000000018005e9d4     libucrt:cfout.obj
 0002:0000e9f4       $unwind$?divide@__crt_strtox@@YA_KAEAUbig_integer@1@AEBU21@@Z 000000018005e9f4     libucrt:cfout.obj
 0002:0000ea0c       $chain$0$?divide@__crt_strtox@@YA_KAEAUbig_integer@1@AEBU21@@Z 000000018005ea0c     libucrt:cfout.obj
 0002:0000ea20       $chain$1$?divide@__crt_strtox@@YA_KAEAUbig_integer@1@AEBU21@@Z 000000018005ea20     libucrt:cfout.obj
 0002:0000ea30       $unwind$??$write_buffer_nolock@D@@YA_NDV__crt_stdio_stream@@@Z 000000018005ea30     libucrt:_flsbuf.obj
 0002:0000ea40       $unwind$??$write_buffer_nolock@_W@@YA_N_WV__crt_stdio_stream@@@Z 000000018005ea40     libucrt:_flsbuf.obj
 0002:0000ea50       $unwind$??$common_lseek@_J@@YA_JH_JH@Z 000000018005ea50     libucrt:lseek.obj
 0002:0000ea80       $unwind$qsort              000000018005ea80     libucrt:qsort.obj
 0002:0000ea98       $chain$4$qsort             000000018005ea98     libucrt:qsort.obj
 0002:0000eabc       $chain$5$qsort             000000018005eabc     libucrt:qsort.obj
 0002:0000eacc       $unwind$fallbackMethod     000000018005eacc     libucrt:strpbrk.obj
 0002:0000eadc       $unwind$__acrt_SetEnvironmentVariableA 000000018005eadc     libucrt:setenvironmentvariablea.obj
 0002:0000eaf8       $unwind$_putwch_nolock     000000018005eaf8     libucrt:putwch.obj
 0002:0000eb00       $unwind$?__mbrtoc32_utf8@__crt_mbstring@@YA_KPEA_UPEBD_KPEAU_Mbstatet@@@Z 000000018005eb00     libucrt:mbrtoc32.obj
 0002:0000eb1c       $unwind$__acrt_GetLocaleInfoA 000000018005eb1c     libucrt:getlocaleinfoa.obj
 0002:0000eb3c       $unwind$?InternalGetLocaleInfoA@@YAHQEAU__crt_locale_pointers@@QEB_WKQEADH@Z 000000018005eb3c     libucrt:getlocaleinfoa.obj
 0002:0000eb64       $unwind$_towlower_l        000000018005eb64     libucrt:towlower.obj
 0002:0000eb6c       $unwind$_setmode_nolock    000000018005eb6c     libucrt:setmode.obj
 0002:0000eb80       $xdatasym                  000000018005eb80     libucrt:log10.obj
 0002:0000eb8c       $unwind$__acrt_fenv_set_control 000000018005eb8c     libucrt:_fenvutils.obj
 0002:0000eb9c       $unwind$_call_matherr      000000018005eb9c     libucrt:libm_error.obj
 0002:0000eba4       $unwind$_handle_error      000000018005eba4     libucrt:libm_error.obj
 0002:0000ebc4       $unwind$__acrt_initialize_fma3 000000018005ebc4     libucrt:fma3_available.obj
 0002:0000ebcc       $unwind$_log_special_common 000000018005ebcc     libucrt:log_special.obj
 0002:0000ebd8       $xdatasym                  000000018005ebd8     libucrt:fpsr.obj
 0002:0000ebe0       $unwind$_raise_exc_ex      000000018005ebe0     libucrt:fpexcept.obj
 0002:0000ebf4       $unwind$_ctrlfp            000000018005ebf4     libucrt:fpctrl.obj
 0002:0000ec1c       $unwind$?DloadMakePermanentImageCommit@@YAXPEAX_K@Z 000000018005ec1c     DelayImp:delayhlp.obj
 0002:0000ec28       $unwind$?DloadProtectSection@@YAXKPEAK@Z 000000018005ec28     DelayImp:delayhlp.obj
 0002:0000ec38       $unwind$__delayLoadHelper2 000000018005ec38     DelayImp:delayhlp.obj
 0002:0000ec50       $unwind$_IsNonwritableInCurrentImage 000000018005ec50     LIBCMT:pesect.obj
 0002:0000ec78       $xdatasym                  000000018005ec78     LIBCMT:chkstk.obj
 0002:0000ec80       $xdatasym                  000000018005ec80     libvcruntime:memcmp.obj
 0002:00010130       .edata                     0000000180060130     spellchecker.exp
 0002:00010158       rgpv                       0000000180060158     spellchecker.exp
 0002:0001015c       rgszName                   000000018006015c     spellchecker.exp
 0002:00010160       rgwOrd                     0000000180060160     spellchecker.exp
 0002:00010162       szName                     0000000180060162     spellchecker.exp
 0002:00010174       $N00001                    0000000180060174     spellchecker.exp
 0002:000104e0       .idata$6                   00000001800604e0     kernel32:KERNEL32.dll
 0002:00010536       .idata$6                   0000000180060536     ole32:ole32.dll
 0003:00000030       ?__vcrt_flsindex@@3KA      0000000180061030     libvcruntime:per_thread_data.obj
 0003:0000014c       ?errno_no_memory@@3HA      000000018006114c     libucrt:errno.obj
 0003:00000150       ?doserrno_no_memory@@3KA   0000000180061150     libucrt:errno.obj
 0003:00000154       ?__acrt_flsindex@@3KA      0000000180061154     libucrt:per_thread_data.obj
 0003:00000158       _ctype_loc_style           0000000180061158     libucrt:wsetlocale.obj
 0003:00000440       _mbctypes                  0000000180061440     libucrt:mbctype.obj
 0003:00000550       _mbcasemaps                0000000180061550     libucrt:mbctype.obj
 0003:00000650       ?__rgctypeflag@@3PADA      0000000180061650     libucrt:mbctype.obj
 0003:00000660       ?__rgcode_page_info@@3PAUcode_page_info@@A 0000000180061660     libucrt:mbctype.obj
 0003:00000a30       ?__dcrt_lowio_console_output_handle@@3PEAXEA 0000000180061a30     libucrt:initcon.obj
 0003:00000a40       ?dazSupported@?1??_ctrlfp@@9@9 0000000180061a40     libucrt:fpctrl.obj
 0003:00000a60       ?koi8u_tbl@@3PAUcs_info@@A 0000000180061a60     hunspell:csutil.obj
 0003:00000d60       ?iso3_tbl@@3PAUcs_info@@A  0000000180061d60     hunspell:csutil.obj
 0003:00001060       ?iso1_tbl@@3PAUcs_info@@A  0000000180062060     hunspell:csutil.obj
 0003:00001360       ?cp1251_tbl@@3PAUcs_info@@A 0000000180062360     hunspell:csutil.obj
 0003:00001660       ?iso7_tbl@@3PAUcs_info@@A  0000000180062660     hunspell:csutil.obj
 0003:00001960       ?iso2_tbl@@3PAUcs_info@@A  0000000180062960     hunspell:csutil.obj
 0003:00001c60       ?iso14_tbl@@3PAUcs_info@@A 0000000180062c60     hunspell:csutil.obj
 0003:00001f60       ?iso8_tbl@@3PAUcs_info@@A  0000000180062f60     hunspell:csutil.obj
 0003:00002260       ?iso4_tbl@@3PAUcs_info@@A  0000000180063260     hunspell:csutil.obj
 0003:00002560       ?iso10_tbl@@3PAUcs_info@@A 0000000180063560     hunspell:csutil.obj
 0003:00002860       ?iso13_tbl@@3PAUcs_info@@A 0000000180063860     hunspell:csutil.obj
 0003:00002b60       ?koi8r_tbl@@3PAUcs_info@@A 0000000180063b60     hunspell:csutil.obj
 0003:00002e60       ?iscii_devanagari_tbl@@3PAUcs_info@@A 0000000180063e60     hunspell:csutil.obj
 0003:00003160       ?tis620_tbl@@3PAUcs_info@@A 0000000180064160     hunspell:csutil.obj
 0003:00003460       ?iso5_tbl@@3PAUcs_info@@A  0000000180064460     hunspell:csutil.obj
 0003:00003760       ?iso15_tbl@@3PAUcs_info@@A 0000000180064760     hunspell:csutil.obj
 0003:00003a60       ?iso6_tbl@@3PAUcs_info@@A  0000000180064a60     hunspell:csutil.obj
 0003:00003d60       ?iso9_tbl@@3PAUcs_info@@A  0000000180064d60     hunspell:csutil.obj
 0003:00004060       _module                    0000000180065060     main.obj
 0003:000040a0       ?encds@@3PAUenc_entry@@A   00000001800650a0     hunspell:csutil.obj
 0003:00004200       ?utf_lst@@3PAUunicode_info@@A 0000000180065200     hunspell:csutil.obj
 0003:00020f10       ?lang2enc@@3PAUlang_map@@A 0000000180081f10     hunspell:csutil.obj
 0003:000213c8       ?__proc_attached@@3HA      00000001800823c8     LIBCMT:dll_dllmain.obj
 0003:000213d0       GS_ExceptionRecord         00000001800823d0     LIBCMT:gs_report.obj
 0003:00021470       GS_ContextRecord           0000000180082470     LIBCMT:gs_report.obj
 0003:00021968       ?is_initialized_as_dll@@3_NA 0000000180082968     LIBCMT:utility.obj
 0003:00021969       ?module_local_atexit_table_initialized@@3_NA 0000000180082969     LIBCMT:utility.obj
 0003:00021970       ?module_local_atexit_table@@3U_onexit_table_t@@A 0000000180082970     LIBCMT:utility.obj
 0003:00021988       ?module_local_at_quick_exit_table@@3U_onexit_table_t@@A 0000000180082988     LIBCMT:utility.obj
 0003:000219f8       ?heap@@3V_HeapManager@@A   00000001800829f8     libvcruntime:undname.obj
 0003:00021a20       ?__vcrt_startup_thread_ptd@@3U__vcrt_ptd@@A 0000000180082a20     libvcruntime:per_thread_data.obj
 0003:00021ab0       __vcrt_lock_table          0000000180082ab0     libvcruntime:locks.obj
 0003:00021ad8       __vcrt_locks_initialized   0000000180082ad8     libvcruntime:locks.obj
 0003:00021ae0       ?module_handles@@3PAPEAUHINSTANCE__@@A 0000000180082ae0     libvcruntime:winapi_downlevel.obj
 0003:00021af8       ?encoded_function_pointers@@3PAPEAXA 0000000180082af8     libvcruntime:winapi_downlevel.obj
 0003:00021b20       ?__acrt_invalid_parameter_handler@@3V?$dual_state_global@P6AXPEB_W00I_K@Z@__crt_state_management@@A 0000000180082b20     libucrt:invalid_parameter.obj
 0003:00021b40       ?source_frequency@@3_JA    0000000180082b40     libucrt:clock.obj
 0003:00021b48       ?start_count@@3_JA         0000000180082b48     libucrt:clock.obj
 0003:00021b50       ?__acrt_new_handler@@3V?$dual_state_global@P6AH_K@Z@__crt_state_management@@A 0000000180082b50     libucrt:new_handler.obj
 0003:00021b58       ?c_termination_complete@@3JA 0000000180082b58     libucrt:exit.obj
 0003:00021b60       ?thread_local_exit_callback_func@@3P6AXPEAXK0@ZEA 0000000180082b60     libucrt:exit.obj
 0003:00021b70       ?program_name@?1???$common_configure_argv@D@@YAHW4_crt_argv_mode@@@Z@4PADA 0000000180082b70     libucrt:argv_parsing.obj
 0003:00021cc8       ?__acrt_app_type@@3W4_crt_app_type@@A 0000000180082cc8     libucrt:report_runtime_error.obj
 0003:00021ccc       __acrt_error_mode          0000000180082ccc     libucrt:set_error_mode.obj
 0003:00021cd0       ?ctrlc_action@@3V?$dual_state_global@P6AXH@Z@__crt_state_management@@A 0000000180082cd0     libucrt:signal.obj
 0003:00021cd8       ?ctrlbreak_action@@3V?$dual_state_global@P6AXH@Z@__crt_state_management@@A 0000000180082cd8     libucrt:signal.obj
 0003:00021ce0       ?abort_action@@3V?$dual_state_global@P6AXH@Z@__crt_state_management@@A 0000000180082ce0     libucrt:signal.obj
 0003:00021ce8       ?term_action@@3V?$dual_state_global@P6AXH@Z@__crt_state_management@@A 0000000180082ce8     libucrt:signal.obj
 0003:00021cf0       ?__acrt_lock_table@@3PAU_RTL_CRITICAL_SECTION@@A 0000000180082cf0     libucrt:locks.obj
 0003:00021f20       ?__acrt_locks_initialized@@3IA 0000000180082f20     libucrt:locks.obj
 0003:00021f30       ?module_handles@@3PAPEAUHINSTANCE__@@A 0000000180082f30     libucrt:winapi_thunks.obj
 0003:00021fd0       ?encoded_function_pointers@@3PAPEAXA 0000000180082fd0     libucrt:winapi_thunks.obj
 0003:000220e0       ?static_enum_proc@?1??enum_system_locales_ex_nolock@@YAHQ6AHPEA_WK_J@Z@Z@4P6AH0K1@ZEA 00000001800830e0     libucrt:winapi_thunks.obj
 0003:000220f8       ?internal_state@?1??_mbtowc_l@@9@4U_Mbstatet@@A 00000001800830f8     libucrt:mbtowc.obj
 0003:00022100       ?enable_percent_n@@3_KA    0000000180083100     libucrt:printf_count_output.obj
 0003:00022524       ?state_cache@?1???$get_cached_win_policy@Udeveloper_information_policy_properties@?1??__acrt_get_developer_information_policy@@YA?AW4developer_information_policy@@XZ@@@YA?AW4developer_information_policy@@W4AppPolicyShowDeveloperDiagnostic@@@Z@4JA 0000000180083524     libucrt:win_policies.obj
 0003:00022528       ?state_cache@?1???$get_cached_win_policy@Uwindowing_model_policy_properties@?1??__acrt_get_windowing_model_policy@@YA?AW4windowing_model_policy@@XZ@@@YA?AW4windowing_model_policy@@W4AppPolicyWindowingModel@@@Z@4JA 0000000180083528     libucrt:win_policies.obj
 0003:00022548       ?fSystemSet@@3HA           0000000180083548     libucrt:mbctype.obj
 0003:0002254c       ?initialized@?1??__acrt_initialize_multibyte@@9@4_NA 000000018008354c     libucrt:mbctype.obj
 0003:00022588       ?user_matherr@@3V?$dual_state_global@P6AHPEAU_exception@@@Z@__crt_state_management@@A 0000000180083588     libucrt:matherr.obj
 0003:00022590       ?__acrt_global_new_mode@@3V?$dual_state_global@J@__crt_state_management@@A 0000000180083590     libucrt:new_mode.obj
 0003:000225a0       ?internal_pst@?1??__mbrtoc32_utf8@__crt_mbstring@@YA_KPEA_UPEBD_KPEAU_Mbstatet@@@Z@4U3@A 00000001800835a0     libucrt:mbrtoc32.obj
 0003:000225a8       ?internal_pst@?1??__c16rtomb_utf8@__crt_mbstring@@YA_KPEAD_SPEAU_Mbstatet@@@Z@4U3@A 00000001800835a8     libucrt:c16rtomb.obj
 0003:000225f8       ?utf_tbl_count@@3HA        00000001800835f8     hunspell:csutil.obj
 0003:00022600       ?utf_tbl@@3PEAUunicode_info2@@EA 0000000180083600     hunspell:csutil.obj
 0004:00000000       $pdata$?FunctionCallbackWrapper@imp@Nan@@YAXAEBV?$FunctionCallbackInfo@VValue@v8@@@v8@@@Z 0000000180084000     main.obj
 0004:0000000c       $pdata$?New@?$Factory@VFunctionTemplate@v8@@@imp@Nan@@SA?AV?$Local@VFunctionTemplate@v8@@@v8@@P6AXAEBV?$FunctionCallbackInfo@VValue@v8@@@3@@ZV?$Local@VValue@v8@@@5@V?$Local@VSignature@v8@@@5@@Z 000000018008400c     main.obj
 0004:00000018       $pdata$0$?New@?$Factory@VFunctionTemplate@v8@@@imp@Nan@@SA?AV?$Local@VFunctionTemplate@v8@@@v8@@P6AXAEBV?$FunctionCallbackInfo@VValue@v8@@@3@@ZV?$Local@VValue@v8@@@5@V?$Local@VSignature@v8@@@5@@Z 0000000180084018     main.obj
 0004:00000024       $pdata$1$?New@?$Factory@VFunctionTemplate@v8@@@imp@Nan@@SA?AV?$Local@VFunctionTemplate@v8@@@v8@@P6AXAEBV?$FunctionCallbackInfo@VValue@v8@@@3@@ZV?$Local@VValue@v8@@@5@V?$Local@VSignature@v8@@@5@@Z 0000000180084024     main.obj
 0004:00000030       $pdata$2$?New@?$Factory@VFunctionTemplate@v8@@@imp@Nan@@SA?AV?$Local@VFunctionTemplate@v8@@@v8@@P6AXAEBV?$FunctionCallbackInfo@VValue@v8@@@3@@ZV?$Local@VValue@v8@@@5@V?$Local@VSignature@v8@@@5@@Z 0000000180084030     main.obj
 0004:0000003c       $pdata$3$?New@?$Factory@VFunctionTemplate@v8@@@imp@Nan@@SA?AV?$Local@VFunctionTemplate@v8@@@v8@@P6AXAEBV?$FunctionCallbackInfo@VValue@v8@@@3@@ZV?$Local@VValue@v8@@@5@V?$Local@VSignature@v8@@@5@@Z 000000018008403c     main.obj
 0004:00000048       $pdata$?ThrowError@Nan@@YAXPEBD@Z 0000000180084048     main.obj
 0004:00000054       $pdata$??0Utf8String@Nan@@QEAA@V?$Local@VValue@v8@@@v8@@@Z 0000000180084054     main.obj
 0004:00000060       $pdata$1$??0Utf8String@Nan@@QEAA@V?$Local@VValue@v8@@@v8@@@Z 0000000180084060     main.obj
 0004:0000006c       $pdata$2$??0Utf8String@Nan@@QEAA@V?$Local@VValue@v8@@@v8@@@Z 000000018008406c     main.obj
 0004:00000078       $pdata$?AsyncExecuteComplete@Nan@@YAXPEAUuv_work_s@@@Z 0000000180084078     main.obj
 0004:00000084       $pdata$?SetPrototypeMethod@Nan@@YAXV?$Local@VFunctionTemplate@v8@@@v8@@PEBDP6AXAEBV?$FunctionCallbackInfo@VValue@v8@@@1@@Z@Z 0000000180084084     main.obj
 0004:00000090       $pdata$?Ref@ObjectWrap@Nan@@MEAAXXZ 0000000180084090     main.obj
